 firstTest_xpc

 Timestamp is 5ab0f251 (Tue Mar 20 12:36:49 2018)

 Preferred load address is 10000000

 Start         Length     Name                   Class
 0001:00000000 00043d56H .text$mn                CODE
 0002:00000000 00000104H .CRT$XCA                DATA
 0002:00000104 00000104H .CRT$XCZ                DATA
 0002:00000208 00000104H .CRT$XIA                DATA
 0002:0000030c 00000118H .CRT$XIC                DATA
 0002:00000424 00000104H .CRT$XIZ                DATA
 0002:00000528 00000104H .CRT$XPA                DATA
 0002:0000062c 00000109H .CRT$XPX                DATA
 0002:00000738 00000104H .CRT$XPXA               DATA
 0002:0000083c 00000104H .CRT$XPZ                DATA
 0002:00000940 00000104H .CRT$XTA                DATA
 0002:00000a44 00000104H .CRT$XTZ                DATA
 0002:00000b50 00007a64H .rdata                  DATA
 0002:000085b4 000001c4H .rdata$debug            DATA
 0002:00008780 0000010eH .rdata$sxdata           DATA
 0002:00008890 00000104H .rtc$IAA                DATA
 0002:00008994 00000104H .rtc$IZZ                DATA
 0002:00008a98 00000104H .rtc$TAA                DATA
 0002:00008b9c 00000104H .rtc$TZZ                DATA
 0002:00008ca0 00000991H .xdata$x                DATA
 0002:00009640 000001e1H .edata                  DATA
 0003:00000000 00005b8bH .data                   DATA
 0003:00005ba0 000156c4H .bss                    DATA
 0004:00000000 000001b0H .idata$5                DATA
 0004:000001b0 00000014H .idata$2                DATA
 0004:000001c4 00000014H .idata$3                DATA
 0004:000001d8 000001b0H .idata$4                DATA
 0004:00000388 0000076bH .idata$6                DATA

  Address         Publics by Value              Rva+Base       Lib:Object

 0000:00000000       ___guard_fids_count        00000000     <absolute>
 0000:00000000       ___guard_fids_table        00000000     <absolute>
 0000:00000000       __except_list              00000000     <absolute>
 0000:00000000       ___guard_flags             00000000     <absolute>
 0000:00000003       ___safe_se_handler_count   00000003     <absolute>
 0000:00000000       ___ImageBase               10000000     <linker-defined>
 0001:000003f0       _firstTest                 100013f0 f   firstTest.obj
 0001:00002700       _MdlInitializeSizes        10003700 f   firstTest.obj
 0001:00002710       _MdlInitializeSampleTimes  10003710 f   firstTest.obj
 0001:00002720       _MdlInitialize             10003720 f   firstTest.obj
 0001:00002730       _MdlStart                  10003730 f   firstTest.obj
 0001:00002740       _MdlOutputs                10003740 f   firstTest.obj
 0001:00002750       _MdlUpdate                 10003750 f   firstTest.obj
 0001:00002760       _MdlTerminate              10003760 f   firstTest.obj
 0001:00003780       _firstTest_GetCAPIStaticMap 10004780 f   firstTest_capi.obj
 0001:00003790       _firstTest_InitializeDataMapInfo 10004790 f   firstTest_capi.obj
 0001:00003820       _rtGetInf                  10004820 f   rtGetInf.obj
 0001:000038c0       _rtGetInfF                 100048c0 f   rtGetInf.obj
 0001:000038e0       _rtGetMinusInf             100048e0 f   rtGetInf.obj
 0001:00003980       _rtGetMinusInfF            10004980 f   rtGetInf.obj
 0001:000039f0       _rtGetNaN                  100049f0 f   rtGetNaN.obj
 0001:00003a90       _rtGetNaNF                 10004a90 f   rtGetNaN.obj
 0001:00003b40       _rt_GetMxIdFromDTypeIdForRSim 10004b40 f   rt_logging.obj
 0001:00003ba0       _rt_GetMxIdFromDTypeId     10004ba0 f   rt_logging.obj
 0001:00003c00       _rt_CreateLogVarWithConvert 10004c00 f   rt_logging.obj
 0001:000046b0       _rt_CreateLogVar           100056b0 f   rt_logging.obj
 0001:00004740       _rt_CreateStructLogVar     10005740 f   rt_logging.obj
 0001:000047b0       _rt_StartDataLoggingWithStartTime 100057b0 f   rt_logging.obj
 0001:00004da0       _rt_StartDataLogging       10005da0 f   rt_logging.obj
 0001:00004de0       _rt_UpdateLogVar           10005de0 f   rt_logging.obj
 0001:000061c0       _rt_UpdateStructLogVar     100071c0 f   rt_logging.obj
 0001:00006270       _rt_UpdateTXYLogVars       10007270 f   rt_logging.obj
 0001:00006290       _rt_UpdateTXXFYLogVars     10007290 f   rt_logging.obj
 0001:00006750       _rt_StopDataLoggingImpl    10007750 f   rt_logging.obj
 0001:00006ab0       _rt_StopDataLogging        10007ab0 f   rt_logging.obj
 0001:0000d660       _rt_FillStateSigInfoFromMMI 1000e660 f   rt_logging_mmi.obj
 0001:0000da60       _rt_CleanUpForStateLogWithMMI 1000ea60 f   rt_logging_mmi.obj
 0001:0000dd00       _rt_mxCreateCharMatrixFromStrings 1000ed00 f   rt_matrx.obj
 0001:0000de80       _rt_mxCreateString         1000ee80 f   rt_matrx.obj
 0001:0000df40       _rt_mxCreateDoubleMatrix   1000ef40 f   rt_matrx.obj
 0001:0000dfa0       _rt_mxCreateNumericArray   1000efa0 f   rt_matrx.obj
 0001:0000dff0       _rt_mxDuplicateArray       1000eff0 f   rt_matrx.obj
 0001:0000e070       _rt_mxGetDimensions        1000f070 f   rt_matrx.obj
 0001:0000e0c0       _rt_mxGetEps               1000f0c0 f   rt_matrx.obj
 0001:0000e0d0       _rt_mxGetString            1000f0d0 f   rt_matrx.obj
 0001:0000e2b0       _rt_InitInfAndNaN          1000f2b0 f   rt_nonfinite.obj
 0001:0000e300       _rtIsInf                   1000f300 f   rt_nonfinite.obj
 0001:0000e350       _rtIsInfF                  1000f350 f   rt_nonfinite.obj
 0001:0000e390       _rtIsNaN                   1000f390 f   rt_nonfinite.obj
 0001:0000e3c0       _rtIsNaNF                  1000f3c0 f   rt_nonfinite.obj
 0001:0000e440       _rtPrintfNoOp              1000f440 f   rt_printf.obj
 0001:0000e470       _rtwCAPI_EncodePath        1000f470 f   rtw_modelmap_utils.obj
 0001:0000e5c0       _rtwCAPI_HasStates         1000f5c0 f   rtw_modelmap_utils.obj
 0001:0000e630       _rtwCAPI_GetNumStateRecords 1000f630 f   rtw_modelmap_utils.obj
 0001:0000e6a0       _rtwCAPI_GetNumStateRecordsForRTWLogging 1000f6a0 f   rtw_modelmap_utils.obj
 0001:0000e770       _rtwCAPI_GetNumContStateRecords 1000f770 f   rtw_modelmap_utils.obj
 0001:0000e870       _rtwCAPI_FreeFullPaths     1000f870 f   rtw_modelmap_utils.obj
 0001:0000e910       _rtwCAPI_UpdateFullPaths   1000f910 f   rtw_modelmap_utils.obj
 0001:0000eb20       _rtwCAPI_GetFullStateBlockPath 1000fb20 f   rtw_modelmap_utils.obj
 0001:0000eca0       _rtwCAPI_GetStateWidth     1000fca0 f   rtw_modelmap_utils.obj
 0001:0000ed10       _rtwCAPI_GetStateRecordInfo 1000fd10 f   rtw_modelmap_utils.obj
 0001:0000f2b0       _rtwCAPI_GetNumSigLogRecords 100102b0 f   rtw_modelmap_utils.obj
 0001:0000f320       _rtwCAPI_GetNumSigLogRecordsForRTWLogging 10010320 f   rtw_modelmap_utils.obj
 0001:0000f400       _rtwCAPI_GetSigLogRecordInfo 10010400 f   rtw_modelmap_utils.obj
 0001:0000f8a0       _rtwCAPI_CountSysRan       100108a0 f   rtw_modelmap_utils.obj
 0001:0000f960       _rtwCAPI_FillSysRan        10010960 f   rtw_modelmap_utils.obj
 0001:0000fa60       _rtwCAPI_GetSigAddrFromMap 10010a60 f   rtw_modelmap_utils.obj
 0001:000101d0       _firstTest_ChangeStepSize  100111d0 f   xpctarget.obj
 0001:00010240       _changeStepSize            10011240 f   xpctarget.obj
 0001:00010260       _SLRTSetErrorStatus        10011260 f   xpctarget.obj
 0001:00010270       _updateDiscreteEvents      10011270 f   xpctarget.obj
 0001:00010280       _DllMain@12                10011280 f   xpctarget.obj
 0001:00010290       _getrlmdlinfo              10011290 f   xpctarget.obj
 0001:000104a0       _getDLMVersion             100114a0 f   xpctarget.obj
 0001:000104b0       _getRefMdlPath             100114b0 f   xpctarget.obj
 0001:00010510       _getRefMdlSignalNumber     10011510 f   xpctarget.obj
 0001:00010690       _getNumRef                 10011690 f   appmappingData.obj
 0001:00011350       _adnipcim                  10012350 f   adnipcim.obj
 0001:00012120       _danipcim                  10013120 f   danipcim.obj
 0001:00012410       _niMIdentify               10013410 f   xpcionim.obj
 0001:00012540       _niMconfig                 10013540 f   xpcionim.obj
 0001:00012640       _niM_AISetup               10013640 f   xpcionim.obj
 0001:00012c40       _niM_aiConfigureChannel    10013c40 f   xpcionim.obj
 0001:00012cc0       _niM_configureTimebase     10013cc0 f   xpcionim.obj
 0001:00012cf0       _niM_pllReset              10013cf0 f   xpcionim.obj
 0001:00012d40       _niM_analogTriggerReset    10013d40 f   xpcionim.obj
 0001:00012dd0       _niM_Private_Data          10013dd0 f   xpcionim.obj
 0001:00012f60       _niM_SetPFIFilter          10013f60 f   xpcionim.obj
 0001:00013000       _niM_SetPFI_Select         10014000 f   xpcionim.obj
 0001:000130a0       _niM_SetPFI_DO             100140a0 f   xpcionim.obj
 0001:000130f0       _niM_whichBank             100140f0 f   xpcionim.obj
 0001:00013140       _niM_resetCtr              10014140 f   xpcionim.obj
 0001:00013170       _niM_Cont_Pulse_Train_Generation 10014170 f   xpcionim.obj
 0001:000133b0       _niM_CtrArm                100143b0 f   xpcionim.obj
 0001:000133e0       _niM_CtrDisarm             100143e0 f   xpcionim.obj
 0001:00013410       _niM_PeriodConfigure       10014410 f   xpcionim.obj
 0001:00013670       _niM_CtrReadArm            10014670 f   xpcionim.obj
 0001:000136a0       _niM_CtrReadDisarm         100146a0 f   xpcionim.obj
 0001:000136d0       _niM_Counter_Reset_All     100146d0 f   xpcionim.obj
 0001:000137b0       _niM_eepromReadMSeries     100147b0 f   xpcionim.obj
 0001:000138f0       _niM_aiGetScalingCoefficients 100148f0 f   xpcionim.obj
 0001:00013a70       _niM_aoGetScalingCoefficients 10014a70 f   xpcionim.obj
 0001:00013b10       _niM_aiPolynomialScaler    10014b10 f   xpcionim.obj
 0001:00013b80       _niM_aoLinearScaler        10014b80 f   xpcionim.obj
 0001:00013bb0       _niM_AO_Setup              10014bb0 f   xpcionim.obj
 0001:00013dd0       _niM_aoConfigureDAC        10014dd0 f   xpcionim.obj
 0001:00014580       _ShowPCIDevice             10015580 f   xpcruntime:xpcimports.obj
 0001:00014690       _GetPCIDeviceFull          10015690 f   xpcruntime:xpcimports.obj
 0001:000146f0       _xpcGetPciConfigAtSlot     100156f0 f   xpcruntime:xpcimports.obj
 0001:00014ab0       _xpceuploadevent           10015ab0 f   xpcruntime:xpcimports.obj
 0001:00014f70       _xpcInitProcs              10015f70 f   xpcruntime:xpcimports.obj
 0001:0001622f       __heap_alloc               1001722f f i LIBCMT:malloc.obj
 0001:0001626c       _malloc                    1001726c f   LIBCMT:malloc.obj
 0001:00016300       _memset                    10017300 f   LIBCMT:memset.obj
 0001:00016390       __get_printf_count_output  10017390 f   LIBCMT:printf.obj
 0001:000163a5       __printf_l                 100173a5 f   LIBCMT:printf.obj
 0001:000163bc       __printf_p                 100173bc f   LIBCMT:printf.obj
 0001:000163d2       __printf_p_l               100173d2 f   LIBCMT:printf.obj
 0001:000163e9       __printf_s_l               100173e9 f   LIBCMT:printf.obj
 0001:00016400       __set_printf_count_output  10017400 f   LIBCMT:printf.obj
 0001:00016428       _printf                    10017428 f   LIBCMT:printf.obj
 0001:000164d7       _printf_s                  100174d7 f   LIBCMT:printf.obj
 0001:000164ed       __fpmath                   100174ed f   LIBCMT:fpinit.obj
 0001:00016504       ___setfflag                10017504 f   LIBCMT:fpinit.obj
 0001:00016517       __cfltcvt_init             10017517 f   LIBCMT:fpinit.obj
 0001:00016577       ___raise_securityfailure   10017577 f   LIBCMT:gs_report.obj
 0001:000165b4       ___report_gsfailure        100175b4 f   LIBCMT:gs_report.obj
 0001:000166af       ___report_rangecheckfailure 100176af f   LIBCMT:gs_report.obj
 0001:000166bb       ___report_securityfailure  100176bb f   LIBCMT:gs_report.obj
 0001:0001678b       ___report_securityfailureEx 1001778b f   LIBCMT:gs_report.obj
 0001:000168a1       ___copy_path_to_wide_string 100178a1 f   LIBCMT:crt0dat.obj
 0001:00016953       ___copy_to_char            10017953 f   LIBCMT:crt0dat.obj
 0001:00016a08       ___crtCorExitProcess       10017a08 f   LIBCMT:crt0dat.obj
 0001:00016a3c       ___crtExitProcess          10017a3c f   LIBCMT:crt0dat.obj
 0001:00016a52       ___freeCrtMemory           10017a52 f   LIBCMT:crt0dat.obj
 0001:00016b5f       __amsg_exit                10017b5f f   LIBCMT:crt0dat.obj
 0001:00016b7b       __c_exit                   10017b7b f   LIBCMT:crt0dat.obj
 0001:00016b8a       __cexit                    10017b8a f   LIBCMT:crt0dat.obj
 0001:00016b99       __cinit                    10017b99 f   LIBCMT:crt0dat.obj
 0001:00016c1d       __exit                     10017c1d f   LIBCMT:crt0dat.obj
 0001:00016c31       __exit_app                 10017c31 f   LIBCMT:crt0dat.obj
 0001:00016c3f       __get_pgmptr               10017c3f f   LIBCMT:crt0dat.obj
 0001:00016c6e       __get_wpgmptr              10017c6e f   LIBCMT:crt0dat.obj
 0001:00016c9d       __init_pointers            10017c9d f   LIBCMT:crt0dat.obj
 0001:00016d0b       __initterm_e               10017d0b f   LIBCMT:crt0dat.obj
 0001:00016d2d       __lockexit                 10017d2d f   LIBCMT:crt0dat.obj
 0001:00016d36       __unlockexit               10017d36 f   LIBCMT:crt0dat.obj
 0001:00016e6e       _exit                      10017e6e f   LIBCMT:crt0dat.obj
 0001:00016e82       _calloc                    10017e82 f   LIBCMT:calloc.obj
 0001:00016ec2       _free                      10017ec2 f   LIBCMT:free.obj
 0001:00016efa       _realloc                   10017efa f   LIBCMT:realloc.obj
 0001:00016fb0       _memcpy                    10017fb0 f   LIBCMT:memcpy.obj
 0001:00017600       _strcmp                    10018600 f   LIBCMT:strcmp.obj
 0001:00017690       _strlen                    10018690 f   LIBCMT:strlen.obj
 0001:00017720       _memmove                   10018720 f   LIBCMT:memmove.obj
 0001:00017d70       _strchr                    10018d70 f   LIBCMT:strchr.obj
 0001:00017dde       ___from_strstr_to_strchr   10018dde     LIBCMT:strchr.obj
 0001:00017ea0       _strncat                   10018ea0 f   LIBCMT:strncat.obj
 0001:00017fe0       _strncpy                   10018fe0 f   LIBCMT:strncpy.obj
 0001:00018104       ___initstdio               10019104 f   LIBCMT:_file.obj
 0001:00018177       ___endstdio                10019177 f   LIBCMT:_file.obj
 0001:0001819e       ___iob_func                1001919e f   LIBCMT:_file.obj
 0001:000181a4       __lock_file                100191a4 f   LIBCMT:_file.obj
 0001:000181e3       __lock_file2               100191e3 f   LIBCMT:_file.obj
 0001:00018213       __unlock_file              10019213 f   LIBCMT:_file.obj
 0001:0001824d       __unlock_file2             1001924d f   LIBCMT:_file.obj
 0001:0001827a       __fclose_nolock            1001927a f   LIBCMT:fclose.obj
 0001:000182e6       _fclose                    100192e6 f   LIBCMT:fclose.obj
 0001:0001835d       __fsopen                   1001935d f   LIBCMT:fopen.obj
 0001:00018421       _fopen                     10019421 f   LIBCMT:fopen.obj
 0001:00018436       _fopen_s                   10019436 f   LIBCMT:fopen.obj
 0001:0001847b       __fprintf_l                1001947b f   LIBCMT:fprintf.obj
 0001:00018495       __fprintf_p                10019495 f   LIBCMT:fprintf.obj
 0001:000184ae       __fprintf_p_l              100194ae f   LIBCMT:fprintf.obj
 0001:000184c8       __fprintf_s_l              100194c8 f   LIBCMT:fprintf.obj
 0001:000184e2       _fprintf                   100194e2 f   LIBCMT:fprintf.obj
 0001:000185f4       _fprintf_s                 100195f4 f   LIBCMT:fprintf.obj
 0001:0001860d       __fread_nolock             1001960d f   LIBCMT:fread.obj
 0001:00018628       __fread_nolock_s           10019628 f   LIBCMT:fread.obj
 0001:000187ed       _fread                     100197ed f   LIBCMT:fread.obj
 0001:00018808       _fread_s                   10019808 f   LIBCMT:fread.obj
 0001:00018899       __fwrite_nolock            10019899 f   LIBCMT:fwrite.obj
 0001:000189f2       _fwrite                    100199f2 f   LIBCMT:fwrite.obj
 0001:00018a74       __unlink                   10019a74 f   LIBCMT:unlink.obj
 0001:00018a7d       _remove                    10019a7d f   LIBCMT:unlink.obj
 0001:00018abf       _rewind                    10019abf f   LIBCMT:rewind.obj
 0001:00018b7e       __scprintf                 10019b7e f   LIBCMT:sprintf.obj
 0001:00018b91       __scprintf_l               10019b91 f   LIBCMT:sprintf.obj
 0001:00018ba8       __scprintf_p               10019ba8 f   LIBCMT:sprintf.obj
 0001:00018bbb       __scprintf_p_l             10019bbb f   LIBCMT:sprintf.obj
 0001:00018bd2       __snprintf_s               10019bd2 f   LIBCMT:sprintf.obj
 0001:00018bf1       __snprintf_s_l             10019bf1 f   LIBCMT:sprintf.obj
 0001:00018c11       __sprintf_l                10019c11 f   LIBCMT:sprintf.obj
 0001:00018c2b       __sprintf_p                10019c2b f   LIBCMT:sprintf.obj
 0001:00018c47       __sprintf_p_l              10019c47 f   LIBCMT:sprintf.obj
 0001:00018c64       __sprintf_s_l              10019c64 f   LIBCMT:sprintf.obj
 0001:00018c81       _sprintf                   10019c81 f   LIBCMT:sprintf.obj
 0001:00018d05       _sprintf_s                 10019d05 f   LIBCMT:sprintf.obj
 0001:00018d30       _floor                     10019d30 f   LIBCMT:floor_pentium4.obj
 0001:00018d70       __floor_pentium4           10019d70 f   LIBCMT:floor_pentium4.obj
 0001:00018e51       _ldexp                     10019e51 f   LIBCMT:ldexp.obj
 0001:0001903d       @__security_check_cookie@4 1001a03d f   LIBCMT:secchk.obj
 0001:00019050       __ftoui3                   1001a050 f   LIBCMT:ftol3.obj
 0001:0001905f       __ftoul3                   1001a05f f   LIBCMT:ftol3.obj
 0001:0001906e       __ftol3                    1001a06e f   LIBCMT:ftol3.obj
 0001:0001907b       __ftol3_NaN                1001a07b f   LIBCMT:ftol3.obj
 0001:00019093       __ftol3_work               1001a093 f   LIBCMT:ftol3.obj
 0001:00019119       __ftol3_common             1001a119 f   LIBCMT:ftol3.obj
 0001:000191db       __ftol3_arg_error          1001a1db f   LIBCMT:ftol3.obj
 0001:000191ed       __ftol3_except             1001a1ed f   LIBCMT:ftol3.obj
 0001:00019231       __dtoui3                   1001a231 f   LIBCMT:ftol3.obj
 0001:00019240       __dtoul3                   1001a240 f   LIBCMT:ftol3.obj
 0001:0001924f       __dtol3                    1001a24f f   LIBCMT:ftol3.obj
 0001:0001925c       __dtol3_NaN                1001a25c f   LIBCMT:ftol3.obj
 0001:00019279       __dtol3_work               1001a279 f   LIBCMT:ftol3.obj
 0001:0001935e       __ultod3                   1001a35e f   LIBCMT:ftol3.obj
 0001:000193ef       __ltod3                    1001a3ef f   LIBCMT:ftol3.obj
 0001:0001941d       __invoke_watson_if_error   1001a41d f i LIBCMT:wassert.obj
 0001:0001943d       __wassert                  1001a43d f   LIBCMT:wassert.obj
 0001:00019af0       _strcpy                    1001aaf0 f   LIBCMT:strcat.obj
 0001:00019b00       _strcat                    1001ab00 f   LIBCMT:strcat.obj
 0001:00019be8       __CRT_INIT@12              1001abe8 f   LIBCMT:dllcrt0.obj
 0001:00019d5a       __DllMainCRTStartup@12     1001ad5a f   LIBCMT:dllcrt0.obj
 0001:00019e8b       ___DllXcptFilter           1001ae8b f   LIBCMT:dllcrt0.obj
 0001:00019eb0       ?_query_new_handler@@YAP6AHI@ZXZ 1001aeb0 f   LIBCMT:handler.obj
 0001:00019ebd       ?_set_new_handler@@YAP6AHI@ZH@Z 1001aebd f   LIBCMT:handler.obj
 0001:00019ec6       ?_set_new_handler@@YAP6AHI@ZP6AHI@Z@Z 1001aec6 f   LIBCMT:handler.obj
 0001:00019efb       __callnewh                 1001aefb f   LIBCMT:handler.obj
 0001:00019f21       __initp_heap_handler       1001af21 f   LIBCMT:handler.obj
 0001:00019f2e       __FF_MSGBANNER             1001af2e f   LIBCMT:crt0msg.obj
 0001:00019f67       __GET_RTERRMSG             1001af67 f   LIBCMT:crt0msg.obj
 0001:00019f8b       __NMSG_WRITE               1001af8b f   LIBCMT:crt0msg.obj
 0001:0001a148       ___doserrno                1001b148 f   LIBCMT:dosmap.obj
 0001:0001a15b       __dosmaperr                1001b15b f   LIBCMT:dosmap.obj
 0001:0001a17c       __errno                    1001b17c f   LIBCMT:dosmap.obj
 0001:0001a18f       __get_doserrno             1001b18f f   LIBCMT:dosmap.obj
 0001:0001a1b2       __get_errno                1001b1b2 f   LIBCMT:dosmap.obj
 0001:0001a1d5       __get_errno_from_oserr     1001b1d5 f   LIBCMT:dosmap.obj
 0001:0001a216       __set_doserrno             1001b216 f   LIBCMT:dosmap.obj
 0001:0001a235       __set_errno                1001b235 f   LIBCMT:dosmap.obj
 0001:0001a254       __get_heap_handle          1001b254 f   LIBCMT:heapinit.obj
 0001:0001a25a       __heap_init                1001b25a f   LIBCMT:heapinit.obj
 0001:0001a26f       __heap_term                1001b26f f   LIBCMT:heapinit.obj
 0001:0001a277       __VEC_memset               1001b277 f   LIBCMT:p4_memset.obj
 0001:0001a33f       ___isa_available_init      1001b33f f   LIBCMT:cpu_disp.obj
 0001:0001a4b8       ?_invalid_parameter@@YAXPBG00II@Z 1001b4b8 f   LIBCMT:invarg.obj
 0001:0001a4bd       ?_invoke_watson@@YAXPBG00II@Z 1001b4bd f   LIBCMT:invarg.obj
 0001:0001a4d5       __call_reportfault         1001b4d5 f   LIBCMT:invarg.obj
 0001:0001a5fa       __get_invalid_parameter_handler 1001b5fa f   LIBCMT:invarg.obj
 0001:0001a607       __initp_misc_invarg        1001b607 f   LIBCMT:invarg.obj
 0001:0001a614       __invalid_parameter        1001b614 f   LIBCMT:invarg.obj
 0001:0001a63f       __invalid_parameter_noinfo 1001b63f f   LIBCMT:invarg.obj
 0001:0001a64f       __invalid_parameter_noinfo_noreturn 1001b64f f   LIBCMT:invarg.obj
 0001:0001a66a       __invoke_watson            1001b66a f   LIBCMT:invarg.obj
 0001:0001a695       __set_invalid_parameter_handler 1001b695 f   LIBCMT:invarg.obj
 0001:0001a6ba       __vprintf_l                1001b6ba f   LIBCMT:vprintf.obj
 0001:0001a6d5       __vprintf_p                1001b6d5 f   LIBCMT:vprintf.obj
 0001:0001a6ef       __vprintf_p_l              1001b6ef f   LIBCMT:vprintf.obj
 0001:0001a70a       __vprintf_s_l              1001b70a f   LIBCMT:vprintf.obj
 0001:0001a725       _vprintf                   1001b725 f   LIBCMT:vprintf.obj
 0001:0001a73f       _vprintf_helper            1001b73f f   LIBCMT:vprintf.obj
 0001:0001a7cc       _vprintf_s                 1001b7cc f   LIBCMT:vprintf.obj
 0001:0001a7e6       __ftbuf                    1001b7e6 f   LIBCMT:_sftbuf.obj
 0001:0001a817       __stbuf                    1001b817 f   LIBCMT:_sftbuf.obj
 0001:0001a8bd       ??0_LocaleUpdate@@QAE@PAUlocaleinfo_struct@@@Z 1001b8bd f i LIBCMT:output.obj
 0001:0001a945       ??1_LocaleUpdate@@QAE@XZ   1001b945 f i LIBCMT:output.obj
 0001:0001a953       ?GetLocaleT@_LocaleUpdate@@QAEPAUlocaleinfo_struct@@XZ 1001b953 f i LIBCMT:output.obj
 0001:0001a956       __output_l                 1001b956 f   LIBCMT:output.obj
 0001:0001b4d6       _get_int64_arg             1001c4d6 f i LIBCMT:output.obj
 0001:0001b4e9       _get_int_arg               1001c4e9 f i LIBCMT:output.obj
 0001:0001b4f9       _get_short_arg             1001c4f9 f i LIBCMT:output.obj
 0001:0001b600       __SEH_prolog4              1001c600 f   LIBCMT:sehprolg4.obj
 0001:0001b645       __SEH_epilog4              1001c645 f   LIBCMT:sehprolg4.obj
 0001:0001b6a0       __except_handler4          1001c6a0 f   LIBCMT:chandler4.obj
 0001:0001b834       ?strrchr@@YAPADPADH@Z      1001c834 f i LIBCMT:cvt.obj
 0001:0001b83d       __cfltcvt                  1001c83d f   LIBCMT:cvt.obj
 0001:0001b85e       __cfltcvt_l                1001c85e f   LIBCMT:cvt.obj
 0001:0001b8e4       __cftoa                    1001c8e4 f   LIBCMT:cvt.obj
 0001:0001b902       __cftoa_l                  1001c902 f   LIBCMT:cvt.obj
 0001:0001bc5e       __cftoe                    1001cc5e f   LIBCMT:cvt.obj
 0001:0001bdcd       __cftoe_l                  1001cdcd f   LIBCMT:cvt.obj
 0001:0001be9b       __cftof                    1001ce9b f   LIBCMT:cvt.obj
 0001:0001bfa2       __cftof_l                  1001cfa2 f   LIBCMT:cvt.obj
 0001:0001c063       __cftog                    1001d063 f   LIBCMT:cvt.obj
 0001:0001c081       __cftog_l                  1001d081 f   LIBCMT:cvt.obj
 0001:0001c180       __cropzeros                1001d180 f   LIBCMT:cvt.obj
 0001:0001c191       __cropzeros_l              1001d191 f   LIBCMT:cvt.obj
 0001:0001c211       __fassign                  1001d211 f   LIBCMT:cvt.obj
 0001:0001c229       __fassign_l                1001d229 f   LIBCMT:cvt.obj
 0001:0001c26b       __forcdecpt                1001d26b f   LIBCMT:cvt.obj
 0001:0001c27c       __forcdecpt_l              1001d27c f   LIBCMT:cvt.obj
 0001:0001c2f0       __positive                 1001d2f0 f   LIBCMT:cvt.obj
 0001:0001c332       __setdefaultprecision      1001d332 f   LIBCMT:fp8.obj
 0001:0001c359       __initp_misc_cfltcvt_tab   1001d359 f   LIBCMT:cmiscdat.obj
 0001:0001c378       __crt_debugger_hook        1001d378 f   LIBCMT:dbghook.obj
 0001:0001c3ad       ___crtCloseThreadpoolTimer 1001d3ad f   LIBCMT:winapisupp.obj
 0001:0001c3c4       ___crtCloseThreadpoolWait  1001d3c4 f   LIBCMT:winapisupp.obj
 0001:0001c3db       ___crtCreateEventExW       1001d3db f   LIBCMT:winapisupp.obj
 0001:0001c416       ___crtCreateSemaphoreExW   1001d416 f   LIBCMT:winapisupp.obj
 0001:0001c450       ___crtCreateSymbolicLinkW  1001d450 f   LIBCMT:winapisupp.obj
 0001:0001c479       ___crtCreateThreadpoolTimer 1001d479 f   LIBCMT:winapisupp.obj
 0001:0001c49a       ___crtCreateThreadpoolWait 1001d49a f   LIBCMT:winapisupp.obj
 0001:0001c4bb       ___crtFlsAlloc             1001d4bb f   LIBCMT:winapisupp.obj
 0001:0001c4d9       ___crtFlsFree              1001d4d9 f   LIBCMT:winapisupp.obj
 0001:0001c4f8       ___crtFlsGetValue          1001d4f8 f   LIBCMT:winapisupp.obj
 0001:0001c517       ___crtFlsSetValue          1001d517 f   LIBCMT:winapisupp.obj
 0001:0001c539       ___crtFlushProcessWriteBuffers 1001d539 f   LIBCMT:winapisupp.obj
 0001:0001c549       ___crtFreeLibraryWhenCallbackReturns 1001d549 f   LIBCMT:winapisupp.obj
 0001:0001c563       ___crtGetCurrentProcessorNumber 1001d563 f   LIBCMT:winapisupp.obj
 0001:0001c575       ___crtGetFileInformationByHandleEx 1001d575 f   LIBCMT:winapisupp.obj
 0001:0001c5a1       ___crtGetLogicalProcessorInformation 1001d5a1 f   LIBCMT:winapisupp.obj
 0001:0001c5c7       ___crtGetShowWindowMode    1001d5c7 f   LIBCMT:winapisupp.obj
 0001:0001c5ea       ___crtGetTickCount64       1001d5ea f   LIBCMT:winapisupp.obj
 0001:0001c602       ___crtInitializeCriticalSectionEx 1001d602 f   LIBCMT:winapisupp.obj
 0001:0001c630       ___crtIsPackagedApp        1001d630 f   LIBCMT:winapisupp.obj
 0001:0001c670       ___crtLoadWinApiPointers   1001d670 f   LIBCMT:winapisupp.obj
 0001:0001c8fb       ___crtSetFileInformationByHandle 1001d8fb f   LIBCMT:winapisupp.obj
 0001:0001c927       ___crtSetThreadStackGuarantee 1001d927 f   LIBCMT:winapisupp.obj
 0001:0001c942       ___crtSetThreadpoolTimer   1001d942 f   LIBCMT:winapisupp.obj
 0001:0001c962       ___crtSetThreadpoolWait    1001d962 f   LIBCMT:winapisupp.obj
 0001:0001c97f       ___crtSetUnhandledExceptionFilter 1001d97f f   LIBCMT:winapisupp.obj
 0001:0001c98d       ___crtSleep                1001d98d f   LIBCMT:winapisupp.obj
 0001:0001c99b       ___crtTerminateProcess     1001d99b f   LIBCMT:winapisupp.obj
 0001:0001c9b0       ___crtUnhandledException   1001d9b0 f   LIBCMT:winapisupp.obj
 0001:0001c9c6       ___crtWaitForThreadpoolTimerCallbacks 1001d9c6 f   LIBCMT:winapisupp.obj
 0001:0001c9e0       __RTC_Initialize           1001d9e0 f   LIBCMT:initsect.obj
 0001:0001ca00       __RTC_Terminate            1001da00 f   LIBCMT:initsect.obj
 0001:0001ca20       __lock                     1001da20 f   LIBCMT:mlock.obj
 0001:0001ca54       __lockerr_exit             1001da54 f   LIBCMT:mlock.obj
 0001:0001ca74       __mtdeletelocks            1001da74 f   LIBCMT:mlock.obj
 0001:0001cac8       __mtinitlocknum            1001dac8 f   LIBCMT:mlock.obj
 0001:0001cb71       __mtinitlocks              1001db71 f   LIBCMT:mlock.obj
 0001:0001cbaa       __unlock                   1001dbaa f   LIBCMT:mlock.obj
 0001:0001cbc0       __FindPESection            1001dbc0 f   LIBCMT:pesect.obj
 0001:0001cc10       __IsNonwritableInCurrentImage 1001dc10 f   LIBCMT:pesect.obj
 0001:0001ccd0       __ValidateImageBase        1001dcd0 f   LIBCMT:pesect.obj
 0001:0001cd01       ___onexitinit              1001dd01 f   LIBCMT:onexit.obj
 0001:0001cd30       __onexit                   1001dd30 f   LIBCMT:onexit.obj
 0001:0001ce2c       _atexit                    1001de2c f   LIBCMT:onexit.obj
 0001:0001ce41       __calloc_crt               1001de41 f   LIBCMT:crtheap.obj
 0001:0001ce89       __malloc_crt               1001de89 f   LIBCMT:crtheap.obj
 0001:0001ced0       __realloc_crt              1001ded0 f   LIBCMT:crtheap.obj
 0001:0001cf1a       __recalloc_crt             1001df1a f   LIBCMT:crtheap.obj
 0001:0001cf68       __set_malloc_crt_max_wait  1001df68 f   LIBCMT:crtheap.obj
 0001:0001cf7b       _wait_a_bit                1001df7b f i LIBCMT:crtheap.obj
 0001:0001cf9f       ?_inconsistency@@YAXXZ     1001df9f f   LIBCMT:hooks.obj
 0001:0001cfd7       ?terminate@@YAXXZ          1001dfd7 f   LIBCMT:hooks.obj
 0001:0001d00b       ?unexpected@@YAXXZ         1001e00b f   LIBCMT:hooks.obj
 0001:0001d01e       __initp_eh_hooks           1001e01e f   LIBCMT:hooks.obj
 0001:0001d02f       ___getlocaleinfo           1001e02f f   LIBCMT:inithelp.obj
 0001:0001d208       __initp_misc_purevirt      1001e208 f   LIBCMT:inithelp.obj
 0001:0001d215       ___fpecode                 1001e215 f   LIBCMT:winsig.obj
 0001:0001d21e       ___get_sigabrt             1001e21e f   LIBCMT:winsig.obj
 0001:0001d22b       ___pxcptinfoptrs           1001e22b f   LIBCMT:winsig.obj
 0001:0001d234       __initp_misc_winsig        1001e234 f   LIBCMT:winsig.obj
 0001:0001d2f5       _raise                     1001e2f5 f   LIBCMT:winsig.obj
 0001:0001d4ea       _signal                    1001e4ea f   LIBCMT:winsig.obj
 0001:0001d741       __initp_misc_rand_s        1001e741 f   LIBCMT:rand_s.obj
 0001:0001d74e       _rand_s                    1001e74e f   LIBCMT:rand_s.obj
 0001:0001d854       ___initmbctable            1001e854 f   LIBCMT:mbctype.obj
 0001:0001db0b       ___updatetmbcinfo          1001eb0b f   LIBCMT:mbctype.obj
 0001:0001dbb1       __getmbcp                  1001ebb1 f   LIBCMT:mbctype.obj
 0001:0001dbe2       __setmbcp                  1001ebe2 f   LIBCMT:mbctype.obj
 0001:0001dd8a       __setmbcp_nolock           1001ed8a f   LIBCMT:mbctype.obj
 0001:0001df75       __calloc_impl              1001ef75 f   LIBCMT:calloc_impl.obj
 0001:0001dfef       __fcloseall                1001efef f   LIBCMT:closeall.obj
 0001:0001e08c       __fflush_nolock            1001f08c f   LIBCMT:fflush.obj
 0001:0001e0d2       __flush                    1001f0d2 f   LIBCMT:fflush.obj
 0001:0001e136       __flushall                 1001f136 f   LIBCMT:fflush.obj
 0001:0001e13f       _fflush                    1001f13f f   LIBCMT:fflush.obj
 0001:0001e27c       __fileno                   1001f27c f   LIBCMT:fileno.obj
 0001:0001e2a0       __close                    1001f2a0 f   LIBCMT:close.obj
 0001:0001e37b       __close_nolock             1001f37b f   LIBCMT:close.obj
 0001:0001e415       __freebuf                  1001f415 f   LIBCMT:_freebuf.obj
 0001:0001e445       __getstream                1001f445 f   LIBCMT:stream.obj
 0001:0001e564       __openfile                 1001f564 f   LIBCMT:_open.obj
 0001:0001e7e0       __local_unwind4            1001f7e0 f   LIBCMT:exsup4.obj
 0001:0001e8b6       __seh_longjmp_unwind4@4    1001f8b6 f   LIBCMT:exsup4.obj
 0001:0001e8d2       @_EH4_CallFilterFunc@8     1001f8d2 f   LIBCMT:exsup4.obj
 0001:0001e8e9       @_EH4_TransferToHandler@8  1001f8e9 f   LIBCMT:exsup4.obj
 0001:0001e902       @_EH4_GlobalUnwind2@8      1001f902 f   LIBCMT:exsup4.obj
 0001:0001e91b       @_EH4_LocalUnwind@16       1001f91b f   LIBCMT:exsup4.obj
 0001:0001e932       __vfprintf_l               1001f932 f   LIBCMT:vfprintf.obj
 0001:0001e950       __vfprintf_p               1001f950 f   LIBCMT:vfprintf.obj
 0001:0001e96d       __vfprintf_p_l             1001f96d f   LIBCMT:vfprintf.obj
 0001:0001e98b       __vfprintf_s_l             1001f98b f   LIBCMT:vfprintf.obj
 0001:0001e9a9       _vfprintf                  1001f9a9 f   LIBCMT:vfprintf.obj
 0001:0001e9c6       _vfprintf_helper           1001f9c6 f   LIBCMT:vfprintf.obj
 0001:0001ead7       _vfprintf_s                1001fad7 f   LIBCMT:vfprintf.obj
 0001:0001eaf4       __ioinit                   1001faf4 f   LIBCMT:ioinit.obj
 0001:0001eda8       __ioterm                   1001fda8 f   LIBCMT:ioinit.obj
 0001:0001edfa       __filbuf                   1001fdfa f   LIBCMT:_filbuf.obj
 0001:0001ef1b       _memcpy_s                  1001ff1b f   LIBCMT:memcpy_s.obj
 0001:0001ef9a       __read                     1001ff9a f   LIBCMT:read.obj
 0001:0001f0ae       __read_nolock              100200ae f   LIBCMT:read.obj
 0001:0001f83f       __flsbuf                   1002083f f   LIBCMT:_flsbuf.obj
 0001:0001f98e       __write                    1002098e f   LIBCMT:write.obj
 0001:0001fa7d       __write_nolock             10020a7d f   LIBCMT:write.obj
 0001:000202e2       __wremove                  100212e2 f   LIBCMT:wunlink.obj
 0001:00020310       __wunlink                  10021310 f   LIBCMT:wunlink.obj
 0001:00020319       __lseek                    10021319 f   LIBCMT:lseek.obj
 0001:00020408       __lseek_nolock             10021408 f   LIBCMT:lseek.obj
 0001:000204af       __vscprintf                100214af f   LIBCMT:vsprintf.obj
 0001:000204c9       __vscprintf_helper         100214c9 f   LIBCMT:vsprintf.obj
 0001:00020525       __vscprintf_l              10021525 f   LIBCMT:vsprintf.obj
 0001:00020540       __vscprintf_p              10021540 f   LIBCMT:vsprintf.obj
 0001:0002055a       __vscprintf_p_l            1002155a f   LIBCMT:vsprintf.obj
 0001:00020575       __vsprintf_l               10021575 f   LIBCMT:vsprintf.obj
 0001:000205f9       _vsprintf                  100215f9 f   LIBCMT:vsprintf.obj
 0001:00020611       __vsnprintf_c              10021611 f   LIBCMT:vsnprnc.obj
 0001:00020638       __vsnprintf_c_l            10021638 f   LIBCMT:vsnprnc.obj
 0001:00020660       __vsnprintf_helper         10021660 f   LIBCMT:vsnprnc.obj
 0001:0002072a       __vsnprintf_s              1002172a f   LIBCMT:vsnprnc.obj
 0001:00020748       __vsnprintf_s_l            10021748 f   LIBCMT:vsnprnc.obj
 0001:00020848       __vsprintf_p               10021848 f   LIBCMT:vsnprnc.obj
 0001:0002086f       __vsprintf_p_l             1002186f f   LIBCMT:vsnprnc.obj
 0001:00020897       __vsprintf_s_l             10021897 f   LIBCMT:vsnprnc.obj
 0001:0002090c       _vsprintf_s                1002190c f   LIBCMT:vsnprnc.obj
 0001:00020927       ___libm_error_support      10021927 f   LIBCMT:libm_error.obj
 0001:00020c0f       ___libm_setusermatherr     10021c0f f   LIBCMT:libm_error.obj
 0001:00020c3b       __sse2_mathfcns_init       10021c3b f   LIBCMT:mathfcns.obj
 0001:00020c4a       __set_SSE2_enable          10021c4a f   LIBCMT:mathfcns.obj
 0001:00020c69       __floor_default            10021c69 f   LIBCMT:floor.obj
 0001:00020d40       __chgsign                  10021d40 f   LIBCMT:ieeemisc.obj
 0001:00020d6d       __chgsignf                 10021d6d f   LIBCMT:ieeemisc.obj
 0001:00020d8e       __copysign                 10021d8e f   LIBCMT:ieeemisc.obj
 0001:00020db6       __copysignf                10021db6 f   LIBCMT:ieeemisc.obj
 0001:00020dd2       __finite                   10021dd2 f   LIBCMT:ieeemisc.obj
 0001:00020dea       __fpclass                  10021dea f   LIBCMT:ieeemisc.obj
 0001:00020e86       __isnan                    10021e86 f   LIBCMT:ieeemisc.obj
 0001:00020eb9       __logb                     10021eb9 f   LIBCMT:ieeemisc.obj
 0001:00020f9a       __nextafter                10021f9a f   LIBCMT:ieeemisc.obj
 0001:0002123a       __scalb                    1002223a f   LIBCMT:ieeemisc.obj
 0001:00021252       __add_exp                  10022252 f   LIBCMT:util.obj
 0001:00021281       __decomp                   10022281 f   LIBCMT:util.obj
 0001:00021353       __get_exp                  10022353 f   LIBCMT:util.obj
 0001:0002136c       __set_bexp                 1002236c f   LIBCMT:util.obj
 0001:00021395       __set_exp                  10022395 f   LIBCMT:util.obj
 0001:000213c4       __sptype                   100223c4 f   LIBCMT:util.obj
 0001:0002141f       __errcode                  1002241f f   LIBCMT:fpexcept.obj
 0001:00021451       __except1                  10022451 f   LIBCMT:fpexcept.obj
 0001:00021519       __except2                  10022519 f   LIBCMT:fpexcept.obj
 0001:00021619       __handle_exc               10022619 f   LIBCMT:fpexcept.obj
 0001:000217f7       __handle_qnan1             100227f7 f   LIBCMT:fpexcept.obj
 0001:00021847       __handle_qnan2             10022847 f   LIBCMT:fpexcept.obj
 0001:000218a7       __raise_exc                100228a7 f   LIBCMT:fpexcept.obj
 0001:000218c8       __raise_exc_ex             100228c8 f   LIBCMT:fpexcept.obj
 0001:00021bad       __raise_excf               10022bad f   LIBCMT:fpexcept.obj
 0001:00021bce       __set_errno_from_matherr   10022bce f   LIBCMT:fpexcept.obj
 0001:00021bfb       __umatherr                 10022bfb f   LIBCMT:fpexcept.obj
 0001:00021c9b       ___clrfp_sse2              10022c9b f   LIBCMT:fpctrl.obj
 0001:00021cbc       ___ctrlfp_sse2             10022cbc f   LIBCMT:fpctrl.obj
 0001:00021cf5       ___fclrf_sse2              10022cf5 f   LIBCMT:fpctrl.obj
 0001:00021d12       ___get_fpsr_sse2           10022d12 f   LIBCMT:fpctrl.obj
 0001:00021d2e       ___set_fpsr_sse2           10022d2e f   LIBCMT:fpctrl.obj
 0001:00021da4       ___set_statfp_sse2         10022da4 f   LIBCMT:fpctrl.obj
 0001:00021dbd       ___statfp_sse2             10022dbd f   LIBCMT:fpctrl.obj
 0001:00021dd2       __clrfp                    10022dd2 f   LIBCMT:fpctrl.obj
 0001:00021de3       __ctrlfp                   10022de3 f   LIBCMT:fpctrl.obj
 0001:00021e0e       __set_statfp               10022e0e f   LIBCMT:fpctrl.obj
 0001:00021e66       __statfp                   10022e66 f   LIBCMT:fpctrl.obj
 0001:00021e76       _wcscat_s                  10022e76 f   LIBCMT:wcscat_s.obj
 0001:00021ee2       _wcscpy_s                  10022ee2 f   LIBCMT:wcscpy_s.obj
 0001:00021f3e       _wcslen                    10022f3e f   LIBCMT:wcslen.obj
 0001:00021f57       _wcsncat_s                 10022f57 f   LIBCMT:wcsncat_s.obj
 0001:00022025       __set_abort_behavior       10023025 f   LIBCMT:abort.obj
 0001:00022044       _abort                     10023044 f   LIBCMT:abort.obj
 0001:00022087       ___set_app_type            10023087 f   LIBCMT:errmode.obj
 0001:00022094       __set_error_mode           10023094 f   LIBCMT:errmode.obj
 0001:000221f0       __i64tow_s                 100231f0 f   LIBCMT:xtows.obj
 0001:00022221       __itow_s                   10023221 f   LIBCMT:xtows.obj
 0001:0002224a       __ltow_s                   1002324a f   LIBCMT:xtows.obj
 0001:00022274       __ui64tow_s                10023274 f   LIBCMT:xtows.obj
 0001:0002228f       __ultow_s                  1002328f f   LIBCMT:xtows.obj
 0001:0002239a       _setvbuf                   1002339a f   LIBCMT:setvbuf.obj
 0001:000224a0       __fwprintf_l               100234a0 f   LIBCMT:fwprintf.obj
 0001:000224ba       __fwprintf_p               100234ba f   LIBCMT:fwprintf.obj
 0001:000224d3       __fwprintf_p_l             100234d3 f   LIBCMT:fwprintf.obj
 0001:000224ed       __fwprintf_s_l             100234ed f   LIBCMT:fwprintf.obj
 0001:00022507       _fwprintf                  10023507 f   LIBCMT:fwprintf.obj
 0001:0002259b       _fwprintf_s                1002359b f   LIBCMT:fwprintf.obj
 0001:000225b4       __vsnwprintf_s             100235b4 f   LIBCMT:vswprnc.obj
 0001:000225d2       __vsnwprintf_s_l           100235d2 f   LIBCMT:vswprnc.obj
 0001:000226d6       __vswprintf_c              100236d6 f   LIBCMT:vswprnc.obj
 0001:000226fd       __vswprintf_c_l            100236fd f   LIBCMT:vswprnc.obj
 0001:00022725       __vswprintf_helper         10023725 f   LIBCMT:vswprnc.obj
 0001:00022820       __vswprintf_p              10023820 f   LIBCMT:vswprnc.obj
 0001:00022847       __vswprintf_p_l            10023847 f   LIBCMT:vswprnc.obj
 0001:0002286f       __vswprintf_s_l            1002386f f   LIBCMT:vswprnc.obj
 0001:000228e6       _vswprintf_s               100238e6 f   LIBCMT:vswprnc.obj
 0001:00022901       ___crtMessageBoxW          10023901 f   LIBCMT:crtmboxw.obj
 0001:00022ae7       ___crtMessageBoxWaitThreadW@4 10023ae7 f   LIBCMT:crtmboxw.obj
 0001:00022b05       __XcptFilter               10023b05 f   LIBCMT:winxfltr.obj
 0001:00022c60       ___CppXcptFilter           10023c60 f   LIBCMT:winxfltr.obj
 0001:00022cb2       ___get_flsindex            10023cb2 f   LIBCMT:tidtable.obj
 0001:00022cb8       ___threadhandle            10023cb8 f   LIBCMT:tidtable.obj
 0001:00022cbe       ___threadid                10023cbe f   LIBCMT:tidtable.obj
 0001:00022cc4       __freefls@4                10023cc4 f   LIBCMT:tidtable.obj
 0001:00022df9       __freeptd                  10023df9 f   LIBCMT:tidtable.obj
 0001:00022e2f       __getptd                   10023e2f f   LIBCMT:tidtable.obj
 0001:00022e47       __getptd_noexit            10023e47 f   LIBCMT:tidtable.obj
 0001:00022eb6       __initptd                  10023eb6 f   LIBCMT:tidtable.obj
 0001:00022f69       __mtinit                   10023f69 f   LIBCMT:tidtable.obj
 0001:00022fdf       __mtterm                   10023fdf f   LIBCMT:tidtable.obj
 0001:00022ffc       __set_pgmptr               10023ffc f i LIBCMT:stdargv.obj
 0001:00023009       __setargv                  10024009 f   LIBCMT:stdargv.obj
 0001:00023238       __setenvp                  10024238 f   LIBCMT:stdenvp.obj
 0001:00023319       ___security_init_cookie    10024319 f   LIBCMT:gs_support.obj
 0001:000233b5       ___crtGetEnvironmentStringsA 100243b5 f   LIBCMT:a_env.obj
 0001:00023442       _wcsncpy_s                 10024442 f   LIBCMT:wcsncpy_s.obj
 0001:00023500       __output_s_l               10024500 f   LIBCMT:outputs.obj
 0001:00024188       __output_p_l               10025188 f   LIBCMT:outputp.obj
 0001:000254c0       __validate_param_reuseA    100264c0 f   LIBCMT:outputp.obj
 0001:000255f6       _get_crtdouble_arg         100265f6 f i LIBCMT:outputp.obj
 0001:000256f5       __isatty                   100266f5 f   LIBCMT:isatty.obj
 0001:00025749       ___addlocaleref            10026749 f   LIBCMT:localref.obj
 0001:000257de       ___freetlocinfo            100267de f   LIBCMT:localref.obj
 0001:00025938       ___removelocaleref         10026938 f   LIBCMT:localref.obj
 0001:000259d8       ___updatetlocinfo          100269d8 f   LIBCMT:localref.obj
 0001:00025a58       __updatetlocinfoEx_nolock  10026a58 f   LIBCMT:localref.obj
 0001:00025aa3       ___iswcsym                 10026aa3 f i LIBCMT:_wctype.obj
 0001:00025ac7       ___iswcsymf                10026ac7 f i LIBCMT:_wctype.obj
 0001:00025aeb       __isleadbyte_l             10026aeb f i LIBCMT:_wctype.obj
 0001:00025b25       __iswalnum_l               10026b25 f i LIBCMT:_wctype.obj
 0001:00025b39       __iswalpha_l               10026b39 f i LIBCMT:_wctype.obj
 0001:00025b4d       __iswblank_l               10026b4d f i LIBCMT:_wctype.obj
 0001:00025b68       __iswcntrl_l               10026b68 f i LIBCMT:_wctype.obj
 0001:00025b79       __iswcsym_l                10026b79 f i LIBCMT:_wctype.obj
 0001:00025b9d       __iswcsymf_l               10026b9d f i LIBCMT:_wctype.obj
 0001:00025bc1       __iswdigit_l               10026bc1 f i LIBCMT:_wctype.obj
 0001:00025bd2       __iswgraph_l               10026bd2 f i LIBCMT:_wctype.obj
 0001:00025be6       __iswlower_l               10026be6 f i LIBCMT:_wctype.obj
 0001:00025bf7       __iswprint_l               10026bf7 f i LIBCMT:_wctype.obj
 0001:00025c0b       __iswpunct_l               10026c0b f i LIBCMT:_wctype.obj
 0001:00025c1c       __iswspace_l               10026c1c f i LIBCMT:_wctype.obj
 0001:00025c2d       __iswupper_l               10026c2d f i LIBCMT:_wctype.obj
 0001:00025c3e       __iswxdigit_l              10026c3e f i LIBCMT:_wctype.obj
 0001:00025c52       _isleadbyte                10026c52 f i LIBCMT:_wctype.obj
 0001:00025c63       _iswalnum                  10026c63 f i LIBCMT:_wctype.obj
 0001:00025c77       _iswalpha                  10026c77 f i LIBCMT:_wctype.obj
 0001:00025c8b       _iswascii                  10026c8b f i LIBCMT:_wctype.obj
 0001:00025c9d       _iswblank                  10026c9d f i LIBCMT:_wctype.obj
 0001:00025cb8       _iswcntrl                  10026cb8 f i LIBCMT:_wctype.obj
 0001:00025cc9       _iswdigit                  10026cc9 f i LIBCMT:_wctype.obj
 0001:00025cda       _iswgraph                  10026cda f i LIBCMT:_wctype.obj
 0001:00025cee       _iswlower                  10026cee f i LIBCMT:_wctype.obj
 0001:00025cff       _iswprint                  10026cff f i LIBCMT:_wctype.obj
 0001:00025d13       _iswpunct                  10026d13 f i LIBCMT:_wctype.obj
 0001:00025d24       _iswspace                  10026d24 f i LIBCMT:_wctype.obj
 0001:00025d35       _iswupper                  10026d35 f i LIBCMT:_wctype.obj
 0001:00025d46       _iswxdigit                 10026d46 f i LIBCMT:_wctype.obj
 0001:00025d5a       __wctomb_l                 10026d5a f   LIBCMT:wctomb.obj
 0001:00025da9       __wctomb_s_l               10026da9 f   LIBCMT:wctomb.obj
 0001:00025ecd       _wctomb                    10026ecd f   LIBCMT:wctomb.obj
 0001:00025f00       _wctomb_s                  10026f00 f   LIBCMT:wctomb.obj
 0001:00025f20       __aulldvrm                 10026f20 f   LIBCMT:ulldvrm.obj
 0001:00025fb5       ___isascii                 10026fb5 f i LIBCMT:_ctype.obj
 0001:00025fc5       ___iscsym                  10026fc5 f i LIBCMT:_ctype.obj
 0001:00025fe5       ___iscsymf                 10026fe5 f i LIBCMT:_ctype.obj
 0001:00026002       ___toascii                 10027002 f i LIBCMT:_ctype.obj
 0001:0002600d       __isalnum_l                1002700d f i LIBCMT:_ctype.obj
 0001:00026065       __isalpha_l                10027065 f i LIBCMT:_ctype.obj
 0001:000260bd       __isblank_l                100270bd f i LIBCMT:_ctype.obj
 0001:00026117       __iscntrl_l                10027117 f i LIBCMT:_ctype.obj
 0001:00026169       __iscsym_l                 10027169 f i LIBCMT:_ctype.obj
 0001:0002618a       __iscsymf_l                1002718a f i LIBCMT:_ctype.obj
 0001:000261ab       __isdigit_l                100271ab f i LIBCMT:_ctype.obj
 0001:000261fd       __isgraph_l                100271fd f i LIBCMT:_ctype.obj
 0001:00026255       __islower_l                10027255 f i LIBCMT:_ctype.obj
 0001:000262a7       __isprint_l                100272a7 f i LIBCMT:_ctype.obj
 0001:000262ff       __ispunct_l                100272ff f i LIBCMT:_ctype.obj
 0001:00026351       __isspace_l                10027351 f i LIBCMT:_ctype.obj
 0001:000263a3       __isupper_l                100273a3 f i LIBCMT:_ctype.obj
 0001:000263f5       __isxdigit_l               100273f5 f i LIBCMT:_ctype.obj
 0001:0002644d       _isalnum                   1002744d f i LIBCMT:_ctype.obj
 0001:0002647a       _isalpha                   1002747a f i LIBCMT:_ctype.obj
 0001:000264a7       _isblank                   100274a7 f i LIBCMT:_ctype.obj
 0001:000264dc       _iscntrl                   100274dc f i LIBCMT:_ctype.obj
 0001:00026507       _isdigit                   10027507 f i LIBCMT:_ctype.obj
 0001:00026532       _isgraph                   10027532 f i LIBCMT:_ctype.obj
 0001:0002655f       _islower                   1002755f f i LIBCMT:_ctype.obj
 0001:0002658a       _isprint                   1002758a f i LIBCMT:_ctype.obj
 0001:000265b7       _ispunct                   100275b7 f i LIBCMT:_ctype.obj
 0001:000265e2       _isspace                   100275e2 f i LIBCMT:_ctype.obj
 0001:0002660d       _isupper                   1002760d f i LIBCMT:_ctype.obj
 0001:00026638       _isxdigit                  10027638 f i LIBCMT:_ctype.obj
 0001:00026665       __tolower                  10027665 f   LIBCMT:tolower.obj
 0001:00026670       __tolower_l                10027670 f   LIBCMT:tolower.obj
 0001:000267b3       _tolower                   100277b3 f   LIBCMT:tolower.obj
 0001:000267df       _strcpy_s                  100277df f   LIBCMT:strcpy_s.obj
 0001:00026840       _strrchr                   10027840 f   LIBCMT:strrchr.obj
 0001:00026977       __fptostr                  10027977 f   LIBCMT:_fptostr.obj
 0001:00026a27       ___crt_atoflt_l            10027a27 f   LIBCMT:atodbl.obj
 0001:00026acb       __atodbl                   10027acb f   LIBCMT:atodbl.obj
 0001:00026ae0       __atodbl_l                 10027ae0 f   LIBCMT:atodbl.obj
 0001:00026b6e       __atoflt                   10027b6e f   LIBCMT:atodbl.obj
 0001:00026b83       __atoflt_l                 10027b83 f   LIBCMT:atodbl.obj
 0001:00026b9b       __atoldbl                  10027b9b f   LIBCMT:atodbl.obj
 0001:00026bb0       __atoldbl_l                10027bb0 f   LIBCMT:atodbl.obj
 0001:00026c3f       ___dtold                   10027c3f f   LIBCMT:cfout.obj
 0001:00026d07       __fltout2                  10027d07 f   LIBCMT:cfout.obj
 0001:00026da0       __alldvrm                  10027da0 f   LIBCMT:lldvrm.obj
 0001:00026e80       __aullshr                  10027e80 f   LIBCMT:ullshr.obj
 0001:00026e9f       __get_output_format        10027e9f f   LIBCMT:outputformat.obj
 0001:00026ea5       __set_output_format        10027ea5 f   LIBCMT:outputformat.obj
 0001:00026ed7       __controlfp_s              10027ed7 f   LIBCMT:contrlfp.obj
 0001:00026f34       __fptrap                   10027f34 f   LIBCMT:crt0fp.obj
 0001:00026f3d       __msize                    10027f3d f   LIBCMT:msize.obj
 0001:00026f6e       __recalloc                 10027f6e f   LIBCMT:recalloc.obj
 0001:00026fd7       _strncpy_s                 10027fd7 f   LIBCMT:strncpy_s.obj
 0001:0002715f       __MallocaIsSizeInRange     1002815f f i LIBCMT:a_loc.obj
 0001:00027170       __MarkAllocaS              10028170 f i LIBCMT:a_loc.obj
 0001:00027184       ___crtGetLocaleInfoA       10028184 f   LIBCMT:a_loc.obj
 0001:000271be       __freea                    100281be f i LIBCMT:a_loc.obj
 0001:000271dc       _GetTableIndexFromLcid     100281dc f   LIBCMT:winapinls.obj
 0001:00027211       _GetTableIndexFromLocaleName 10028211 f   LIBCMT:winapinls.obj
 0001:0002725f       ___crtCompareStringEx      1002825f f   LIBCMT:winapinls.obj
 0001:000272ab       ___crtDownlevelLCIDToLocaleName 100282ab f   LIBCMT:winapinls.obj
 0001:00027327       ___crtDownlevelLocaleNameToLCID 10028327 f   LIBCMT:winapinls.obj
 0001:00027365       ___crtEnumSystemLocalesEx  10028365 f   LIBCMT:winapinls.obj
 0001:000273a2       ___crtGetDateFormatEx      100283a2 f   LIBCMT:winapinls.obj
 0001:000273eb       ___crtGetLocaleInfoEx      100283eb f   LIBCMT:winapinls.obj
 0001:0002741a       ___crtGetTimeFormatEx      1002841a f   LIBCMT:winapinls.obj
 0001:0002744f       ___crtGetUserDefaultLocaleName 1002844f f   LIBCMT:winapinls.obj
 0001:0002747a       ___crtIsValidLocaleName    1002847a f   LIBCMT:winapinls.obj
 0001:000274a5       ___crtLCMapStringEx        100284a5 f   LIBCMT:winapinls.obj
 0001:000274f1       ___wcsnicmp_ascii          100284f1 f   LIBCMT:winapinls.obj
 0001:00027783       ___crtLCMapStringA         10028783 f   LIBCMT:a_map.obj
 0001:000278c1       ___crtGetStringTypeA       100288c1 f   LIBCMT:a_str.obj
 0001:00027901       __commit                   10028901 f   LIBCMT:commit.obj
 0001:000279ea       ___lock_fhandle            100289ea f   LIBCMT:osfinfo.obj
 0001:00027a78       __alloc_osfhnd             10028a78 f   LIBCMT:osfinfo.obj
 0001:00027c21       __free_osfhnd              10028c21 f   LIBCMT:osfinfo.obj
 0001:00027ca7       __get_osfhandle            10028ca7 f   LIBCMT:osfinfo.obj
 0001:00027d0e       __open_osfhandle           10028d0e f   LIBCMT:osfinfo.obj
 0001:00027e24       __set_osfhnd               10028e24 f   LIBCMT:osfinfo.obj
 0001:00027ea6       __unlock_fhandle           10028ea6 f   LIBCMT:osfinfo.obj
 0001:00027ecc       __open                     10028ecc f   LIBCMT:open.obj
 0001:00027f7c       __sopen                    10028f7c f   LIBCMT:open.obj
 0001:00027faf       __sopen_helper             10028faf f   LIBCMT:open.obj
 0001:00028078       __sopen_nolock             10029078 f   LIBCMT:open.obj
 0001:000280c6       __sopen_s                  100290c6 f   LIBCMT:open.obj
 0001:000280e4       __mbsnbcmp                 100290e4 f   LIBCMT:mbsnbcmp.obj
 0001:000280fc       __mbsnbcmp_l               100290fc f   LIBCMT:mbsnbcmp.obj
 0001:00028213       __mbsnbicmp                10029213 f   LIBCMT:mbsnbicm.obj
 0001:0002822b       __mbsnbicmp_l              1002922b f   LIBCMT:mbsnbicm.obj
 0001:000283f0       __global_unwind2           100293f0 f   LIBCMT:exsup.obj
 0001:00028455       __local_unwind2            10029455 f   LIBCMT:exsup.obj
 0001:000284d9       __abnormal_termination     100294d9 f   LIBCMT:exsup.obj
 0001:000284fc       __NLG_Notify1              100294fc f   LIBCMT:exsup.obj
 0001:00028505       __NLG_Notify               10029505 f   LIBCMT:exsup.obj
 0001:0002851c       __NLG_Dispatch             1002951c     LIBCMT:exsup.obj
 0001:0002851c       __NLG_Dispatch2            1002951c     LIBCMT:exsup.obj
 0001:00028524       __NLG_Call                 10029524 f   LIBCMT:exsup.obj
 0001:00028526       __NLG_Return2              10029526     LIBCMT:exsup.obj
 0001:00028527       __getbuf                   10029527 f   LIBCMT:_getbuf.obj
 0001:0002856d       __lseeki64                 1002956d f   LIBCMT:lseeki64.obj
 0001:00028669       __lseeki64_nolock          10029669 f   LIBCMT:lseeki64.obj
 0001:000286dc       __mbtowc_l                 100296dc f   LIBCMT:mbtowc.obj
 0001:000287d1       _mbtowc                    100297d1 f   LIBCMT:mbtowc.obj
 0001:000287e9       __putwch                   100297e9 f   LIBCMT:putwch.obj
 0001:00028835       __putwch_nolock            10029835 f   LIBCMT:putwch.obj
 0001:00028880       __alloca_probe             10029880 f   LIBCMT:chkstk.obj
 0001:00028880       __chkstk                   10029880 f   LIBCMT:chkstk.obj
 0001:000288ab       __matherr                  100298ab f   LIBCMT:matherr.obj
 0001:000288ae       __frnd                     100298ae f   LIBCMT:frnd.obj
 0001:000288c2       __vfwprintf_l              100298c2 f   LIBCMT:vfwprint.obj
 0001:000288e0       __vfwprintf_p              100298e0 f   LIBCMT:vfwprint.obj
 0001:000288fd       __vfwprintf_p_l            100298fd f   LIBCMT:vfwprint.obj
 0001:0002891b       __vfwprintf_s_l            1002991b f   LIBCMT:vfwprint.obj
 0001:00028939       _vfwprintf                 10029939 f   LIBCMT:vfwprint.obj
 0001:00028956       _vfwprintf_helper          10029956 f   LIBCMT:vfwprint.obj
 0001:000289e9       _vfwprintf_s               100299e9 f   LIBCMT:vfwprint.obj
 0001:00028a06       __woutput_l                10029a06 f   LIBCMT:woutput.obj
 0001:000296e5       __woutput_s_l              1002a6e5 f   LIBCMT:woutputs.obj
 0001:0002a3fc       __validate_param_reuseW    1002b3fc f   LIBCMT:woutputp.obj
 0001:0002a574       __woutput_p_l              1002b574 f   LIBCMT:woutputp.obj
 0001:0002b99d       __ismbbalnum               1002c99d f   LIBCMT:ismbbyte.obj
 0001:0002b9b6       __ismbbalnum_l             1002c9b6 f   LIBCMT:ismbbyte.obj
 0001:0002b9d0       __ismbbalpha               1002c9d0 f   LIBCMT:ismbbyte.obj
 0001:0002b9e9       __ismbbalpha_l             1002c9e9 f   LIBCMT:ismbbyte.obj
 0001:0002ba03       __ismbbblank               1002ca03 f   LIBCMT:ismbbyte.obj
 0001:0002ba24       __ismbbblank_l             1002ca24 f   LIBCMT:ismbbyte.obj
 0001:0002ba46       __ismbbgraph               1002ca46 f   LIBCMT:ismbbyte.obj
 0001:0002ba5f       __ismbbgraph_l             1002ca5f f   LIBCMT:ismbbyte.obj
 0001:0002ba79       __ismbbkalnum              1002ca79 f   LIBCMT:ismbbyte.obj
 0001:0002ba8f       __ismbbkalnum_l            1002ca8f f   LIBCMT:ismbbyte.obj
 0001:0002baa6       __ismbbkana                1002caa6 f   LIBCMT:ismbbyte.obj
 0001:0002bab7       __ismbbkana_l              1002cab7 f   LIBCMT:ismbbyte.obj
 0001:0002bb03       __ismbbkprint              1002cb03 f   LIBCMT:ismbbyte.obj
 0001:0002bb19       __ismbbkprint_l            1002cb19 f   LIBCMT:ismbbyte.obj
 0001:0002bb30       __ismbbkpunct              1002cb30 f   LIBCMT:ismbbyte.obj
 0001:0002bb46       __ismbbkpunct_l            1002cb46 f   LIBCMT:ismbbyte.obj
 0001:0002bb5d       __ismbblead                1002cb5d f   LIBCMT:ismbbyte.obj
 0001:0002bb73       __ismbblead_l              1002cb73 f   LIBCMT:ismbbyte.obj
 0001:0002bb8a       __ismbbprint               1002cb8a f   LIBCMT:ismbbyte.obj
 0001:0002bba3       __ismbbprint_l             1002cba3 f   LIBCMT:ismbbyte.obj
 0001:0002bbbd       __ismbbpunct               1002cbbd f   LIBCMT:ismbbyte.obj
 0001:0002bbd3       __ismbbpunct_l             1002cbd3 f   LIBCMT:ismbbyte.obj
 0001:0002bbea       __ismbbtrail               1002cbea f   LIBCMT:ismbbyte.obj
 0001:0002bc00       __ismbbtrail_l             1002cc00 f   LIBCMT:ismbbyte.obj
 0001:0002be3d       __strtol_l                 1002ce3d f   LIBCMT:strtol.obj
 0001:0002be58       __strtoul_l                1002ce58 f   LIBCMT:strtol.obj
 0001:0002be73       _strtol                    1002ce73 f   LIBCMT:strtol.obj
 0001:0002be9d       _strtoul                   1002ce9d f   LIBCMT:strtol.obj
 0001:0002bec7       ___free_lconv_mon          1002cec7 f   LIBCMT:initmon.obj
 0001:0002bfc3       ___init_monetary           1002cfc3 f   LIBCMT:initmon.obj
 0001:0002c39c       ___free_lconv_num          1002d39c f   LIBCMT:initnum.obj
 0001:0002c403       ___init_numeric            1002d403 f   LIBCMT:initnum.obj
 0001:0002c641       ___free_lc_time            1002d641 f   LIBCMT:inittime.obj
 0001:0002c9c1       ___init_time               1002d9c1 f   LIBCMT:inittime.obj
 0001:0002d230       _localeconv                1002e230 f   LIBCMT:lconv.obj
 0001:0002d256       __iswctype_l               1002e256 f   LIBCMT:iswctype.obj
 0001:0002d268       _is_wctype                 1002e268 f   LIBCMT:iswctype.obj
 0001:0002d271       _iswctype                  1002e271 f   LIBCMT:iswctype.obj
 0001:0002d2c7       ____lc_codepage_func       1002e2c7 f   LIBCMT:initctyp.obj
 0001:0002d2ed       ____lc_collate_cp_func     1002e2ed f   LIBCMT:initctyp.obj
 0001:0002d313       ____lc_locale_name_func    1002e313 f   LIBCMT:initctyp.obj
 0001:0002d33b       ____mb_cur_max_func        1002e33b f   LIBCMT:initctyp.obj
 0001:0002d361       ____mb_cur_max_l_func      1002e361 f   LIBCMT:initctyp.obj
 0001:0002d378       ___init_ctype              1002e378 f   LIBCMT:initctyp.obj
 0001:0002d710       ___pctype_func             1002e710 f   LIBCMT:ctype.obj
 0001:0002d739       ___pwctype_func            1002e739 f   LIBCMT:ctype.obj
 0001:0002d73f       __isctype                  1002e73f f   LIBCMT:isctype.obj
 0001:0002d76e       __isctype_l                1002e76e f   LIBCMT:isctype.obj
 0001:0002d81f       ___init_dummy              1002e81f f   LIBCMT:wsetloca.obj
 0001:0002d822       __locterm                  1002e822 f   LIBCMT:wsetloca.obj
 0001:0002d874       ____setlc_active_func      1002e874 f   LIBCMT:wsetloca.obj
 0001:0002d87a       ____unguarded_readlc_active_add_func 1002e87a f   LIBCMT:wsetloca.obj
 0001:0002d880       ___copy_locale_name        1002e880 f   LIBCMT:wsetloca.obj
 0001:0002d8e4       ___create_locale           1002e8e4 f   LIBCMT:wsetloca.obj
 0001:0002d8ed       ___free_locale             1002e8ed f   LIBCMT:wsetloca.obj
 0001:0002d8f2       ___get_current_locale      1002e8f2 f   LIBCMT:wsetloca.obj
 0001:0002d8f7       ___lc_lctowcs              1002e8f7 f   LIBCMT:wsetloca.obj
 0001:0002d965       ___lc_wcstolc              1002e965 f   LIBCMT:wsetloca.obj
 0001:0002da91       __configthreadlocale       1002ea91 f   LIBCMT:wsetloca.obj
 0001:0002db17       __create_locale            1002eb17 f   LIBCMT:wsetloca.obj
 0001:0002db79       __expandlocale             1002eb79 f   LIBCMT:wsetloca.obj
 0001:0002de70       __free_locale              1002ee70 f   LIBCMT:wsetloca.obj
 0001:0002df27       __get_current_locale       1002ef27 f   LIBCMT:wsetloca.obj
 0001:0002dfd6       __wcreate_locale           1002efd6 f   LIBCMT:wsetloca.obj
 0001:0002e0ad       __wcscats                  1002f0ad f   LIBCMT:wsetloca.obj
 0001:0002e0ec       __wsetlocale               1002f0ec f   LIBCMT:wsetloca.obj
 0001:0002ea2e       __CopyMan                  1002fa2e f i LIBCMT:intrncvt.obj
 0001:0002ea4b       __FillZeroMan              1002fa4b f i LIBCMT:intrncvt.obj
 0001:0002ea5a       __IncMan                   1002fa5a f i LIBCMT:intrncvt.obj
 0001:0002eabc       __IsZeroMan                1002fabc f i LIBCMT:intrncvt.obj
 0001:0002ead9       __RoundMan                 1002fad9 f i LIBCMT:intrncvt.obj
 0001:0002ebda       __ShrMan                   1002fbda f i LIBCMT:intrncvt.obj
 0001:0002ec68       __ZeroTail                 1002fc68 f i LIBCMT:intrncvt.obj
 0001:0002ecb0       ___addl                    1002fcb0 f i LIBCMT:intrncvt.obj
 0001:0002ecd4       __ld12cvt                  1002fcd4 f i LIBCMT:intrncvt.obj
 0001:0002f23f       __ld12tod                  1003023f f   LIBCMT:intrncvt.obj
 0001:0002f7b1       __ld12tof                  100307b1 f   LIBCMT:intrncvt.obj
 0001:0002fd23       __ld12told                 10030d23 f   LIBCMT:intrncvt.obj
 0001:0002fdf2       ___STRINGTOLD_L            10030df2 f   LIBCMT:strgtold.obj
 0001:0002fe4d       ___ld12mul                 10030e4d f i LIBCMT:strgtold.obj
 0001:00030119       ___multtenpow12            10031119 f i LIBCMT:strgtold.obj
 0001:0003046c       ___shl_12                  1003146c f i LIBCMT:strgtold.obj
 0001:0003049d       ___shr_12                  1003149d f i LIBCMT:strgtold.obj
 0001:000304cd       ___strgtold12_l            100314cd f   LIBCMT:strgtold.obj
 0001:00030c75       _$I10_OUTPUT               10031c75 f   LIBCMT:x10fout.obj
 0001:00031649       ___add_12                  10032649 f i LIBCMT:x10fout.obj
 0001:000317f5       ___control87_2             100327f5 f   LIBCMT:ieee87.obj
 0001:00031e69       __clearfp                  10032e69 f   LIBCMT:ieee87.obj
 0001:00031f49       __control87                10032f49 f i LIBCMT:ieee87.obj
 0001:0003224b       __controlfp                1003324b f   LIBCMT:ieee87.obj
 0001:00032556       __fpreset                  10033556 f   LIBCMT:ieee87.obj
 0001:00032623       __set_controlfp            10033623 f   LIBCMT:ieee87.obj
 0001:00032696       __statusfp                 10033696 f   LIBCMT:ieee87.obj
 0001:00032730       __statusfp2                10033730 f   LIBCMT:ieee87.obj
 0001:00032790       __alloca_probe_16          10033790 f   LIBCMT:alloca16.obj
 0001:000327a6       __alloca_probe_8           100337a6     LIBCMT:alloca16.obj
 0001:000327bc       _wcsnlen                   100337bc f   LIBCMT:wcslen_s.obj
 0001:00032863       __wopen                    10033863 f   LIBCMT:wopen.obj
 0001:00032913       __wsopen                   10033913 f   LIBCMT:wopen.obj
 0001:00032946       __wsopen_helper            10033946 f   LIBCMT:wopen.obj
 0001:00032a0f       __wsopen_nolock            10033a0f f   LIBCMT:wopen.obj
 0001:00033162       __wsopen_s                 10034162 f   LIBCMT:wopen.obj
 0001:00033180       _strncmp                   10034180 f   LIBCMT:strncmp.obj
 0001:000331f8       __strnicmp                 100341f8 f   LIBCMT:strnicmp.obj
 0001:00033263       __strnicmp_l               10034263 f   LIBCMT:strnicmp.obj
 0001:00033314       ___termconout              10034314 f   LIBCMT:initcon.obj
 0001:0003332b       ___initconout              1003432b f   LIBCMT:initcon.obj
 0001:0003334a       __fputwc_nolock            1003434a f   LIBCMT:fputwc.obj
 0001:000334d0       _fputwc                    100344d0 f   LIBCMT:fputwc.obj
 0001:00033547       _putwc                     10034547 f   LIBCMT:fputwc.obj
 0001:00033731       __wcstol_l                 10034731 f   LIBCMT:wcstol.obj
 0001:00033749       __wcstoul_l                10034749 f   LIBCMT:wcstol.obj
 0001:00033761       _wcstol                    10034761 f   LIBCMT:wcstol.obj
 0001:00033779       _wcstoul                   10034779 f   LIBCMT:wcstol.obj
 0001:00033791       ___init_collate            10034791 f   LIBCMT:initcoll.obj
 0001:000338b1       _memcmp                    100348b1 f   LIBCMT:memcmp.obj
 0001:000367c5       _wcscmp                    100377c5 f   LIBCMT:wcscmp.obj
 0001:00036803       _wcscspn                   10037803 f   LIBCMT:wcscspn.obj
 0001:0003684e       _wcsncmp                   1003784e f   LIBCMT:wcsncmp.obj
 0001:00036884       _wcspbrk                   10037884 f   LIBCMT:wcspbrk.obj
 0001:00036e88       ___get_qualified_locale    10037e88 f   LIBCMT:getqloc.obj
 0001:000376f8       ___get_qualified_locale_downlevel 100386f8 f   LIBCMT:getqloc_downlevel.obj
 0001:00037914       ___mtold12                 10038914 f   LIBCMT:mantold.obj
 0001:00037af4       __chsize                   10038af4 f   LIBCMT:chsize.obj
 0001:00037b0e       __chsize_nolock            10038b0e f   LIBCMT:chsize.obj
 0001:00037cc4       __chsize_s                 10038cc4 f   LIBCMT:chsize.obj
 0001:00037db2       __get_fmode                10038db2 f   LIBCMT:setmode.obj
 0001:00037ddc       __set_fmode                10038ddc f   LIBCMT:setmode.obj
 0001:00037e17       __setmode                  10038e17 f   LIBCMT:setmode.obj
 0001:00037f1c       __setmode_nolock           10038f1c f   LIBCMT:setmode.obj
 0001:00037ff0       ___ascii_strnicmp          10038ff0 f   LIBCMT:_strnicm.obj
 0001:00038051       __flswbuf                  10039051 f   LIBCMT:_flswbuf.obj
 0001:000381b3       __wchartodigit             100391b3 f   LIBCMT:wchtodig.obj
 0001:00038352       __wtoi                     10039352 f   LIBCMT:wtox.obj
 0001:0003835b       __wtoi64                   1003935b f   LIBCMT:wtox.obj
 0001:0003836f       __wtoi64_l                 1003936f f   LIBCMT:wtox.obj
 0001:00038386       __wtoi_l                   10039386 f   LIBCMT:wtox.obj
 0001:0003838f       __wtol                     1003938f f   LIBCMT:wtox.obj
 0001:000383a3       __wtol_l                   100393a3 f   LIBCMT:wtox.obj
 0001:000383ba       __wtoll                    100393ba f   LIBCMT:wtox.obj
 0001:000383ce       __wtoll_l                  100393ce f   LIBCMT:wtox.obj
 0001:000383e5       _wcschr                    100393e5 f   LIBCMT:wcschr.obj
 0001:00038493       __wcsicmp                  10039493 f   LIBCMT:wcsicmp.obj
 0001:00038526       __wcsicmp_l                10039526 f   LIBCMT:wcsicmp.obj
 0001:00038601       __wcsnicmp                 10039601 f   LIBCMT:wcsnicmp.obj
 0001:000386b7       __wcsnicmp_l               100396b7 f   LIBCMT:wcsnicmp.obj
 0001:00038a80       __wcstof_l                 10039a80 f   LIBCMT:wcstoq.obj
 0001:00038b33       __wcstoi64                 10039b33 f   LIBCMT:wcstoq.obj
 0001:00038b5d       __wcstoi64_l               10039b5d f   LIBCMT:wcstoq.obj
 0001:00038b78       __wcstoimax_l              10039b78 f   LIBCMT:wcstoq.obj
 0001:00038b81       __wcstold_l                10039b81 f   LIBCMT:wcstoq.obj
 0001:00038b8a       __wcstoll_l                10039b8a f   LIBCMT:wcstoq.obj
 0001:00038b93       __wcstoui64                10039b93 f   LIBCMT:wcstoq.obj
 0001:00038bbd       __wcstoui64_l              10039bbd f   LIBCMT:wcstoq.obj
 0001:00038bd8       __wcstoull_l               10039bd8 f   LIBCMT:wcstoq.obj
 0001:00038be1       __wcstoumax_l              10039be1 f   LIBCMT:wcstoq.obj
 0001:00038bea       _wcstof                    10039bea f   LIBCMT:wcstoq.obj
 0001:00038bff       _wcstoimax                 10039bff f   LIBCMT:wcstoq.obj
 0001:00038c08       _wcstold                   10039c08 f   LIBCMT:wcstoq.obj
 0001:00038c11       _wcstoll                   10039c11 f   LIBCMT:wcstoq.obj
 0001:00038c1a       _wcstoull                  10039c1a f   LIBCMT:wcstoq.obj
 0001:00038c23       _wcstoumax                 10039c23 f   LIBCMT:wcstoq.obj
 0001:00038c2c       __towlower_l               10039c2c f   LIBCMT:towlower.obj
 0001:00038cdd       _towlower                  10039cdd f   LIBCMT:towlower.obj
 0001:00038cee       __wcstod_l                 10039cee f   LIBCMT:wcstod.obj
 0001:00038de9       _wcstod                    10039de9 f   LIBCMT:wcstod.obj
 0001:00038e00       __allmul                   10039e00 f   LIBCMT:llmul.obj
 0001:00038e34       ___crtLCMapStringW         10039e34 f   LIBCMT:w_map.obj
 0001:00038e63       __wfltin2                  10039e63 f   LIBCMT:wcfin.obj
 0001:00038f10       ___WSTRINGTOLD_L           10039f10 f   LIBCMT:wstrgtold.obj
 0001:00038f6b       ___wstrgtold12_l           10039f6b f   LIBCMT:wstrgtold.obj
 0001:000397bc       _GetModuleHandleA@4        1003a7bc f   kernel32:KERNEL32.dll
 0001:000397c2       _GetProcAddress@8          1003a7c2 f   kernel32:KERNEL32.dll
 0001:000397c8       _HeapAlloc@12              1003a7c8 f   kernel32:KERNEL32.dll
 0001:000397ce       _IsDebuggerPresent@0       1003a7ce f   kernel32:KERNEL32.dll
 0001:000397d4       _IsProcessorFeaturePresent@4 1003a7d4 f   kernel32:KERNEL32.dll
 0001:000397da       _EncodePointer@4           1003a7da f   kernel32:KERNEL32.dll
 0001:000397e0       _DecodePointer@4           1003a7e0 f   kernel32:KERNEL32.dll
 0001:000397e6       _GetLastError@0            1003a7e6 f   kernel32:KERNEL32.dll
 0001:000397ec       _ExitProcess@4             1003a7ec f   kernel32:KERNEL32.dll
 0001:000397f2       _GetModuleHandleExW@12     1003a7f2 f   kernel32:KERNEL32.dll
 0001:000397f8       _AreFileApisANSI@0         1003a7f8 f   kernel32:KERNEL32.dll
 0001:000397fe       _MultiByteToWideChar@24    1003a7fe f   kernel32:KERNEL32.dll
 0001:00039804       _WideCharToMultiByte@32    1003a804 f   kernel32:KERNEL32.dll
 0001:0003980a       _HeapFree@12               1003a80a f   kernel32:KERNEL32.dll
 0001:00039810       _HeapReAlloc@16            1003a810 f   kernel32:KERNEL32.dll
 0001:00039816       _EnterCriticalSection@4    1003a816 f   kernel32:KERNEL32.dll
 0001:0003981c       _LeaveCriticalSection@4    1003a81c f   kernel32:KERNEL32.dll
 0001:00039822       _GetStdHandle@4            1003a822 f   kernel32:KERNEL32.dll
 0001:00039828       _GetFileType@4             1003a828 f   kernel32:KERNEL32.dll
 0001:0003982e       _GetModuleFileNameW@12     1003a82e f   kernel32:KERNEL32.dll
 0001:00039834       _WriteConsoleW@20          1003a834 f   kernel32:KERNEL32.dll
 0001:0003983a       _GetCommandLineA@0         1003a83a f   kernel32:KERNEL32.dll
 0001:00039840       _GetCurrentThreadId@0      1003a840 f   kernel32:KERNEL32.dll
 0001:00039846       _WriteFile@20              1003a846 f   kernel32:KERNEL32.dll
 0001:0003984c       _GetProcessHeap@0          1003a84c f   kernel32:KERNEL32.dll
 0001:00039852       _UnhandledExceptionFilter@4 1003a852 f   kernel32:KERNEL32.dll
 0001:00039858       _SetUnhandledExceptionFilter@4 1003a858 f   kernel32:KERNEL32.dll
 0001:0003985e       _SetLastError@4            1003a85e f   kernel32:KERNEL32.dll
 0001:00039864       _InitializeCriticalSectionAndSpinCount@8 1003a864 f   kernel32:KERNEL32.dll
 0001:0003986a       _CreateEventW@16           1003a86a f   kernel32:KERNEL32.dll
 0001:00039870       _Sleep@4                   1003a870 f   kernel32:KERNEL32.dll
 0001:00039876       _GetCurrentProcess@0       1003a876 f   kernel32:KERNEL32.dll
 0001:0003987c       _TerminateProcess@8        1003a87c f   kernel32:KERNEL32.dll
 0001:00039882       _TlsAlloc@0                1003a882 f   kernel32:KERNEL32.dll
 0001:00039888       _TlsGetValue@4             1003a888 f   kernel32:KERNEL32.dll
 0001:0003988e       _TlsSetValue@8             1003a88e f   kernel32:KERNEL32.dll
 0001:00039894       _TlsFree@4                 1003a894 f   kernel32:KERNEL32.dll
 0001:0003989a       _GetStartupInfoW@4         1003a89a f   kernel32:KERNEL32.dll
 0001:000398a0       _GetTickCount@0            1003a8a0 f   kernel32:KERNEL32.dll
 0001:000398a6       _GetModuleHandleW@4        1003a8a6 f   kernel32:KERNEL32.dll
 0001:000398ac       _CreateSemaphoreW@16       1003a8ac f   kernel32:KERNEL32.dll
 0001:000398b2       _DeleteCriticalSection@4   1003a8b2 f   kernel32:KERNEL32.dll
 0001:000398b8       _FatalAppExitA@8           1003a8b8 f   kernel32:KERNEL32.dll
 0001:000398be       _SetConsoleCtrlHandler@8   1003a8be f   kernel32:KERNEL32.dll
 0001:000398c4       _FreeLibrary@4             1003a8c4 f   kernel32:KERNEL32.dll
 0001:000398ca       _LoadLibraryExW@12         1003a8ca f   kernel32:KERNEL32.dll
 0001:000398d0       _IsValidCodePage@4         1003a8d0 f   kernel32:KERNEL32.dll
 0001:000398d6       _GetACP@0                  1003a8d6 f   kernel32:KERNEL32.dll
 0001:000398dc       _GetOEMCP@0                1003a8dc f   kernel32:KERNEL32.dll
 0001:000398e2       _GetCPInfo@8               1003a8e2 f   kernel32:KERNEL32.dll
 0001:000398e8       _CloseHandle@4             1003a8e8 f   kernel32:KERNEL32.dll
 0001:000398ee       _RtlUnwind@16              1003a8ee f   kernel32:KERNEL32.dll
 0001:000398f4       _ReadFile@20               1003a8f4 f   kernel32:KERNEL32.dll
 0001:000398fa       _GetConsoleMode@8          1003a8fa f   kernel32:KERNEL32.dll
 0001:00039900       _ReadConsoleW@20           1003a900 f   kernel32:KERNEL32.dll
 0001:00039906       _GetConsoleCP@0            1003a906 f   kernel32:KERNEL32.dll
 0001:0003990c       _DeleteFileW@4             1003a90c f   kernel32:KERNEL32.dll
 0001:00039912       _SetFilePointerEx@20       1003a912 f   kernel32:KERNEL32.dll
 0001:00039918       _RaiseException@16         1003a918 f   kernel32:KERNEL32.dll
 0001:0003991e       _OutputDebugStringW@4      1003a91e f   kernel32:KERNEL32.dll
 0001:00039924       _GetCurrentThread@0        1003a924 f   kernel32:KERNEL32.dll
 0001:0003992a       _GetModuleFileNameA@12     1003a92a f   kernel32:KERNEL32.dll
 0001:00039930       _QueryPerformanceCounter@4 1003a930 f   kernel32:KERNEL32.dll
 0001:00039936       _GetCurrentProcessId@0     1003a936 f   kernel32:KERNEL32.dll
 0001:0003993c       _GetSystemTimeAsFileTime@4 1003a93c f   kernel32:KERNEL32.dll
 0001:00039942       _GetEnvironmentStringsW@0  1003a942 f   kernel32:KERNEL32.dll
 0001:00039948       _FreeEnvironmentStringsW@4 1003a948 f   kernel32:KERNEL32.dll
 0001:0003994e       _HeapSize@12               1003a94e f   kernel32:KERNEL32.dll
 0001:00039954       _GetDateFormatW@24         1003a954 f   kernel32:KERNEL32.dll
 0001:0003995a       _GetTimeFormatW@24         1003a95a f   kernel32:KERNEL32.dll
 0001:00039960       _CompareStringW@24         1003a960 f   kernel32:KERNEL32.dll
 0001:00039966       _LCMapStringW@24           1003a966 f   kernel32:KERNEL32.dll
 0001:0003996c       _GetLocaleInfoW@16         1003a96c f   kernel32:KERNEL32.dll
 0001:00039972       _IsValidLocale@8           1003a972 f   kernel32:KERNEL32.dll
 0001:00039978       _GetUserDefaultLCID@0      1003a978 f   kernel32:KERNEL32.dll
 0001:0003997e       _EnumSystemLocalesW@8      1003a97e f   kernel32:KERNEL32.dll
 0001:00039984       _GetStringTypeW@16         1003a984 f   kernel32:KERNEL32.dll
 0001:0003998a       _FlushFileBuffers@4        1003a98a f   kernel32:KERNEL32.dll
 0001:00039990       _SetStdHandle@8            1003a990 f   kernel32:KERNEL32.dll
 0001:00039996       _CreateFileW@28            1003a996 f   kernel32:KERNEL32.dll
 0001:0003999c       _SetEndOfFile@4            1003a99c f   kernel32:KERNEL32.dll
 0002:00000000       ___xc_a                    10045000     LIBCMT:crt0init.obj
 0002:00000104       ___xc_z                    10045104     LIBCMT:crt0init.obj
 0002:00000208       ___xi_a                    10045208     LIBCMT:crt0init.obj
 0002:00000424       ___xi_z                    10045424     LIBCMT:crt0init.obj
 0002:00000528       ___xp_a                    10045528     LIBCMT:crt0init.obj
 0002:0000083c       ___xp_z                    1004583c     LIBCMT:crt0init.obj
 0002:00000940       ___xt_a                    10045940     LIBCMT:crt0init.obj
 0002:00000a44       ___xt_z                    10045a44     LIBCMT:crt0init.obj
 0002:00000b88       _firstTest_M               10045b88     firstTest.obj
 0002:00000b90       __real@0000000000000000    10045b90     firstTest.obj
 0002:00000ba0       __real@3f847ae147ae147b    10045ba0     firstTest.obj
 0002:00000bb0       __real@3fe8000000000000    10045bb0     firstTest.obj
 0002:00000bc0       __real@3ff0000000000000    10045bc0     firstTest.obj
 0002:00000bd0       __real@4008000000000000    10045bd0     firstTest.obj
 0002:00000be0       __real@4014000000000000    10045be0     firstTest.obj
 0002:00000bf0       __real@4059000000000000    10045bf0     firstTest.obj
 0002:00000c00       __real@409f400000000000    10045c00     firstTest.obj
 0002:00000c10       __real@41f0000000000000    10045c10     firstTest.obj
 0002:00000c20       __real@bff0000000000000    10045c20     firstTest.obj
 0002:00000c30       __xmm@41f00000000000000000000000000000 10045c30     firstTest.obj
 0002:00001100       _firstTest_ConstB          10046100     firstTest_data.obj
 0002:00001108       _firstTest_ConstP          10046108     firstTest_data.obj
 0002:000014e8       __real@00000000            100464e8     rtGetNaN.obj
 0002:00001d50       __real@41dfffffffc00000    10046d50     rt_logging.obj
 0002:00001d60       __real@41efffffffe00000    10046d60     rt_logging.obj
 0002:00001d70       __real@bfbf9add3afd2773    10046d70     rt_logging.obj
 0002:00001d80       __real@c000000000000000    10046d80     rt_logging.obj
 0002:00001da8       __real@3cb0000000000000    10046da8     rt_matrx.obj
 0002:00001db8       __real@3fe0000000000000    10046db8     rt_matrx.obj
 0002:00001dc4       _serialfifoground          10046dc4     xpc_datatype_ground.obj
 0002:00001dd0       _bcmsg1553ground           10046dd0     xpc_datatype_ground.obj
 0002:00001de0       _bcstatground              10046de0     xpc_datatype_ground.obj
 0002:00001df8       _bmmsg1553ground           10046df8     xpc_datatype_ground.obj
 0002:00001e18       _ptsetfilename             10046e18     xpctarget.obj
 0002:00001e1c       _xmlfile                   10046e1c     xpctarget.obj
 0002:00001e28       __real@3fb999999999999a    10046e28     xpctarget.obj
 0002:00001e38       _firstTest_BIOMAP          10046e38     appmappingData.obj
 0002:00001fa0       _firstTest_LBLMAP          10046fa0     appmappingData.obj
 0002:00002108       _firstTest_SIDMAP          10047108     appmappingData.obj
 0002:00002270       _firstTest_SBIO            10047270     appmappingData.obj
 0002:000022e8       _firstTest_SLBL            100472e8     appmappingData.obj
 0002:00002360       _firstTest_PTIDSMAP        10047360     appmappingData.obj
 0002:00002368       _firstTest_PTNAMESMAP      10047368     appmappingData.obj
 0002:00002370       _firstTest_SPTMAP          10047370     appmappingData.obj
 0002:00002374       _firstTest_dtmap           10047374     appmappingData.obj
 0002:00002380       _appInfo                   10047380     appmappingData.obj
 0002:000024f0       __real@417312d000000000    100474f0     adnipcim.obj
 0002:000024fc       __real@46fffe00            100474fc     danipcim.obj
 0002:00002500       __FPinit                   10047500     LIBCMT:fpinit.obj
 0002:0000250c       ??_C@_1BI@BGOHAHKC@?$AAm?$AAs?$AAc?$AAo?$AAr?$AAe?$AAe?$AA?4?$AAd?$AAl?$AAl?$AA?$AA@ 1004750c     LIBCMT:crt0dat.obj
 0002:00002524       ??_C@_0P@MIGLKIOC@CorExitProcess?$AA@ 10047524     LIBCMT:crt0dat.obj
 0002:00002614       ??_C@_17LGKOMLJ@?$AA?4?$AA?4?$AA?4?$AA?$AA@ 10047614     LIBCMT:wassert.obj
 0002:0000261c       ??_C@_13LBAGMAIH@?$AA?6?$AA?$AA@ 1004761c     LIBCMT:wassert.obj
 0002:00002620       ??_C@_15IABLJNFO@?$AA?6?$AA?6?$AA?$AA@ 10047620     LIBCMT:wassert.obj
 0002:00002628       ??_C@_1CE@OJBNHDMO@?$AAA?$AAs?$AAs?$AAe?$AAr?$AAt?$AAi?$AAo?$AAn?$AA?5?$AAf?$AAa?$AAi?$AAl?$AAe?$AAd?$AA?$CB?$AA?$AA@ 10047628     LIBCMT:wassert.obj
 0002:0000264c       ??_C@_1BE@PHKBBGE@?$AAP?$AAr?$AAo?$AAg?$AAr?$AAa?$AAm?$AA?3?$AA?5?$AA?$AA@ 1004764c     LIBCMT:wassert.obj
 0002:00002660       ??_C@_1CO@EAEJAADC@?$AA?$DM?$AAp?$AAr?$AAo?$AAg?$AAr?$AAa?$AAm?$AA?5?$AAn?$AAa?$AAm?$AAe?$AA?5?$AAu?$AAn?$AAk?$AAn?$AAo?$AAw?$AAn?$AA?$DO?$AA?$AA@ 10047660     LIBCMT:wassert.obj
 0002:00002690       ??_C@_1O@HEMHKNDC@?$AAF?$AAi?$AAl?$AAe?$AA?3?$AA?5?$AA?$AA@ 10047690     LIBCMT:wassert.obj
 0002:000026a0       ??_C@_1O@KCAFKHJE@?$AAL?$AAi?$AAn?$AAe?$AA?3?$AA?5?$AA?$AA@ 100476a0     LIBCMT:wassert.obj
 0002:000026b0       ??_C@_1BK@PEDCIPMA@?$AAE?$AAx?$AAp?$AAr?$AAe?$AAs?$AAs?$AAi?$AAo?$AAn?$AA?3?$AA?5?$AA?$AA@ 100476b0     LIBCMT:wassert.obj
 0002:000026d0       ??_C@_1OA@EGMLFBHJ@?$AAF?$AAo?$AAr?$AA?5?$AAi?$AAn?$AAf?$AAo?$AAr?$AAm?$AAa?$AAt?$AAi?$AAo?$AAn?$AA?5?$AAo?$AAn?$AA?5?$AAh?$AAo?$AAw?$AA?5?$AAy?$AAo?$AAu?$AAr?$AA?5?$AAp?$AAr?$AAo?$AAg@ 100476d0     LIBCMT:wassert.obj
 0002:000027b0       ??_C@_1HK@POCJMFGK@?$AA?$CI?$AAP?$AAr?$AAe?$AAs?$AAs?$AA?5?$AAR?$AAe?$AAt?$AAr?$AAy?$AA?5?$AAt?$AAo?$AA?5?$AAd?$AAe?$AAb?$AAu?$AAg?$AA?5?$AAt?$AAh?$AAe?$AA?5?$AAa?$AAp?$AAp?$AAl?$AAi?$AAc@ 100477b0     LIBCMT:wassert.obj
 0002:00002830       ??_C@_1EK@MBDPDCGA@?$AAM?$AAi?$AAc?$AAr?$AAo?$AAs?$AAo?$AAf?$AAt?$AA?5?$AAV?$AAi?$AAs?$AAu?$AAa?$AAl?$AA?5?$AAC?$AA?$CL?$AA?$CL?$AA?5?$AAR?$AAu?$AAn?$AAt?$AAi?$AAm?$AAe?$AA?5?$AAL?$AAi?$AAb@ 10047830     LIBCMT:wassert.obj
 0002:0000287c       __pRawDllMain              1004787c     LIBCMT:dllcrt0.obj
 0002:0000287c       __pDefaultRawDllMain       1004787c     LIBCMT:dllcrt0.obj
 0002:00002880       ?ProcessDetach@NativeDll@<CrtImplementationDetails>@@0IB 10047880     LIBCMT:handler.obj
 0002:00002884       ?ProcessAttach@NativeDll@<CrtImplementationDetails>@@0IB 10047884     LIBCMT:handler.obj
 0002:00002888       ?ThreadAttach@NativeDll@<CrtImplementationDetails>@@0IB 10047888     LIBCMT:handler.obj
 0002:0000288c       ?ThreadDetach@NativeDll@<CrtImplementationDetails>@@0IB 1004788c     LIBCMT:handler.obj
 0002:00002890       ?ProcessVerifier@NativeDll@<CrtImplementationDetails>@@0IB 10047890     LIBCMT:handler.obj
 0002:00002950       ??_C@_1FK@PGACCAFB@?$AAR?$AA6?$AA0?$AA0?$AA2?$AA?$AN?$AA?6?$AA?9?$AA?5?$AAf?$AAl?$AAo?$AAa?$AAt?$AAi?$AAn?$AAg?$AA?5?$AAp?$AAo?$AAi?$AAn?$AAt?$AA?5?$AAs?$AAu?$AAp?$AAp?$AAo?$AAr?$AAt?$AA?5@ 10047950     LIBCMT:crt0msg.obj
 0002:000029b0       ??_C@_1FE@LLNEDJMD@?$AAR?$AA6?$AA0?$AA0?$AA8?$AA?$AN?$AA?6?$AA?9?$AA?5?$AAn?$AAo?$AAt?$AA?5?$AAe?$AAn?$AAo?$AAu?$AAg?$AAh?$AA?5?$AAs?$AAp?$AAa?$AAc?$AAe?$AA?5?$AAf?$AAo?$AAr?$AA?5?$AAa?$AAr@ 100479b0     LIBCMT:crt0msg.obj
 0002:00002a08       ??_C@_1FI@HONFMGBI@?$AAR?$AA6?$AA0?$AA0?$AA9?$AA?$AN?$AA?6?$AA?9?$AA?5?$AAn?$AAo?$AAt?$AA?5?$AAe?$AAn?$AAo?$AAu?$AAg?$AAh?$AA?5?$AAs?$AAp?$AAa?$AAc?$AAe?$AA?5?$AAf?$AAo?$AAr?$AA?5?$AAe?$AAn@ 10047a08     LIBCMT:crt0msg.obj
 0002:00002a60       ??_C@_1EG@BEHAGFJD@?$AAR?$AA6?$AA0?$AA1?$AA0?$AA?$AN?$AA?6?$AA?9?$AA?5?$AAa?$AAb?$AAo?$AAr?$AAt?$AA?$CI?$AA?$CJ?$AA?5?$AAh?$AAa?$AAs?$AA?5?$AAb?$AAe?$AAe?$AAn?$AA?5?$AAc?$AAa?$AAl?$AAl?$AAe?$AAd@ 10047a60     LIBCMT:crt0msg.obj
 0002:00002aa8       ??_C@_1FI@LOGNIKDM@?$AAR?$AA6?$AA0?$AA1?$AA6?$AA?$AN?$AA?6?$AA?9?$AA?5?$AAn?$AAo?$AAt?$AA?5?$AAe?$AAn?$AAo?$AAu?$AAg?$AAh?$AA?5?$AAs?$AAp?$AAa?$AAc?$AAe?$AA?5?$AAf?$AAo?$AAr?$AA?5?$AAt?$AAh@ 10047aa8     LIBCMT:crt0msg.obj
 0002:00002b00       ??_C@_1FK@BEOGODMC@?$AAR?$AA6?$AA0?$AA1?$AA7?$AA?$AN?$AA?6?$AA?9?$AA?5?$AAu?$AAn?$AAe?$AAx?$AAp?$AAe?$AAc?$AAt?$AAe?$AAd?$AA?5?$AAm?$AAu?$AAl?$AAt?$AAi?$AAt?$AAh?$AAr?$AAe?$AAa?$AAd?$AA?5@ 10047b00     LIBCMT:crt0msg.obj
 0002:00002b60       ??_C@_1EC@JIBHAOPH@?$AAR?$AA6?$AA0?$AA1?$AA8?$AA?$AN?$AA?6?$AA?9?$AA?5?$AAu?$AAn?$AAe?$AAx?$AAp?$AAe?$AAc?$AAt?$AAe?$AAd?$AA?5?$AAh?$AAe?$AAa?$AAp?$AA?5?$AAe?$AAr?$AAr?$AAo?$AAr?$AA?$AN?$AA?6@ 10047b60     LIBCMT:crt0msg.obj
 0002:00002ba8       ??_C@_1FC@ECHBIFBC@?$AAR?$AA6?$AA0?$AA1?$AA9?$AA?$AN?$AA?6?$AA?9?$AA?5?$AAu?$AAn?$AAa?$AAb?$AAl?$AAe?$AA?5?$AAt?$AAo?$AA?5?$AAo?$AAp?$AAe?$AAn?$AA?5?$AAc?$AAo?$AAn?$AAs?$AAo?$AAl?$AAe?$AA?5@ 10047ba8     LIBCMT:crt0msg.obj
 0002:00002c00       ??_C@_1GK@FHCKBEFA@?$AAR?$AA6?$AA0?$AA2?$AA4?$AA?$AN?$AA?6?$AA?9?$AA?5?$AAn?$AAo?$AAt?$AA?5?$AAe?$AAn?$AAo?$AAu?$AAg?$AAh?$AA?5?$AAs?$AAp?$AAa?$AAc?$AAe?$AA?5?$AAf?$AAo?$AAr?$AA?5?$AA_?$AAo@ 10047c00     LIBCMT:crt0msg.obj
 0002:00002c70       ??_C@_1EM@MAADIHMB@?$AAR?$AA6?$AA0?$AA2?$AA5?$AA?$AN?$AA?6?$AA?9?$AA?5?$AAp?$AAu?$AAr?$AAe?$AA?5?$AAv?$AAi?$AAr?$AAt?$AAu?$AAa?$AAl?$AA?5?$AAf?$AAu?$AAn?$AAc?$AAt?$AAi?$AAo?$AAn?$AA?5?$AAc@ 10047c70     LIBCMT:crt0msg.obj
 0002:00002cc0       ??_C@_1GK@MCAAGJMO@?$AAR?$AA6?$AA0?$AA2?$AA6?$AA?$AN?$AA?6?$AA?9?$AA?5?$AAn?$AAo?$AAt?$AA?5?$AAe?$AAn?$AAo?$AAu?$AAg?$AAh?$AA?5?$AAs?$AAp?$AAa?$AAc?$AAe?$AA?5?$AAf?$AAo?$AAr?$AA?5?$AAs?$AAt@ 10047cc0     LIBCMT:crt0msg.obj
 0002:00002d30       ??_C@_1GK@MFGOKLAG@?$AAR?$AA6?$AA0?$AA2?$AA7?$AA?$AN?$AA?6?$AA?9?$AA?5?$AAn?$AAo?$AAt?$AA?5?$AAe?$AAn?$AAo?$AAu?$AAg?$AAh?$AA?5?$AAs?$AAp?$AAa?$AAc?$AAe?$AA?5?$AAf?$AAo?$AAr?$AA?5?$AAl?$AAo@ 10047d30     LIBCMT:crt0msg.obj
 0002:00002da0       ??_C@_1EK@HHFLMAOL@?$AAR?$AA6?$AA0?$AA2?$AA8?$AA?$AN?$AA?6?$AA?9?$AA?5?$AAu?$AAn?$AAa?$AAb?$AAl?$AAe?$AA?5?$AAt?$AAo?$AA?5?$AAi?$AAn?$AAi?$AAt?$AAi?$AAa?$AAl?$AAi?$AAz?$AAe?$AA?5?$AAh?$AAe@ 10047da0     LIBCMT:crt0msg.obj
 0002:00002dec       ??_C@_1DO@BMFCDCD@?$AAR?$AA6?$AA0?$AA3?$AA0?$AA?$AN?$AA?6?$AA?9?$AA?5?$AAC?$AAR?$AAT?$AA?5?$AAn?$AAo?$AAt?$AA?5?$AAi?$AAn?$AAi?$AAt?$AAi?$AAa?$AAl?$AAi?$AAz?$AAe?$AAd?$AA?$AN?$AA?6?$AA?$AA@ 10047dec     LIBCMT:crt0msg.obj
 0002:00002e30       ??_C@_1MG@ENCOOIDF@?$AAR?$AA6?$AA0?$AA3?$AA1?$AA?$AN?$AA?6?$AA?9?$AA?5?$AAA?$AAt?$AAt?$AAe?$AAm?$AAp?$AAt?$AA?5?$AAt?$AAo?$AA?5?$AAi?$AAn?$AAi?$AAt?$AAi?$AAa?$AAl?$AAi?$AAz?$AAe?$AA?5?$AAt@ 10047e30     LIBCMT:crt0msg.obj
 0002:00002ef8       ??_C@_1GG@GOPILAJP@?$AAR?$AA6?$AA0?$AA3?$AA2?$AA?$AN?$AA?6?$AA?9?$AA?5?$AAn?$AAo?$AAt?$AA?5?$AAe?$AAn?$AAo?$AAu?$AAg?$AAh?$AA?5?$AAs?$AAp?$AAa?$AAc?$AAe?$AA?5?$AAf?$AAo?$AAr?$AA?5?$AAl?$AAo@ 10047ef8     LIBCMT:crt0msg.obj
 0002:00002f60       ??_C@_1BOO@KGEDBGAJ@?$AAR?$AA6?$AA0?$AA3?$AA3?$AA?$AN?$AA?6?$AA?9?$AA?5?$AAA?$AAt?$AAt?$AAe?$AAm?$AAp?$AAt?$AA?5?$AAt?$AAo?$AA?5?$AAu?$AAs?$AAe?$AA?5?$AAM?$AAS?$AAI?$AAL?$AA?5?$AAc?$AAo?$AAd@ 10047f60     LIBCMT:crt0msg.obj
 0002:00003150       ??_C@_1GG@MKFPEKFO@?$AAR?$AA6?$AA0?$AA3?$AA4?$AA?$AN?$AA?6?$AA?9?$AA?5?$AAi?$AAn?$AAc?$AAo?$AAn?$AAs?$AAi?$AAs?$AAt?$AAe?$AAn?$AAt?$AA?5?$AAo?$AAn?$AAe?$AAx?$AAi?$AAt?$AA?5?$AAb?$AAe?$AAg@ 10048150     LIBCMT:crt0msg.obj
 0002:000031b8       ??_C@_1BO@BFCDCGC@?$AAD?$AAO?$AAM?$AAA?$AAI?$AAN?$AA?5?$AAe?$AAr?$AAr?$AAo?$AAr?$AA?$AN?$AA?6?$AA?$AA@ 100481b8     LIBCMT:crt0msg.obj
 0002:000031d8       ??_C@_1BK@KMOMNAAI@?$AAS?$AAI?$AAN?$AAG?$AA?5?$AAe?$AAr?$AAr?$AAo?$AAr?$AA?$AN?$AA?6?$AA?$AA@ 100481d8     LIBCMT:crt0msg.obj
 0002:000031f4       ??_C@_1BM@JBBEPPHI@?$AAT?$AAL?$AAO?$AAS?$AAS?$AA?5?$AAe?$AAr?$AAr?$AAo?$AAr?$AA?$AN?$AA?6?$AA?$AA@ 100481f4     LIBCMT:crt0msg.obj
 0002:00003210       ??_C@_15JNBOKNOG@?$AA?$AN?$AA?6?$AA?$AA@ 10048210     LIBCMT:crt0msg.obj
 0002:00003218       ??_C@_1BO@BKOMIGKJ@?$AAr?$AAu?$AAn?$AAt?$AAi?$AAm?$AAe?$AA?5?$AAe?$AAr?$AAr?$AAo?$AAr?$AA?5?$AA?$AA@ 10048218     LIBCMT:crt0msg.obj
 0002:00003238       ??_C@_1DE@JNGNBFGO@?$AAR?$AAu?$AAn?$AAt?$AAi?$AAm?$AAe?$AA?5?$AAE?$AAr?$AAr?$AAo?$AAr?$AA?$CB?$AA?6?$AA?6?$AAP?$AAr?$AAo?$AAg?$AAr?$AAa?$AAm?$AA?3?$AA?5?$AA?$AA@ 10048238     LIBCMT:crt0msg.obj
 0002:0000326c       ??_C@_06OJHGLDPL@?$CInull?$CJ?$AA@ 1004826c     LIBCMT:output.obj
 0002:00003274       ??_C@_1O@CEDCILHN@?$AA?$CI?$AAn?$AAu?$AAl?$AAl?$AA?$CJ?$AA?$AA@ 10048274     LIBCMT:output.obj
 0002:00003288       ___lookuptable             10048288     LIBCMT:output.obj
 0002:000032e4       ??_C@_05KLBDPFGC@e?$CL000?$AA@ 100482e4     LIBCMT:cvt.obj
 0002:000032ec       ??_C@_1BK@MGMFAEKH@?$AAk?$AAe?$AAr?$AAn?$AAe?$AAl?$AA3?$AA2?$AA?4?$AAd?$AAl?$AAl?$AA?$AA@ 100482ec     LIBCMT:winapisupp.obj
 0002:00003308       ??_C@_08KNHFBNJ@FlsAlloc?$AA@ 10048308     LIBCMT:winapisupp.obj
 0002:00003314       ??_C@_07PEJMOBNF@FlsFree?$AA@ 10048314     LIBCMT:winapisupp.obj
 0002:0000331c       ??_C@_0M@GDNOONDI@FlsGetValue?$AA@ 1004831c     LIBCMT:winapisupp.obj
 0002:00003328       ??_C@_0M@JCPCPOEF@FlsSetValue?$AA@ 10048328     LIBCMT:winapisupp.obj
 0002:00003334       ??_C@_0BM@HCFOFFN@InitializeCriticalSectionEx?$AA@ 10048334     LIBCMT:winapisupp.obj
 0002:00003350       ??_C@_0P@DLHPPCNH@CreateEventExW?$AA@ 10048350     LIBCMT:winapisupp.obj
 0002:00003360       ??_C@_0BD@KIEEOEEH@CreateSemaphoreExW?$AA@ 10048360     LIBCMT:winapisupp.obj
 0002:00003374       ??_C@_0BI@BKLFFAPO@SetThreadStackGuarantee?$AA@ 10048374     LIBCMT:winapisupp.obj
 0002:0000338c       ??_C@_0BG@OGFAJCKC@CreateThreadpoolTimer?$AA@ 1004838c     LIBCMT:winapisupp.obj
 0002:000033a4       ??_C@_0BD@LPLEMMDI@SetThreadpoolTimer?$AA@ 100483a4     LIBCMT:winapisupp.obj
 0002:000033b8       ??_C@_0CA@FMNJENH@WaitForThreadpoolTimerCallbacks?$AA@ 100483b8     LIBCMT:winapisupp.obj
 0002:000033d8       ??_C@_0BF@DCFCCNOC@CloseThreadpoolTimer?$AA@ 100483d8     LIBCMT:winapisupp.obj
 0002:000033f0       ??_C@_0BF@FLABGKKM@CreateThreadpoolWait?$AA@ 100483f0     LIBCMT:winapisupp.obj
 0002:00003408       ??_C@_0BC@MGCOHNA@SetThreadpoolWait?$AA@ 10048408     LIBCMT:winapisupp.obj
 0002:0000341c       ??_C@_0BE@OCIOMIMP@CloseThreadpoolWait?$AA@ 1004841c     LIBCMT:winapisupp.obj
 0002:00003430       ??_C@_0BJ@LKGHFHBO@FlushProcessWriteBuffers?$AA@ 10048430     LIBCMT:winapisupp.obj
 0002:0000344c       ??_C@_0BP@KALKKPMO@FreeLibraryWhenCallbackReturns?$AA@ 1004844c     LIBCMT:winapisupp.obj
 0002:0000346c       ??_C@_0BK@DFNBACLA@GetCurrentProcessorNumber?$AA@ 1004846c     LIBCMT:winapisupp.obj
 0002:00003488       ??_C@_0BP@KHGALBC@GetLogicalProcessorInformation?$AA@ 10048488     LIBCMT:winapisupp.obj
 0002:000034a8       ??_C@_0BE@FKKLLFLM@CreateSymbolicLinkW?$AA@ 100484a8     LIBCMT:winapisupp.obj
 0002:000034bc       ??_C@_0BJ@OHNKDLIJ@SetDefaultDllDirectories?$AA@ 100484bc     LIBCMT:winapisupp.obj
 0002:000034d8       ??_C@_0BE@LJANKFHF@EnumSystemLocalesEx?$AA@ 100484d8     LIBCMT:winapisupp.obj
 0002:000034ec       ??_C@_0BA@IHGNDAEB@CompareStringEx?$AA@ 100484ec     LIBCMT:winapisupp.obj
 0002:000034fc       ??_C@_0BA@EPCJIIPD@GetDateFormatEx?$AA@ 100484fc     LIBCMT:winapisupp.obj
 0002:0000350c       ??_C@_0BA@ONOKGCMP@GetLocaleInfoEx?$AA@ 1004850c     LIBCMT:winapisupp.obj
 0002:0000351c       ??_C@_0BA@CIJJKCJJ@GetTimeFormatEx?$AA@ 1004851c     LIBCMT:winapisupp.obj
 0002:0000352c       ??_C@_0BJ@PBCCBIPI@GetUserDefaultLocaleName?$AA@ 1004852c     LIBCMT:winapisupp.obj
 0002:00003548       ??_C@_0BC@CELBKLLA@IsValidLocaleName?$AA@ 10048548     LIBCMT:winapisupp.obj
 0002:0000355c       ??_C@_0O@KKBNKAPF@LCMapStringEx?$AA@ 1004855c     LIBCMT:winapisupp.obj
 0002:0000356c       ??_C@_0BE@JOGNEJCI@GetCurrentPackageId?$AA@ 1004856c     LIBCMT:winapisupp.obj
 0002:00003580       ??_C@_0P@CDHHOHKP@GetTickCount64?$AA@ 10048580     LIBCMT:winapisupp.obj
 0002:00003590       ??_C@_0BO@KPCLFDJJ@GetFileInformationByHandleExW?$AA@ 10048590     LIBCMT:winapisupp.obj
 0002:000035b0       ??_C@_0BM@MHIDLABK@SetFileInformationByHandleW?$AA@ 100485b0     LIBCMT:winapisupp.obj
 0002:000035cc       ??_C@_1BK@GAEMIDIL@?$AAA?$AAD?$AAV?$AAA?$AAP?$AAI?$AA3?$AA2?$AA?4?$AAD?$AAL?$AAL?$AA?$AA@ 100485cc     LIBCMT:rand_s.obj
 0002:000035e8       ??_C@_0BC@JEAENNKH@SystemFunction036?$AA@ 100485e8     LIBCMT:rand_s.obj
 0002:0000360c       ??_C@_1M@HPNHIDJI@?$AAj?$AAa?$AA?9?$AAJ?$AAP?$AA?$AA@ 1004860c     LIBCMT:mbctype.obj
 0002:00003618       ??_C@_1M@BIBDDEMK@?$AAz?$AAh?$AA?9?$AAC?$AAN?$AA?$AA@ 10048618     LIBCMT:mbctype.obj
 0002:00003624       ??_C@_1M@JLOOOEGK@?$AAk?$AAo?$AA?9?$AAK?$AAR?$AA?$AA@ 10048624     LIBCMT:mbctype.obj
 0002:00003630       ??_C@_1M@CLNBBOPM@?$AAz?$AAh?$AA?9?$AAT?$AAW?$AA?$AA@ 10048630     LIBCMT:mbctype.obj
 0002:000036c8       ??_C@_03MGHMBJCF@log?$AA@  100486c8     LIBCMT:libm_error.obj
 0002:000036cc       ??_C@_05HGHHAHAP@log10?$AA@ 100486cc     LIBCMT:libm_error.obj
 0002:000036d4       ??_C@_03KHJOGHMM@exp?$AA@  100486d4     LIBCMT:libm_error.obj
 0002:000036d8       ??_C@_03JGHBODFD@pow?$AA@  100486d8     LIBCMT:libm_error.obj
 0002:000036dc       ??_C@_04FIHNOPOL@asin?$AA@ 100486dc     LIBCMT:libm_error.obj
 0002:000036e4       ??_C@_04PDIFKINK@acos?$AA@ 100486e4     LIBCMT:libm_error.obj
 0002:000036ec       ??_C@_05EOHGHCHD@exp10?$AA@ 100486ec     LIBCMT:libm_error.obj
 0002:000036f4       ??_C@_04MLLJIGOK@atan?$AA@ 100486f4     LIBCMT:libm_error.obj
 0002:000036fc       ??_C@_04GFPJNGEK@ceil?$AA@ 100486fc     LIBCMT:libm_error.obj
 0002:00003704       ??_C@_05PBJFFIGL@floor?$AA@ 10048704     LIBCMT:libm_error.obj
 0002:0000370c       ??_C@_04EHEDPDJG@modf?$AA@ 1004870c     LIBCMT:libm_error.obj
 0002:00003714       ??_C@_03BLEJJJBH@sin?$AA@  10048714     LIBCMT:libm_error.obj
 0002:00003718       ??_C@_03LALBNOCG@cos?$AA@  10048718     LIBCMT:libm_error.obj
 0002:0000371c       ??_C@_03IIINPABG@tan?$AA@  1004871c     LIBCMT:libm_error.obj
 0002:00003720       ??_C@_04EIAKFFMI@sqrt?$AA@ 10048720     LIBCMT:libm_error.obj
 0002:00003728       ??_C@_04COOMCNPB@sinh?$AA@ 10048728     LIBCMT:fpexcept.obj
 0002:00003730       ??_C@_04HPJJNFIM@cosh?$AA@ 10048730     LIBCMT:fpexcept.obj
 0002:00003738       ??_C@_04FJHINJAO@tanh?$AA@ 10048738     LIBCMT:fpexcept.obj
 0002:00003740       ??_C@_05KNGEOGJB@atan2?$AA@ 10048740     LIBCMT:fpexcept.obj
 0002:00003748       ??_C@_04ODHECPBC@fabs?$AA@ 10048748     LIBCMT:fpexcept.obj
 0002:00003750       ??_C@_05CEJMAHNP@ldexp?$AA@ 10048750     LIBCMT:fpexcept.obj
 0002:00003758       ??_C@_05KBKMEMPO@_cabs?$AA@ 10048758     LIBCMT:fpexcept.obj
 0002:00003760       ??_C@_06MEIMCGCF@_hypot?$AA@ 10048760     LIBCMT:fpexcept.obj
 0002:00003768       ??_C@_04KEPJIHGP@fmod?$AA@ 10048768     LIBCMT:fpexcept.obj
 0002:00003770       ??_C@_05GKKHEGJL@frexp?$AA@ 10048770     LIBCMT:fpexcept.obj
 0002:00003778       ??_C@_03MJLDFKDL@_y0?$AA@  10048778     LIBCMT:fpexcept.obj
 0002:0000377c       ??_C@_03NAKIGLHK@_y1?$AA@  1004877c     LIBCMT:fpexcept.obj
 0002:00003780       ??_C@_03ONILCKOB@_yn?$AA@  10048780     LIBCMT:fpexcept.obj
 0002:00003784       ??_C@_05JGDBENOH@_logb?$AA@ 10048784     LIBCMT:fpexcept.obj
 0002:0000378c       ??_C@_0L@KDOEJCKC@_nextafter?$AA@ 1004878c     LIBCMT:fpexcept.obj
 0002:00003798       ??_C@_1BG@GOEBHBDC@?$AAU?$AAS?$AAE?$AAR?$AA3?$AA2?$AA?4?$AAD?$AAL?$AAL?$AA?$AA@ 10048798     LIBCMT:crtmboxw.obj
 0002:000037b0       ??_C@_0M@DLDCCGNP@MessageBoxW?$AA@ 100487b0     LIBCMT:crtmboxw.obj
 0002:000037bc       ??_C@_0BA@HNOPNCHB@GetActiveWindow?$AA@ 100487bc     LIBCMT:crtmboxw.obj
 0002:000037cc       ??_C@_0BD@HHGDFDBJ@GetLastActivePopup?$AA@ 100487cc     LIBCMT:crtmboxw.obj
 0002:000037e0       ??_C@_0BK@DEKFELLI@GetUserObjectInformationW?$AA@ 100487e0     LIBCMT:crtmboxw.obj
 0002:000037fc       ??_C@_0BI@DFKBFLJE@GetProcessWindowStation?$AA@ 100487fc     LIBCMT:crtmboxw.obj
 0002:00003818       __XcptActTab               10048818     LIBCMT:winxfltr.obj
 0002:000038a8       __XcptActTabCount          100488a8     LIBCMT:winxfltr.obj
 0002:000038ac       __XcptActTabSize           100488ac     LIBCMT:winxfltr.obj
 0002:000038b0       __First_FPE_Indx           100488b0     LIBCMT:winxfltr.obj
 0002:000038b4       __Num_FPE                  100488b4     LIBCMT:winxfltr.obj
 0002:000038b8       ___lookuptable_s           100488b8     LIBCMT:outputs.obj
 0002:00003914       ??_C@_03KOEHGMDN@Sun?$AA@  10048914     LIBCMT:nlsdata.obj
 0002:00003918       ??_C@_03PDAGKDH@Mon?$AA@   10048918     LIBCMT:nlsdata.obj
 0002:0000391c       ??_C@_03NAGEINEP@Tue?$AA@  1004891c     LIBCMT:nlsdata.obj
 0002:00003920       ??_C@_03MHOMLAJA@Wed?$AA@  10048920     LIBCMT:nlsdata.obj
 0002:00003924       ??_C@_03IOFIKPDN@Thu?$AA@  10048924     LIBCMT:nlsdata.obj
 0002:00003928       ??_C@_03IDIOELNC@Fri?$AA@  10048928     LIBCMT:nlsdata.obj
 0002:0000392c       ??_C@_03FEFJNEK@Sat?$AA@   1004892c     LIBCMT:nlsdata.obj
 0002:00003930       ??_C@_06OOPIFAJ@Sunday?$AA@ 10048930     LIBCMT:nlsdata.obj
 0002:00003938       ??_C@_06JLEDEDGH@Monday?$AA@ 10048938     LIBCMT:nlsdata.obj
 0002:00003940       ??_C@_07BAAGCFCM@Tuesday?$AA@ 10048940     LIBCMT:nlsdata.obj
 0002:00003948       ??_C@_09DLIGFAKA@Wednesday?$AA@ 10048948     LIBCMT:nlsdata.obj
 0002:00003954       ??_C@_08HACCIKIA@Thursday?$AA@ 10048954     LIBCMT:nlsdata.obj
 0002:00003960       ??_C@_06JECMNKMI@Friday?$AA@ 10048960     LIBCMT:nlsdata.obj
 0002:00003968       ??_C@_08INBOOONO@Saturday?$AA@ 10048968     LIBCMT:nlsdata.obj
 0002:00003974       ??_C@_03JIHJHPIE@Jan?$AA@  10048974     LIBCMT:nlsdata.obj
 0002:00003978       ??_C@_03HJBDCHOM@Feb?$AA@  10048978     LIBCMT:nlsdata.obj
 0002:0000397c       ??_C@_03ODNJBKGA@Mar?$AA@  1004897c     LIBCMT:nlsdata.obj
 0002:00003980       ??_C@_03LEOLGMJP@Apr?$AA@  10048980     LIBCMT:nlsdata.obj
 0002:00003984       ??_C@_03CNMDKL@May?$AA@    10048984     LIBCMT:nlsdata.obj
 0002:00003988       ??_C@_03IDFGHECI@Jun?$AA@  10048988     LIBCMT:nlsdata.obj
 0002:0000398c       ??_C@_03LBGABGKK@Jul?$AA@  1004898c     LIBCMT:nlsdata.obj
 0002:00003990       ??_C@_03IFJFEIGA@Aug?$AA@  10048990     LIBCMT:nlsdata.obj
 0002:00003994       ??_C@_03GGCAPAJC@Sep?$AA@  10048994     LIBCMT:nlsdata.obj
 0002:00003998       ??_C@_03BMAOKBAD@Oct?$AA@  10048998     LIBCMT:nlsdata.obj
 0002:0000399c       ??_C@_03JPJOFNIA@Nov?$AA@  1004899c     LIBCMT:nlsdata.obj
 0002:000039a0       ??_C@_03MKABNOCG@Dec?$AA@  100489a0     LIBCMT:nlsdata.obj
 0002:000039a4       ??_C@_07CGJPFGJA@January?$AA@ 100489a4     LIBCMT:nlsdata.obj
 0002:000039ac       ??_C@_08GNJGEPFN@February?$AA@ 100489ac     LIBCMT:nlsdata.obj
 0002:000039b8       ??_C@_05HPCKOFNC@March?$AA@ 100489b8     LIBCMT:nlsdata.obj
 0002:000039c0       ??_C@_05DMJDNLEJ@April?$AA@ 100489c0     LIBCMT:nlsdata.obj
 0002:000039c8       ??_C@_04CNLMGBGM@June?$AA@ 100489c8     LIBCMT:nlsdata.obj
 0002:000039d0       ??_C@_04MIEPOIFP@July?$AA@ 100489d0     LIBCMT:nlsdata.obj
 0002:000039d8       ??_C@_06LBBHFDDG@August?$AA@ 100489d8     LIBCMT:nlsdata.obj
 0002:000039e0       ??_C@_09BHHEALKD@September?$AA@ 100489e0     LIBCMT:nlsdata.obj
 0002:000039ec       ??_C@_07JJNFCEND@October?$AA@ 100489ec     LIBCMT:nlsdata.obj
 0002:000039f4       ??_C@_08HCHEGEOA@November?$AA@ 100489f4     LIBCMT:nlsdata.obj
 0002:00003a00       ??_C@_08EDHMEBNP@December?$AA@ 10048a00     LIBCMT:nlsdata.obj
 0002:00003a0c       ??_C@_02DEDBPAFC@AM?$AA@   10048a0c     LIBCMT:nlsdata.obj
 0002:00003a10       ??_C@_02CJNFDJBF@PM?$AA@   10048a10     LIBCMT:nlsdata.obj
 0002:00003a14       ??_C@_08BPBNCDIB@MM?1dd?1yy?$AA@ 10048a14     LIBCMT:nlsdata.obj
 0002:00003a20       ??_C@_0BE@CKGJFCPC@dddd?0?5MMMM?5dd?0?5yyyy?$AA@ 10048a20     LIBCMT:nlsdata.obj
 0002:00003a34       ??_C@_08JCCMCCIL@HH?3mm?3ss?$AA@ 10048a34     LIBCMT:nlsdata.obj
 0002:00003a40       ??_C@_17MBGCMIPB@?$AAS?$AAu?$AAn?$AA?$AA@ 10048a40     LIBCMT:nlsdata.obj
 0002:00003a48       ??_C@_17KBOMKBF@?$AAM?$AAo?$AAn?$AA?$AA@ 10048a48     LIBCMT:nlsdata.obj
 0002:00003a50       ??_C@_17BMKGEGOJ@?$AAT?$AAu?$AAe?$AA?$AA@ 10048a50     LIBCMT:nlsdata.obj
 0002:00003a58       ??_C@_17CJEDCEPE@?$AAW?$AAe?$AAd?$AA?$AA@ 10048a58     LIBCMT:nlsdata.obj
 0002:00003a60       ??_C@_17PDPHAADD@?$AAT?$AAh?$AAu?$AA?$AA@ 10048a60     LIBCMT:nlsdata.obj
 0002:00003a68       ??_C@_17HFOLPPLP@?$AAF?$AAr?$AAi?$AA?$AA@ 10048a68     LIBCMT:nlsdata.obj
 0002:00003a70       ??_C@_17GGIBDPIH@?$AAS?$AAa?$AAt?$AA?$AA@ 10048a70     LIBCMT:nlsdata.obj
 0002:00003a78       ??_C@_1O@IHNHDHPB@?$AAS?$AAu?$AAn?$AAd?$AAa?$AAy?$AA?$AA@ 10048a78     LIBCMT:nlsdata.obj
 0002:00003a88       ??_C@_1O@MMNBFLIA@?$AAM?$AAo?$AAn?$AAd?$AAa?$AAy?$AA?$AA@ 10048a88     LIBCMT:nlsdata.obj
 0002:00003a98       ??_C@_1BA@ENFBFFEK@?$AAT?$AAu?$AAe?$AAs?$AAd?$AAa?$AAy?$AA?$AA@ 10048a98     LIBCMT:nlsdata.obj
 0002:00003aa8       ??_C@_1BE@EBOGMDOH@?$AAW?$AAe?$AAd?$AAn?$AAe?$AAs?$AAd?$AAa?$AAy?$AA?$AA@ 10048aa8     LIBCMT:nlsdata.obj
 0002:00003abc       ??_C@_1BC@HHMNLIHE@?$AAT?$AAh?$AAu?$AAr?$AAs?$AAd?$AAa?$AAy?$AA?$AA@ 10048abc     LIBCMT:nlsdata.obj
 0002:00003ad0       ??_C@_1O@PDICJHAG@?$AAF?$AAr?$AAi?$AAd?$AAa?$AAy?$AA?$AA@ 10048ad0     LIBCMT:nlsdata.obj
 0002:00003ae0       ??_C@_1BC@ENMNNPAJ@?$AAS?$AAa?$AAt?$AAu?$AAr?$AAd?$AAa?$AAy?$AA?$AA@ 10048ae0     LIBCMT:nlsdata.obj
 0002:00003af4       ??_C@_17DKNBKCHM@?$AAJ?$AAa?$AAn?$AA?$AA@ 10048af4     LIBCMT:nlsdata.obj
 0002:00003afc       ??_C@_17LMDJEKJN@?$AAF?$AAe?$AAb?$AA?$AA@ 10048afc     LIBCMT:nlsdata.obj
 0002:00003b04       ??_C@_17CKNLEDEC@?$AAM?$AAa?$AAr?$AA?$AA@ 10048b04     LIBCMT:nlsdata.obj
 0002:00003b0c       ??_C@_17LFPOIHDD@?$AAA?$AAp?$AAr?$AA?$AA@ 10048b0c     LIBCMT:nlsdata.obj
 0002:00003b14       ??_C@_17PNNKMEED@?$AAM?$AAa?$AAy?$AA?$AA@ 10048b14     LIBCMT:nlsdata.obj
 0002:00003b1c       ??_C@_17KCJGOCPB@?$AAJ?$AAu?$AAn?$AA?$AA@ 10048b1c     LIBCMT:nlsdata.obj
 0002:00003b24       ??_C@_17IJPCKHK@?$AAJ?$AAu?$AAl?$AA?$AA@ 10048b24     LIBCMT:nlsdata.obj
 0002:00003b2c       ??_C@_17ICPELBCN@?$AAA?$AAu?$AAg?$AA?$AA@ 10048b2c     LIBCMT:nlsdata.obj
 0002:00003b34       ??_C@_17HCHCOKMG@?$AAS?$AAe?$AAp?$AA?$AA@ 10048b34     LIBCMT:nlsdata.obj
 0002:00003b3c       ??_C@_17FNLKOI@?$AAO?$AAc?$AAt?$AA?$AA@ 10048b3c     LIBCMT:nlsdata.obj
 0002:00003b44       ??_C@_17BBDMLCIG@?$AAN?$AAo?$AAv?$AA?$AA@ 10048b44     LIBCMT:nlsdata.obj
 0002:00003b4c       ??_C@_17EGKACKIF@?$AAD?$AAe?$AAc?$AA?$AA@ 10048b4c     LIBCMT:nlsdata.obj
 0002:00003b54       ??_C@_1BA@EFMEIEBA@?$AAJ?$AAa?$AAn?$AAu?$AAa?$AAr?$AAy?$AA?$AA@ 10048b54     LIBCMT:nlsdata.obj
 0002:00003b64       ??_C@_1BC@JGDDFFAM@?$AAF?$AAe?$AAb?$AAr?$AAu?$AAa?$AAr?$AAy?$AA?$AA@ 10048b64     LIBCMT:nlsdata.obj
 0002:00003b78       ??_C@_1M@IKEENEDF@?$AAM?$AAa?$AAr?$AAc?$AAh?$AA?$AA@ 10048b78     LIBCMT:nlsdata.obj
 0002:00003b84       ??_C@_1M@GJNLMHFD@?$AAA?$AAp?$AAr?$AAi?$AAl?$AA?$AA@ 10048b84     LIBCMT:nlsdata.obj
 0002:00003b90       ??_C@_19EPFLPGAP@?$AAJ?$AAu?$AAn?$AAe?$AA?$AA@ 10048b90     LIBCMT:nlsdata.obj
 0002:00003b9c       ??_C@_19BIFMLPCD@?$AAJ?$AAu?$AAl?$AAy?$AA?$AA@ 10048b9c     LIBCMT:nlsdata.obj
 0002:00003ba8       ??_C@_1O@PAHLKOAC@?$AAA?$AAu?$AAg?$AAu?$AAs?$AAt?$AA?$AA@ 10048ba8     LIBCMT:nlsdata.obj
 0002:00003bb8       ??_C@_1BE@DKAAMBJL@?$AAS?$AAe?$AAp?$AAt?$AAe?$AAm?$AAb?$AAe?$AAr?$AA?$AA@ 10048bb8     LIBCMT:nlsdata.obj
 0002:00003bcc       ??_C@_1BA@EPANDLNG@?$AAO?$AAc?$AAt?$AAo?$AAb?$AAe?$AAr?$AA?$AA@ 10048bcc     LIBCMT:nlsdata.obj
 0002:00003bdc       ??_C@_1BC@BGLIFPF@?$AAN?$AAo?$AAv?$AAe?$AAm?$AAb?$AAe?$AAr?$AA?$AA@ 10048bdc     LIBCMT:nlsdata.obj
 0002:00003bf0       ??_C@_1BC@FEMKIFH@?$AAD?$AAe?$AAc?$AAe?$AAm?$AAb?$AAe?$AAr?$AA?$AA@ 10048bf0     LIBCMT:nlsdata.obj
 0002:00003c04       ??_C@_15ODEHAHHF@?$AAA?$AAM?$AA?$AA@ 10048c04     LIBCMT:nlsdata.obj
 0002:00003c0c       ??_C@_15CLMNNGEL@?$AAP?$AAM?$AA?$AA@ 10048c0c     LIBCMT:nlsdata.obj
 0002:00003c14       ??_C@_1BC@IEBCMHCM@?$AAM?$AAM?$AA?1?$AAd?$AAd?$AA?1?$AAy?$AAy?$AA?$AA@ 10048c14     LIBCMT:nlsdata.obj
 0002:00003c28       ??_C@_1CI@KNAKOEBC@?$AAd?$AAd?$AAd?$AAd?$AA?0?$AA?5?$AAM?$AAM?$AAM?$AAM?$AA?5?$AAd?$AAd?$AA?0?$AA?5?$AAy?$AAy?$AAy?$AAy?$AA?$AA@ 10048c28     LIBCMT:nlsdata.obj
 0002:00003c50       ??_C@_1BC@GDGBMEMK@?$AAH?$AAH?$AA?3?$AAm?$AAm?$AA?3?$AAs?$AAs?$AA?$AA@ 10048c50     LIBCMT:nlsdata.obj
 0002:00003c64       ??_C@_1M@BMHNFIME@?$AAe?$AAn?$AA?9?$AAU?$AAS?$AA?$AA@ 10048c64     LIBCMT:nlsdata.obj
 0002:00003c70       _LcidToLocaleNameTable     10048c70     LIBCMT:winapinls.obj
 0002:00004390       _LocaleNameToIndexTable    10049390     LIBCMT:winapinls.obj
 0002:00004ab0       ??_C@_15EMKDOKLE@?$AAa?$AAr?$AA?$AA@ 10049ab0     LIBCMT:winapinls.obj
 0002:00004ab8       ??_C@_15KNPADPLH@?$AAb?$AAg?$AA?$AA@ 10049ab8     LIBCMT:winapinls.obj
 0002:00004ac0       ??_C@_15EDMHLDMO@?$AAc?$AAa?$AA?$AA@ 10049ac0     LIBCMT:winapinls.obj
 0002:00004ac8       ??_C@_1O@BPEAJADD@?$AAz?$AAh?$AA?9?$AAC?$AAH?$AAS?$AA?$AA@ 10049ac8     LIBCMT:winapinls.obj
 0002:00004ad8       ??_C@_15LJNHCMNK@?$AAc?$AAs?$AA?$AA@ 10049ad8     LIBCMT:winapinls.obj
 0002:00004ae0       ??_C@_15FOMCIDHG@?$AAd?$AAa?$AA?$AA@ 10049ae0     LIBCMT:winapinls.obj
 0002:00004ae8       ??_C@_15NBKABECB@?$AAd?$AAe?$AA?$AA@ 10049ae8     LIBCMT:winapinls.obj
 0002:00004af0       ??_C@_15GHPEIIAO@?$AAe?$AAl?$AA?$AA@ 10049af0     LIBCMT:winapinls.obj
 0002:00004af8       ??_C@_15MNPNEAIF@?$AAe?$AAn?$AA?$AA@ 10049af8     LIBCMT:winapinls.obj
 0002:00004b00       ??_C@_15GPIOMPMH@?$AAe?$AAs?$AA?$AA@ 10049b00     LIBCMT:winapinls.obj
 0002:00004b08       ??_C@_15NGLOAKJC@?$AAf?$AAi?$AA?$AA@ 10049b08     LIBCMT:winapinls.obj
 0002:00004b10       ??_C@_15FBKGNKAM@?$AAf?$AAr?$AA?$AA@ 10049b10     LIBCMT:winapinls.obj
 0002:00004b18       ??_C@_15KGGCNEFK@?$AAh?$AAe?$AA?$AA@ 10049b18     LIBCMT:winapinls.obj
 0002:00004b20       ??_C@_15PGHLIDMF@?$AAh?$AAu?$AA?$AA@ 10049b20     LIBCMT:winapinls.obj
 0002:00004b28       ??_C@_15BIEMAPLM@?$AAi?$AAs?$AA?$AA@ 10049b28     LIBCMT:winapinls.obj
 0002:00004b30       ??_C@_15IFJLDHAF@?$AAi?$AAt?$AA?$AA@ 10049b30     LIBCMT:winapinls.obj
 0002:00004b38       ??_C@_15GEMIOCAG@?$AAj?$AAa?$AA?$AA@ 10049b38     LIBCMT:winapinls.obj
 0002:00004b40       ??_C@_15EPELEGJA@?$AAk?$AAo?$AA?$AA@ 10049b40     LIBCMT:winapinls.obj
 0002:00004b48       ??_C@_15NDDHIMN@?$AAn?$AAl?$AA?$AA@ 10049b48     LIBCMT:winapinls.obj
 0002:00004b50       ??_C@_15BPIGNHCD@?$AAn?$AAo?$AA?$AA@ 10049b50     LIBCMT:winapinls.obj
 0002:00004b58       ??_C@_15DEOPBLCG@?$AAp?$AAl?$AA?$AA@ 10049b58     LIBCMT:winapinls.obj
 0002:00004b60       ??_C@_15KBECGEFG@?$AAp?$AAt?$AA?$AA@ 10049b60     LIBCMT:winapinls.obj
 0002:00004b68       ??_C@_15GLJCBFMD@?$AAr?$AAo?$AA?$AA@ 10049b68     LIBCMT:winapinls.obj
 0002:00004b70       ??_C@_15FEDGKCDI@?$AAr?$AAu?$AA?$AA@ 10049b70     LIBCMT:winapinls.obj
 0002:00004b78       ??_C@_15GLKMLLHM@?$AAh?$AAr?$AA?$AA@ 10049b78     LIBCMT:winapinls.obj
 0002:00004b80       ??_C@_15CPKMFBDB@?$AAs?$AAk?$AA?$AA@ 10049b80     LIBCMT:winapinls.obj
 0002:00004b88       ??_C@_15BAAIOGMK@?$AAs?$AAq?$AA?$AA@ 10049b88     LIBCMT:winapinls.obj
 0002:00004b90       ??_C@_15INNPNOHD@?$AAs?$AAv?$AA?$AA@ 10049b90     LIBCMT:winapinls.obj
 0002:00004b98       ??_C@_15CABMMOGH@?$AAt?$AAh?$AA?$AA@ 10049b98     LIBCMT:winapinls.obj
 0002:00004ba0       ??_C@_15BPLIHJJM@?$AAt?$AAr?$AA?$AA@ 10049ba0     LIBCMT:winapinls.obj
 0002:00004ba8       ??_C@_15NEOEKKDJ@?$AAu?$AAr?$AA?$AA@ 10049ba8     LIBCMT:winapinls.obj
 0002:00004bb0       ??_C@_15NFICGAJK@?$AAi?$AAd?$AA?$AA@ 10049bb0     LIBCMT:winapinls.obj
 0002:00004bb8       ??_C@_15PJPFLCCM@?$AAu?$AAk?$AA?$AA@ 10049bb8     LIBCMT:winapinls.obj
 0002:00004bc0       ??_C@_15HPJPHDM@?$AAb?$AAe?$AA?$AA@ 10049bc0     LIBCMT:winapinls.obj
 0002:00004bc8       ??_C@_15LCHLGJII@?$AAs?$AAl?$AA?$AA@ 10049bc8     LIBCMT:winapinls.obj
 0002:00004bd0       ??_C@_15PCFJPHHO@?$AAe?$AAt?$AA?$AA@ 10049bd0     LIBCMT:winapinls.obj
 0002:00004bd8       ??_C@_15HPFPGODN@?$AAl?$AAv?$AA?$AA@ 10049bd8     LIBCMT:winapinls.obj
 0002:00004be0       ??_C@_15NFFGKGLG@?$AAl?$AAt?$AA?$AA@ 10049be0     LIBCMT:winapinls.obj
 0002:00004be8       ??_C@_15BDAKCCHN@?$AAf?$AAa?$AA?$AA@ 10049be8     LIBCMT:winapinls.obj
 0002:00004bf0       ??_C@_15NFGIAIAJ@?$AAv?$AAi?$AA?$AA@ 10049bf0     LIBCMT:winapinls.obj
 0002:00004bf8       ??_C@_15LMKNDMHN@?$AAh?$AAy?$AA?$AA@ 10049bf8     LIBCMT:winapinls.obj
 0002:00004c00       ??_C@_15IJBHMCFL@?$AAa?$AAz?$AA?$AA@ 10049c00     LIBCMT:winapinls.obj
 0002:00004c08       ??_C@_15EKOFJABL@?$AAe?$AAu?$AA?$AA@ 10049c08     LIBCMT:winapinls.obj
 0002:00004c10       ??_C@_15BGHADCNK@?$AAm?$AAk?$AA?$AA@ 10049c10     LIBCMT:winapinls.obj
 0002:00004c18       ??_C@_15JDNICKHM@?$AAa?$AAf?$AA?$AA@ 10049c18     LIBCMT:winapinls.obj
 0002:00004c20       ??_C@_15KPJEDBKD@?$AAk?$AAa?$AA?$AA@ 10049c20     LIBCMT:winapinls.obj
 0002:00004c28       ??_C@_15PDNFFFEO@?$AAf?$AAo?$AA?$AA@ 10049c28     LIBCMT:winapinls.obj
 0002:00004c30       ??_C@_15OMLEGLOC@?$AAh?$AAi?$AA?$AA@ 10049c30     LIBCMT:winapinls.obj
 0002:00004c38       ??_C@_15IDNNENKK@?$AAm?$AAs?$AA?$AA@ 10049c38     LIBCMT:winapinls.obj
 0002:00004c40       ??_C@_15MACJNBMH@?$AAk?$AAk?$AA?$AA@ 10049c40     LIBCMT:winapinls.obj
 0002:00004c48       ??_C@_15DKDJEOND@?$AAk?$AAy?$AA?$AA@ 10049c48     LIBCMT:winapinls.obj
 0002:00004c50       ??_C@_15DFGDLJBG@?$AAs?$AAw?$AA?$AA@ 10049c50     LIBCMT:winapinls.obj
 0002:00004c58       ??_C@_15BBFAICNG@?$AAu?$AAz?$AA?$AA@ 10049c58     LIBCMT:winapinls.obj
 0002:00004c60       ??_C@_15DKNDCGEA@?$AAt?$AAt?$AA?$AA@ 10049c60     LIBCMT:winapinls.obj
 0002:00004c68       ??_C@_15MGIFMDPL@?$AAp?$AAa?$AA?$AA@ 10049c68     LIBCMT:winapinls.obj
 0002:00004c70       ??_C@_15HCNDBBA@?$AAg?$AAu?$AA?$AA@ 10049c70     LIBCMT:winapinls.obj
 0002:00004c78       ??_C@_15FNBEIBON@?$AAt?$AAa?$AA?$AA@ 10049c78     LIBCMT:winapinls.obj
 0002:00004c80       ??_C@_15NCHGBGLK@?$AAt?$AAe?$AA?$AA@ 10049c80     LIBCMT:winapinls.obj
 0002:00004c88       ??_C@_15PHPHCBPF@?$AAk?$AAn?$AA?$AA@ 10049c88     LIBCMT:winapinls.obj
 0002:00004c90       ??_C@_15DLGBCKMP@?$AAm?$AAr?$AA?$AA@ 10049c90     LIBCMT:winapinls.obj
 0002:00004c98       ??_C@_15EABBLBFF@?$AAs?$AAa?$AA?$AA@ 10049c98     LIBCMT:winapinls.obj
 0002:00004ca0       ??_C@_15CBKOMCOI@?$AAm?$AAn?$AA?$AA@ 10049ca0     LIBCMT:winapinls.obj
 0002:00004ca8       ??_C@_15CKDMCJAF@?$AAg?$AAl?$AA?$AA@ 10049ca8     LIBCMT:winapinls.obj
 0002:00004cb0       ??_C@_17CNJFBPG@?$AAk?$AAo?$AAk?$AA?$AA@ 10049cb0     LIBCMT:winapinls.obj
 0002:00004cb8       ??_C@_17FFBJICPL@?$AAs?$AAy?$AAr?$AA?$AA@ 10049cb8     LIBCMT:winapinls.obj
 0002:00004cc0       ??_C@_17KPNDCPAF@?$AAd?$AAi?$AAv?$AA?$AA@ 10049cc0     LIBCMT:winapinls.obj
 0002:00004cc8       ??_C@_11LOCGONAA@?$AA?$AA@ 10049cc8     LIBCMT:winapinls.obj
 0002:00004ccc       ??_C@_1M@OKAHONE@?$AAa?$AAr?$AA?9?$AAS?$AAA?$AA?$AA@ 10049ccc     LIBCMT:winapinls.obj
 0002:00004cd8       ??_C@_1M@FFFIGIGK@?$AAb?$AAg?$AA?9?$AAB?$AAG?$AA?$AA@ 10049cd8     LIBCMT:winapinls.obj
 0002:00004ce4       ??_C@_1M@BJNKEDC@?$AAc?$AAa?$AA?9?$AAE?$AAS?$AA?$AA@ 10049ce4     LIBCMT:winapinls.obj
 0002:00004cf0       ??_C@_1M@IJJHFJHA@?$AAc?$AAs?$AA?9?$AAC?$AAZ?$AA?$AA@ 10049cf0     LIBCMT:winapinls.obj
 0002:00004cfc       ??_C@_1M@CLPEOBGI@?$AAd?$AAa?$AA?9?$AAD?$AAK?$AA?$AA@ 10049cfc     LIBCMT:winapinls.obj
 0002:00004d08       ??_C@_1M@MCMADGCB@?$AAd?$AAe?$AA?9?$AAD?$AAE?$AA?$AA@ 10049d08     LIBCMT:winapinls.obj
 0002:00004d14       ??_C@_1M@OOCKEMAM@?$AAe?$AAl?$AA?9?$AAG?$AAR?$AA?$AA@ 10049d14     LIBCMT:winapinls.obj
 0002:00004d20       ??_C@_1M@DDNJFGID@?$AAf?$AAi?$AA?9?$AAF?$AAI?$AA?$AA@ 10049d20     LIBCMT:winapinls.obj
 0002:00004d2c       ??_C@_1M@GLIPPMAC@?$AAf?$AAr?$AA?9?$AAF?$AAR?$AA?$AA@ 10049d2c     LIBCMT:winapinls.obj
 0002:00004d38       ??_C@_1M@GFMCHPE@?$AAh?$AAe?$AA?9?$AAI?$AAL?$AA?$AA@ 10049d38     LIBCMT:winapinls.obj
 0002:00004d44       ??_C@_1M@MHLPGNKM@?$AAh?$AAu?$AA?9?$AAH?$AAU?$AA?$AA@ 10049d44     LIBCMT:winapinls.obj
 0002:00004d50       ??_C@_1M@LPDDNNPN@?$AAi?$AAs?$AA?9?$AAI?$AAS?$AA?$AA@ 10049d50     LIBCMT:winapinls.obj
 0002:00004d5c       ??_C@_1M@MADIPODN@?$AAi?$AAt?$AA?9?$AAI?$AAT?$AA?$AA@ 10049d5c     LIBCMT:winapinls.obj
 0002:00004d68       ??_C@_1M@IHBJJGG@?$AAn?$AAl?$AA?9?$AAN?$AAL?$AA?$AA@ 10049d68     LIBCMT:winapinls.obj
 0002:00004d74       ??_C@_1M@EANAGDL@?$AAn?$AAb?$AA?9?$AAN?$AAO?$AA?$AA@ 10049d74     LIBCMT:winapinls.obj
 0002:00004d80       ??_C@_1M@NEIEMEGP@?$AAp?$AAl?$AA?9?$AAP?$AAL?$AA?$AA@ 10049d80     LIBCMT:winapinls.obj
 0002:00004d8c       ??_C@_1M@BOCFIGEP@?$AAp?$AAt?$AA?9?$AAB?$AAR?$AA?$AA@ 10049d8c     LIBCMT:winapinls.obj
 0002:00004d98       ??_C@_1M@IMPFOPBG@?$AAr?$AAo?$AA?9?$AAR?$AAO?$AA?$AA@ 10049d98     LIBCMT:winapinls.obj
 0002:00004da4       ??_C@_1M@IDNNEJMM@?$AAr?$AAu?$AA?9?$AAR?$AAU?$AA?$AA@ 10049da4     LIBCMT:winapinls.obj
 0002:00004db0       ??_C@_1M@LILEEOGM@?$AAh?$AAr?$AA?9?$AAH?$AAR?$AA?$AA@ 10049db0     LIBCMT:winapinls.obj
 0002:00004dbc       ??_C@_1M@FKIFEHPB@?$AAs?$AAk?$AA?9?$AAS?$AAK?$AA?$AA@ 10049dbc     LIBCMT:winapinls.obj
 0002:00004dc8       ??_C@_1M@LJMAMNPJ@?$AAs?$AAq?$AA?9?$AAA?$AAL?$AA?$AA@ 10049dc8     LIBCMT:winapinls.obj
 0002:00004dd4       ??_C@_1M@GIAKDKJK@?$AAs?$AAv?$AA?9?$AAS?$AAE?$AA?$AA@ 10049dd4     LIBCMT:winapinls.obj
 0002:00004de0       ??_C@_1M@MKJKIKCL@?$AAt?$AAh?$AA?9?$AAT?$AAH?$AA?$AA@ 10049de0     LIBCMT:winapinls.obj
 0002:00004dec       ??_C@_1M@MFLCCMPB@?$AAt?$AAr?$AA?9?$AAT?$AAR?$AA?$AA@ 10049dec     LIBCMT:winapinls.obj
 0002:00004df8       ??_C@_1M@OIJHDKJN@?$AAu?$AAr?$AA?9?$AAP?$AAK?$AA?$AA@ 10049df8     LIBCMT:winapinls.obj
 0002:00004e04       ??_C@_1M@LHIPCIEK@?$AAi?$AAd?$AA?9?$AAI?$AAD?$AA?$AA@ 10049e04     LIBCMT:winapinls.obj
 0002:00004e10       ??_C@_1M@MFMOBGI@?$AAu?$AAk?$AA?9?$AAU?$AAA?$AA?$AA@ 10049e10     LIBCMT:winapinls.obj
 0002:00004e1c       ??_C@_1M@OBGLJIPL@?$AAb?$AAe?$AA?9?$AAB?$AAY?$AA?$AA@ 10049e1c     LIBCMT:winapinls.obj
 0002:00004e28       ??_C@_1M@BCFAJEAD@?$AAs?$AAl?$AA?9?$AAS?$AAI?$AA?$AA@ 10049e28     LIBCMT:winapinls.obj
 0002:00004e34       ??_C@_1M@FKFFEDDN@?$AAe?$AAt?$AA?9?$AAE?$AAE?$AA?$AA@ 10049e34     LIBCMT:winapinls.obj
 0002:00004e40       ??_C@_1M@KGKKAACI@?$AAl?$AAv?$AA?9?$AAL?$AAV?$AA?$AA@ 10049e40     LIBCMT:winapinls.obj
 0002:00004e4c       ??_C@_1M@IFGBIJO@?$AAl?$AAt?$AA?9?$AAL?$AAT?$AA?$AA@ 10049e4c     LIBCMT:winapinls.obj
 0002:00004e58       ??_C@_1M@FGEAHEDM@?$AAf?$AAa?$AA?9?$AAI?$AAR?$AA?$AA@ 10049e58     LIBCMT:winapinls.obj
 0002:00004e64       ??_C@_1M@KBMAIBFN@?$AAv?$AAi?$AA?9?$AAV?$AAN?$AA?$AA@ 10049e64     LIBCMT:winapinls.obj
 0002:00004e70       ??_C@_1M@GPCBKDJK@?$AAh?$AAy?$AA?9?$AAA?$AAM?$AA?$AA@ 10049e70     LIBCMT:winapinls.obj
 0002:00004e7c       ??_C@_1BG@BECMDDJB@?$AAa?$AAz?$AA?9?$AAA?$AAZ?$AA?9?$AAL?$AAa?$AAt?$AAn?$AA?$AA@ 10049e7c     LIBCMT:winapinls.obj
 0002:00004e94       ??_C@_1M@MAOFCAEA@?$AAe?$AAu?$AA?9?$AAE?$AAS?$AA?$AA@ 10049e94     LIBCMT:winapinls.obj
 0002:00004ea0       ??_C@_1M@IGHABKPI@?$AAm?$AAk?$AA?9?$AAM?$AAK?$AA?$AA@ 10049ea0     LIBCMT:winapinls.obj
 0002:00004eac       ??_C@_1M@IAIGNEJG@?$AAt?$AAn?$AA?9?$AAZ?$AAA?$AA?$AA@ 10049eac     LIBCMT:winapinls.obj
 0002:00004eb8       ??_C@_1M@IIJCOJFA@?$AAx?$AAh?$AA?9?$AAZ?$AAA?$AA?$AA@ 10049eb8     LIBCMT:winapinls.obj
 0002:00004ec4       ??_C@_1M@LGPJHNJH@?$AAz?$AAu?$AA?9?$AAZ?$AAA?$AA?$AA@ 10049ec4     LIBCMT:winapinls.obj
 0002:00004ed0       ??_C@_1M@HOKAOIO@?$AAa?$AAf?$AA?9?$AAZ?$AAA?$AA?$AA@ 10049ed0     LIBCMT:winapinls.obj
 0002:00004edc       ??_C@_1M@DPCLHLIE@?$AAk?$AAa?$AA?9?$AAG?$AAE?$AA?$AA@ 10049edc     LIBCMT:winapinls.obj
 0002:00004ee8       ??_C@_1M@BLKMHJBI@?$AAf?$AAo?$AA?9?$AAF?$AAO?$AA?$AA@ 10049ee8     LIBCMT:winapinls.obj
 0002:00004ef4       ??_C@_1M@LGGJAPPB@?$AAh?$AAi?$AA?9?$AAI?$AAN?$AA?$AA@ 10049ef4     LIBCMT:winapinls.obj
 0002:00004f00       ??_C@_1M@FIKPIHFE@?$AAm?$AAt?$AA?9?$AAM?$AAT?$AA?$AA@ 10049f00     LIBCMT:winapinls.obj
 0002:00004f0c       ??_C@_1M@HEGGPBFA@?$AAs?$AAe?$AA?9?$AAN?$AAO?$AA?$AA@ 10049f0c     LIBCMT:winapinls.obj
 0002:00004f18       ??_C@_1M@EIBJEEPA@?$AAm?$AAs?$AA?9?$AAM?$AAY?$AA?$AA@ 10049f18     LIBCMT:winapinls.obj
 0002:00004f24       ??_C@_1M@FHLBGMPP@?$AAk?$AAk?$AA?9?$AAK?$AAZ?$AA?$AA@ 10049f24     LIBCMT:winapinls.obj
 0002:00004f30       ??_C@_1M@NGJJLCGI@?$AAk?$AAy?$AA?9?$AAK?$AAG?$AA?$AA@ 10049f30     LIBCMT:winapinls.obj
 0002:00004f3c       ??_C@_1M@GIENNBFC@?$AAs?$AAw?$AA?9?$AAK?$AAE?$AA?$AA@ 10049f3c     LIBCMT:winapinls.obj
 0002:00004f48       ??_C@_1BG@NDGMJIMJ@?$AAu?$AAz?$AA?9?$AAU?$AAZ?$AA?9?$AAL?$AAa?$AAt?$AAn?$AA?$AA@ 10049f48     LIBCMT:winapinls.obj
 0002:00004f60       ??_C@_1M@IDCCIHBC@?$AAt?$AAt?$AA?9?$AAR?$AAU?$AA?$AA@ 10049f60     LIBCMT:winapinls.obj
 0002:00004f6c       ??_C@_1M@LOICPMOJ@?$AAb?$AAn?$AA?9?$AAI?$AAN?$AA?$AA@ 10049f6c     LIBCMT:winapinls.obj
 0002:00004f78       ??_C@_1M@KPKKNEAH@?$AAp?$AAa?$AA?9?$AAI?$AAN?$AA?$AA@ 10049f78     LIBCMT:winapinls.obj
 0002:00004f84       ??_C@_1M@PJGPPBOG@?$AAg?$AAu?$AA?9?$AAI?$AAN?$AA?$AA@ 10049f84     LIBCMT:winapinls.obj
 0002:00004f90       ??_C@_1M@KMKMOPHI@?$AAt?$AAa?$AA?9?$AAI?$AAN?$AA?$AA@ 10049f90     LIBCMT:winapinls.obj
 0002:00004f9c       ??_C@_1M@KFEHEPAC@?$AAt?$AAe?$AA?9?$AAI?$AAN?$AA?$AA@ 10049f9c     LIBCMT:winapinls.obj
 0002:00004fa8       ??_C@_1M@CDCLMGHI@?$AAk?$AAn?$AA?9?$AAI?$AAN?$AA?$AA@ 10049fa8     LIBCMT:winapinls.obj
 0002:00004fb4       ??_C@_1M@MIODLDKF@?$AAm?$AAl?$AA?9?$AAI?$AAN?$AA?$AA@ 10049fb4     LIBCMT:winapinls.obj
 0002:00004fc0       ??_C@_1M@PBIEACPO@?$AAm?$AAr?$AA?9?$AAI?$AAN?$AA?$AA@ 10049fc0     LIBCMT:winapinls.obj
 0002:00004fcc       ??_C@_1M@NIDEAGPH@?$AAs?$AAa?$AA?9?$AAI?$AAN?$AA?$AA@ 10049fcc     LIBCMT:winapinls.obj
 0002:00004fd8       ??_C@_1M@FHIHCBIO@?$AAm?$AAn?$AA?9?$AAM?$AAN?$AA?$AA@ 10049fd8     LIBCMT:winapinls.obj
 0002:00004fe4       ??_C@_1M@JAIJPENP@?$AAc?$AAy?$AA?9?$AAG?$AAB?$AA?$AA@ 10049fe4     LIBCMT:winapinls.obj
 0002:00004ff0       ??_C@_1M@PHGFBEPN@?$AAg?$AAl?$AA?9?$AAE?$AAS?$AA?$AA@ 10049ff0     LIBCMT:winapinls.obj
 0002:00004ffc       ??_C@_1O@KPIPDNCP@?$AAk?$AAo?$AAk?$AA?9?$AAI?$AAN?$AA?$AA@ 10049ffc     LIBCMT:winapinls.obj
 0002:0000500c       ??_C@_1O@KNHJLDJA@?$AAs?$AAy?$AAr?$AA?9?$AAS?$AAY?$AA?$AA@ 1004a00c     LIBCMT:winapinls.obj
 0002:0000501c       ??_C@_1O@MKEKBLAH@?$AAd?$AAi?$AAv?$AA?9?$AAM?$AAV?$AA?$AA@ 1004a01c     LIBCMT:winapinls.obj
 0002:0000502c       ??_C@_1O@OHDCKDDF@?$AAq?$AAu?$AAz?$AA?9?$AAB?$AAO?$AA?$AA@ 1004a02c     LIBCMT:winapinls.obj
 0002:0000503c       ??_C@_1M@LEPJNLFD@?$AAn?$AAs?$AA?9?$AAZ?$AAA?$AA?$AA@ 1004a03c     LIBCMT:winapinls.obj
 0002:00005048       ??_C@_1M@OMLEIIJB@?$AAm?$AAi?$AA?9?$AAN?$AAZ?$AA?$AA@ 1004a048     LIBCMT:winapinls.obj
 0002:00005054       ??_C@_1M@PMPEAILG@?$AAa?$AAr?$AA?9?$AAI?$AAQ?$AA?$AA@ 1004a054     LIBCMT:winapinls.obj
 0002:00005060       ??_C@_1M@CNKPNOEE@?$AAd?$AAe?$AA?9?$AAC?$AAH?$AA?$AA@ 1004a060     LIBCMT:winapinls.obj
 0002:0000506c       ??_C@_1M@LKMGMLKO@?$AAe?$AAn?$AA?9?$AAG?$AAB?$AA?$AA@ 1004a06c     LIBCMT:winapinls.obj
 0002:00005078       ??_C@_1M@PGKJFFGL@?$AAe?$AAs?$AA?9?$AAM?$AAX?$AA?$AA@ 1004a078     LIBCMT:winapinls.obj
 0002:00005084       ??_C@_1M@DNNANBDC@?$AAf?$AAr?$AA?9?$AAB?$AAE?$AA?$AA@ 1004a084     LIBCMT:winapinls.obj
 0002:00005090       ??_C@_1M@HLGMDFHM@?$AAi?$AAt?$AA?9?$AAC?$AAH?$AA?$AA@ 1004a090     LIBCMT:winapinls.obj
 0002:0000509c       ??_C@_1M@CLLBGJH@?$AAn?$AAl?$AA?9?$AAB?$AAE?$AA?$AA@ 1004a09c     LIBCMT:winapinls.obj
 0002:000050a8       ??_C@_1M@BODBOGLF@?$AAn?$AAn?$AA?9?$AAN?$AAO?$AA?$AA@ 1004a0a8     LIBCMT:winapinls.obj
 0002:000050b4       ??_C@_1M@HFFAHKAD@?$AAp?$AAt?$AA?9?$AAP?$AAT?$AA?$AA@ 1004a0b4     LIBCMT:winapinls.obj
 0002:000050c0       ??_C@_1BG@LNOAKHIE@?$AAs?$AAr?$AA?9?$AAS?$AAP?$AA?9?$AAL?$AAa?$AAt?$AAn?$AA?$AA@ 1004a0c0     LIBCMT:winapinls.obj
 0002:000050d8       ??_C@_1M@HBMHBGAK@?$AAs?$AAv?$AA?9?$AAF?$AAI?$AA?$AA@ 1004a0d8     LIBCMT:winapinls.obj
 0002:000050e4       ??_C@_1BG@DGCJGJBE@?$AAa?$AAz?$AA?9?$AAA?$AAZ?$AA?9?$AAC?$AAy?$AAr?$AAl?$AA?$AA@ 1004a0e4     LIBCMT:winapinls.obj
 0002:000050fc       ??_C@_1M@KEJDAAHB@?$AAs?$AAe?$AA?9?$AAS?$AAE?$AA?$AA@ 1004a0fc     LIBCMT:winapinls.obj
 0002:00005108       ??_C@_1M@HEIBJJAD@?$AAm?$AAs?$AA?9?$AAB?$AAN?$AA?$AA@ 1004a108     LIBCMT:winapinls.obj
 0002:00005114       ??_C@_1BG@PBGJMCEM@?$AAu?$AAz?$AA?9?$AAU?$AAZ?$AA?9?$AAC?$AAy?$AAr?$AAl?$AA?$AA@ 1004a114     LIBCMT:winapinls.obj
 0002:0000512c       ??_C@_1O@LAOBCMDF@?$AAq?$AAu?$AAz?$AA?9?$AAE?$AAC?$AA?$AA@ 1004a12c     LIBCMT:winapinls.obj
 0002:0000513c       ??_C@_1M@POEEMAIO@?$AAa?$AAr?$AA?9?$AAE?$AAG?$AA?$AA@ 1004a13c     LIBCMT:winapinls.obj
 0002:00005148       ??_C@_1M@EFAKDEDL@?$AAz?$AAh?$AA?9?$AAH?$AAK?$AA?$AA@ 1004a148     LIBCMT:winapinls.obj
 0002:00005154       ??_C@_1M@HKKIJHGI@?$AAd?$AAe?$AA?9?$AAA?$AAT?$AA?$AA@ 1004a154     LIBCMT:winapinls.obj
 0002:00005160       ??_C@_1M@KBFBEHJF@?$AAe?$AAn?$AA?9?$AAA?$AAU?$AA?$AA@ 1004a160     LIBCMT:winapinls.obj
 0002:0000516c       ??_C@_1M@MNPLFAAH@?$AAe?$AAs?$AA?9?$AAE?$AAS?$AA?$AA@ 1004a16c     LIBCMT:winapinls.obj
 0002:00005178       ??_C@_1M@HJOOJFMA@?$AAf?$AAr?$AA?9?$AAC?$AAA?$AA?$AA@ 1004a178     LIBCMT:winapinls.obj
 0002:00005184       ??_C@_1BG@JPOFPNAB@?$AAs?$AAr?$AA?9?$AAS?$AAP?$AA?9?$AAC?$AAy?$AAr?$AAl?$AA?$AA@ 1004a184     LIBCMT:winapinls.obj
 0002:0000519c       ??_C@_1M@LNFOCMOB@?$AAs?$AAe?$AA?9?$AAF?$AAI?$AA?$AA@ 1004a19c     LIBCMT:winapinls.obj
 0002:000051a8       ??_C@_1O@MGJBOAMB@?$AAq?$AAu?$AAz?$AA?9?$AAP?$AAE?$AA?$AA@ 1004a1a8     LIBCMT:winapinls.obj
 0002:000051b8       ??_C@_1M@GJINLBOK@?$AAa?$AAr?$AA?9?$AAL?$AAY?$AA?$AA@ 1004a1b8     LIBCMT:winapinls.obj
 0002:000051c4       ??_C@_1M@GGMNHJNL@?$AAz?$AAh?$AA?9?$AAS?$AAG?$AA?$AA@ 1004a1c4     LIBCMT:winapinls.obj
 0002:000051d0       ??_C@_1M@HOIKODND@?$AAd?$AAe?$AA?9?$AAL?$AAU?$AA?$AA@ 1004a1d0     LIBCMT:winapinls.obj
 0002:000051dc       ??_C@_1M@DDOCCGFG@?$AAe?$AAn?$AA?9?$AAC?$AAA?$AA?$AA@ 1004a1dc     LIBCMT:winapinls.obj
 0002:000051e8       ??_C@_1M@BNOEMJLF@?$AAe?$AAs?$AA?9?$AAG?$AAT?$AA?$AA@ 1004a1e8     LIBCMT:winapinls.obj
 0002:000051f4       ??_C@_1M@EOGNKEK@?$AAf?$AAr?$AA?9?$AAC?$AAH?$AA?$AA@ 1004a1f4     LIBCMT:winapinls.obj
 0002:00005200       ??_C@_1M@FLIDJFHL@?$AAh?$AAr?$AA?9?$AAB?$AAA?$AA?$AA@ 1004a200     LIBCMT:winapinls.obj
 0002:0000520c       ??_C@_1O@FMCELNAJ@?$AAs?$AAm?$AAj?$AA?9?$AAN?$AAO?$AA?$AA@ 1004a20c     LIBCMT:winapinls.obj
 0002:0000521c       ??_C@_1M@JHGLJMGJ@?$AAa?$AAr?$AA?9?$AAD?$AAZ?$AA?$AA@ 1004a21c     LIBCMT:winapinls.obj
 0002:00005228       ??_C@_1M@JKKFDCNP@?$AAz?$AAh?$AA?9?$AAM?$AAO?$AA?$AA@ 1004a228     LIBCMT:winapinls.obj
 0002:00005234       ??_C@_1M@GEEFALPE@?$AAd?$AAe?$AA?9?$AAL?$AAI?$AA?$AA@ 1004a234     LIBCMT:winapinls.obj
 0002:00005240       ??_C@_1M@IGEOFBG@?$AAe?$AAn?$AA?9?$AAN?$AAZ?$AA?$AA@ 1004a240     LIBCMT:winapinls.obj
 0002:0000524c       ??_C@_1M@KDBONEHP@?$AAe?$AAs?$AA?9?$AAC?$AAR?$AA?$AA@ 1004a24c     LIBCMT:winapinls.obj
 0002:00005258       ??_C@_1M@FHMDOHNN@?$AAf?$AAr?$AA?9?$AAL?$AAU?$AA?$AA@ 1004a258     LIBCMT:winapinls.obj
 0002:00005264       ??_C@_1BG@NFKKMAFG@?$AAb?$AAs?$AA?9?$AAB?$AAA?$AA?9?$AAL?$AAa?$AAt?$AAn?$AA?$AA@ 1004a264     LIBCMT:winapinls.obj
 0002:0000527c       ??_C@_1O@IMNBEMCI@?$AAs?$AAm?$AAj?$AA?9?$AAS?$AAE?$AA?$AA@ 1004a27c     LIBCMT:winapinls.obj
 0002:0000528c       ??_C@_1M@DHHMBNDP@?$AAa?$AAr?$AA?9?$AAM?$AAA?$AA?$AA@ 1004a28c     LIBCMT:winapinls.obj
 0002:00005298       ??_C@_1M@BNBLJCGH@?$AAe?$AAn?$AA?9?$AAI?$AAE?$AA?$AA@ 1004a298     LIBCMT:winapinls.obj
 0002:000052a4       ??_C@_1M@GEPAFMDL@?$AAe?$AAs?$AA?9?$AAP?$AAA?$AA?$AA@ 1004a2a4     LIBCMT:winapinls.obj
 0002:000052b0       ??_C@_1M@OJONDMDL@?$AAf?$AAr?$AA?9?$AAM?$AAC?$AA?$AA@ 1004a2b0     LIBCMT:winapinls.obj
 0002:000052bc       ??_C@_1BG@OBCNFJB@?$AAs?$AAr?$AA?9?$AAB?$AAA?$AA?9?$AAL?$AAa?$AAt?$AAn?$AA?$AA@ 1004a2bc     LIBCMT:winapinls.obj
 0002:000052d4       ??_C@_1O@KEMEEGPO@?$AAs?$AAm?$AAa?$AA?9?$AAN?$AAO?$AA?$AA@ 1004a2d4     LIBCMT:winapinls.obj
 0002:000052e4       ??_C@_1M@ELMGFODK@?$AAa?$AAr?$AA?9?$AAT?$AAN?$AA?$AA@ 1004a2e4     LIBCMT:winapinls.obj
 0002:000052f0       ??_C@_1M@BHDLHFAF@?$AAe?$AAn?$AA?9?$AAZ?$AAA?$AA?$AA@ 1004a2f0     LIBCMT:winapinls.obj
 0002:000052fc       ??_C@_1M@BMGIGLIF@?$AAe?$AAs?$AA?9?$AAD?$AAO?$AA?$AA@ 1004a2fc     LIBCMT:winapinls.obj
 0002:00005308       ??_C@_1BG@CMBHIPBE@?$AAs?$AAr?$AA?9?$AAB?$AAA?$AA?9?$AAC?$AAy?$AAr?$AAl?$AA?$AA@ 1004a308     LIBCMT:winapinls.obj
 0002:00005320       ??_C@_1O@HEDBLHNP@?$AAs?$AAm?$AAa?$AA?9?$AAS?$AAE?$AA?$AA@ 1004a320     LIBCMT:winapinls.obj
 0002:00005330       ??_C@_1M@DAGCADIM@?$AAa?$AAr?$AA?9?$AAO?$AAM?$AA?$AA@ 1004a330     LIBCMT:winapinls.obj
 0002:0000533c       ??_C@_1M@FODLMICG@?$AAe?$AAn?$AA?9?$AAJ?$AAM?$AA?$AA@ 1004a33c     LIBCMT:winapinls.obj
 0002:00005348       ??_C@_1M@DNMLCIHB@?$AAe?$AAs?$AA?9?$AAV?$AAE?$AA?$AA@ 1004a348     LIBCMT:winapinls.obj
 0002:00005354       ??_C@_1O@EOKHMKJK@?$AAs?$AAm?$AAs?$AA?9?$AAF?$AAI?$AA?$AA@ 1004a354     LIBCMT:winapinls.obj
 0002:00005364       ??_C@_1M@CAFJMKOF@?$AAa?$AAr?$AA?9?$AAY?$AAE?$AA?$AA@ 1004a364     LIBCMT:winapinls.obj
 0002:00005370       ??_C@_1M@CBFHIJLI@?$AAe?$AAn?$AA?9?$AAC?$AAB?$AA?$AA@ 1004a370     LIBCMT:winapinls.obj
 0002:0000537c       ??_C@_1M@BGNFLDN@?$AAe?$AAs?$AA?9?$AAC?$AAO?$AA?$AA@ 1004a37c     LIBCMT:winapinls.obj
 0002:00005388       ??_C@_1O@JMPHMAMC@?$AAs?$AAm?$AAn?$AA?9?$AAF?$AAI?$AA?$AA@ 1004a388     LIBCMT:winapinls.obj
 0002:00005398       ??_C@_1M@JLANABKE@?$AAa?$AAr?$AA?9?$AAS?$AAY?$AA?$AA@ 1004a398     LIBCMT:winapinls.obj
 0002:000053a4       ??_C@_1M@HPKGCFGN@?$AAe?$AAn?$AA?9?$AAB?$AAZ?$AA?$AA@ 1004a3a4     LIBCMT:winapinls.obj
 0002:000053b0       ??_C@_1M@OLJCMLGM@?$AAe?$AAs?$AA?9?$AAP?$AAE?$AA?$AA@ 1004a3b0     LIBCMT:winapinls.obj
 0002:000053bc       ??_C@_1M@MKKGFKLE@?$AAa?$AAr?$AA?9?$AAJ?$AAO?$AA?$AA@ 1004a3bc     LIBCMT:winapinls.obj
 0002:000053c8       ??_C@_1M@EKPGLDNI@?$AAe?$AAn?$AA?9?$AAT?$AAT?$AA?$AA@ 1004a3c8     LIBCMT:winapinls.obj
 0002:000053d4       ??_C@_1M@OONGHFHE@?$AAe?$AAs?$AA?9?$AAA?$AAR?$AA?$AA@ 1004a3d4     LIBCMT:winapinls.obj
 0002:000053e0       ??_C@_1M@OOJFGBHE@?$AAa?$AAr?$AA?9?$AAL?$AAB?$AA?$AA@ 1004a3e0     LIBCMT:winapinls.obj
 0002:000053ec       ??_C@_1M@GCEJHNEG@?$AAe?$AAn?$AA?9?$AAZ?$AAW?$AA?$AA@ 1004a3ec     LIBCMT:winapinls.obj
 0002:000053f8       ??_C@_1M@JNOCAHJI@?$AAe?$AAs?$AA?9?$AAE?$AAC?$AA?$AA@ 1004a3f8     LIBCMT:winapinls.obj
 0002:00005404       ??_C@_1M@JEFHPGGB@?$AAa?$AAr?$AA?9?$AAK?$AAW?$AA?$AA@ 1004a404     LIBCMT:winapinls.obj
 0002:00005410       ??_C@_1M@MLKIBJOJ@?$AAe?$AAn?$AA?9?$AAP?$AAH?$AA?$AA@ 1004a410     LIBCMT:winapinls.obj
 0002:0000541c       ??_C@_1M@BDNIPEND@?$AAe?$AAs?$AA?9?$AAC?$AAL?$AA?$AA@ 1004a41c     LIBCMT:winapinls.obj
 0002:00005428       ??_C@_1M@MPNMEKBD@?$AAa?$AAr?$AA?9?$AAA?$AAE?$AA?$AA@ 1004a428     LIBCMT:winapinls.obj
 0002:00005434       ??_C@_1M@KBJALCPI@?$AAe?$AAs?$AA?9?$AAU?$AAY?$AA?$AA@ 1004a434     LIBCMT:winapinls.obj
 0002:00005440       ??_C@_1M@LLCCOAGA@?$AAa?$AAr?$AA?9?$AAB?$AAH?$AA?$AA@ 1004a440     LIBCMT:winapinls.obj
 0002:0000544c       ??_C@_1M@PBFNCDEL@?$AAe?$AAs?$AA?9?$AAP?$AAY?$AA?$AA@ 1004a44c     LIBCMT:winapinls.obj
 0002:00005458       ??_C@_1M@EDGINPNP@?$AAa?$AAr?$AA?9?$AAQ?$AAA?$AA?$AA@ 1004a458     LIBCMT:winapinls.obj
 0002:00005464       ??_C@_1M@MKDBIIJI@?$AAe?$AAs?$AA?9?$AAB?$AAO?$AA?$AA@ 1004a464     LIBCMT:winapinls.obj
 0002:00005470       ??_C@_1M@CPKKEBLD@?$AAe?$AAs?$AA?9?$AAS?$AAV?$AA?$AA@ 1004a470     LIBCMT:winapinls.obj
 0002:0000547c       ??_C@_1M@NDBGMMJL@?$AAe?$AAs?$AA?9?$AAH?$AAN?$AA?$AA@ 1004a47c     LIBCMT:winapinls.obj
 0002:00005488       ??_C@_1M@JIJIBHDP@?$AAe?$AAs?$AA?9?$AAN?$AAI?$AA?$AA@ 1004a488     LIBCMT:winapinls.obj
 0002:00005494       ??_C@_1M@CGFMKEEK@?$AAe?$AAs?$AA?9?$AAP?$AAR?$AA?$AA@ 1004a494     LIBCMT:winapinls.obj
 0002:000054a0       ??_C@_1O@ICJHKIIK@?$AAz?$AAh?$AA?9?$AAC?$AAH?$AAT?$AA?$AA@ 1004a4a0     LIBCMT:winapinls.obj
 0002:000054b0       ??_C@_15CLNEJCE@?$AAs?$AAr?$AA?$AA@ 1004a4b0     LIBCMT:winapinls.obj
 0002:000054b8       ??_C@_1M@KAHEKEIG@?$AAa?$AAf?$AA?9?$AAz?$AAa?$AA?$AA@ 1004a4b8     LIBCMT:winapinls.obj
 0002:000054c4       ??_C@_1M@GIECOABL@?$AAa?$AAr?$AA?9?$AAa?$AAe?$AA?$AA@ 1004a4c4     LIBCMT:winapinls.obj
 0002:000054d0       ??_C@_1M@BMLMEKGI@?$AAa?$AAr?$AA?9?$AAb?$AAh?$AA?$AA@ 1004a4d0     LIBCMT:winapinls.obj
 0002:000054dc       ??_C@_1M@DAPFDGGB@?$AAa?$AAr?$AA?9?$AAd?$AAz?$AA?$AA@ 1004a4dc     LIBCMT:winapinls.obj
 0002:000054e8       ??_C@_1M@FJNKGKIG@?$AAa?$AAr?$AA?9?$AAe?$AAg?$AA?$AA@ 1004a4e8     LIBCMT:winapinls.obj
 0002:000054f4       ??_C@_1M@FLGKKCLO@?$AAa?$AAr?$AA?9?$AAi?$AAq?$AA?$AA@ 1004a4f4     LIBCMT:winapinls.obj
 0002:00005500       ??_C@_1M@GNDIPALM@?$AAa?$AAr?$AA?9?$AAj?$AAo?$AA?$AA@ 1004a500     LIBCMT:winapinls.obj
 0002:0000550c       ??_C@_1M@DDMJFMGJ@?$AAa?$AAr?$AA?9?$AAk?$AAw?$AA?$AA@ 1004a50c     LIBCMT:winapinls.obj
 0002:00005518       ??_C@_1M@EJALMLHM@?$AAa?$AAr?$AA?9?$AAl?$AAb?$AA?$AA@ 1004a518     LIBCMT:winapinls.obj
 0002:00005524       ??_C@_1M@MOBDBLOC@?$AAa?$AAr?$AA?9?$AAl?$AAy?$AA?$AA@ 1004a524     LIBCMT:winapinls.obj
 0002:00005530       ??_C@_1M@JAOCLHDH@?$AAa?$AAr?$AA?9?$AAm?$AAa?$AA?$AA@ 1004a530     LIBCMT:winapinls.obj
 0002:0000553c       ??_C@_1M@JHPMKJIE@?$AAa?$AAr?$AA?9?$AAo?$AAm?$AA?$AA@ 1004a53c     LIBCMT:winapinls.obj
 0002:00005548       ??_C@_1M@OEPGHFNH@?$AAa?$AAr?$AA?9?$AAq?$AAa?$AA?$AA@ 1004a548     LIBCMT:winapinls.obj
 0002:00005554       ??_C@_1M@KJDONENM@?$AAa?$AAr?$AA?9?$AAs?$AAa?$AA?$AA@ 1004a554     LIBCMT:winapinls.obj
 0002:00005560       ??_C@_1M@DMJDKLKM@?$AAa?$AAr?$AA?9?$AAs?$AAy?$AA?$AA@ 1004a560     LIBCMT:winapinls.obj
 0002:0000556c       ??_C@_1M@OMFIPEDC@?$AAa?$AAr?$AA?9?$AAt?$AAn?$AA?$AA@ 1004a56c     LIBCMT:winapinls.obj
 0002:00005578       ??_C@_1M@IHMHGAON@?$AAa?$AAr?$AA?9?$AAy?$AAe?$AA?$AA@ 1004a578     LIBCMT:winapinls.obj
 0002:00005584       ??_C@_1BG@KDCPGJGB@?$AAa?$AAz?$AA?9?$AAa?$AAz?$AA?9?$AAc?$AAy?$AAr?$AAl?$AA?$AA@ 1004a584     LIBCMT:winapinls.obj
 0002:0000559c       ??_C@_1BG@IBCKDDOE@?$AAa?$AAz?$AA?9?$AAa?$AAz?$AA?9?$AAl?$AAa?$AAt?$AAn?$AA?$AA@ 1004a59c     LIBCMT:winapinls.obj
 0002:000055b4       ??_C@_1M@EGPFDCPD@?$AAb?$AAe?$AA?9?$AAb?$AAy?$AA?$AA@ 1004a5b4     LIBCMT:winapinls.obj
 0002:000055c0       ??_C@_1M@PCMGMCGC@?$AAb?$AAg?$AA?9?$AAb?$AAg?$AA?$AA@ 1004a5c0     LIBCMT:winapinls.obj
 0002:000055cc       ??_C@_1M@BJBMFGOB@?$AAb?$AAn?$AA?9?$AAi?$AAn?$AA?$AA@ 1004a5cc     LIBCMT:winapinls.obj
 0002:000055d8       ??_C@_1BG@EAKMMACD@?$AAb?$AAs?$AA?9?$AAb?$AAa?$AA?9?$AAl?$AAa?$AAt?$AAn?$AA?$AA@ 1004a5d8     LIBCMT:winapinls.obj
 0002:000055f0       ??_C@_1M@KGADAODK@?$AAc?$AAa?$AA?9?$AAe?$AAs?$AA?$AA@ 1004a5f0     LIBCMT:winapinls.obj
 0002:000055fc       ??_C@_1M@COAJPDHI@?$AAc?$AAs?$AA?9?$AAc?$AAz?$AA?$AA@ 1004a5fc     LIBCMT:winapinls.obj
 0002:00005608       ??_C@_1M@DHBHFONH@?$AAc?$AAy?$AA?9?$AAg?$AAb?$AA?$AA@ 1004a608     LIBCMT:winapinls.obj
 0002:00005614       ??_C@_1M@IMGKELGA@?$AAd?$AAa?$AA?9?$AAd?$AAk?$AA?$AA@ 1004a614     LIBCMT:winapinls.obj
 0002:00005620       ??_C@_1M@NNDGDNGA@?$AAd?$AAe?$AA?9?$AAa?$AAt?$AA?$AA@ 1004a620     LIBCMT:winapinls.obj
 0002:0000562c       ??_C@_1M@IKDBHEEM@?$AAd?$AAe?$AA?9?$AAc?$AAh?$AA?$AA@ 1004a62c     LIBCMT:winapinls.obj
 0002:00005638       ??_C@_1M@GFFOJMCJ@?$AAd?$AAe?$AA?9?$AAd?$AAe?$AA?$AA@ 1004a638     LIBCMT:winapinls.obj
 0002:00005644       ??_C@_1M@MDNLKBPM@?$AAd?$AAe?$AA?9?$AAl?$AAi?$AA?$AA@ 1004a644     LIBCMT:winapinls.obj
 0002:00005650       ??_C@_1M@NJBEEJNL@?$AAd?$AAe?$AA?9?$AAl?$AAu?$AA?$AA@ 1004a650     LIBCMT:winapinls.obj
 0002:0000565c       ??_C@_1O@GNNELBAP@?$AAd?$AAi?$AAv?$AA?9?$AAm?$AAv?$AA?$AA@ 1004a65c     LIBCMT:winapinls.obj
 0002:0000566c       ??_C@_1M@EJLEOGAE@?$AAe?$AAl?$AA?9?$AAg?$AAr?$AA?$AA@ 1004a66c     LIBCMT:winapinls.obj
 0002:00005678       ??_C@_1M@GMPONJN@?$AAe?$AAn?$AA?9?$AAa?$AAu?$AA?$AA@ 1004a678     LIBCMT:winapinls.obj
 0002:00005684       ??_C@_1M@NIDIIPGF@?$AAe?$AAn?$AA?9?$AAb?$AAz?$AA?$AA@ 1004a684     LIBCMT:winapinls.obj
 0002:00005690       ??_C@_1M@JEHMIMFO@?$AAe?$AAn?$AA?9?$AAc?$AAa?$AA?$AA@ 1004a690     LIBCMT:winapinls.obj
 0002:0000569c       ??_C@_1M@IGMJCDLA@?$AAe?$AAn?$AA?9?$AAc?$AAb?$AA?$AA@ 1004a69c     LIBCMT:winapinls.obj
 0002:000056a8       ??_C@_1M@BNFIGBKG@?$AAe?$AAn?$AA?9?$AAg?$AAb?$AA?$AA@ 1004a6a8     LIBCMT:winapinls.obj
 0002:000056b4       ??_C@_1M@LKIFDIGP@?$AAe?$AAn?$AA?9?$AAi?$AAe?$AA?$AA@ 1004a6b4     LIBCMT:winapinls.obj
 0002:000056c0       ??_C@_1M@PJKFGCCO@?$AAe?$AAn?$AA?9?$AAj?$AAm?$AA?$AA@ 1004a6c0     LIBCMT:winapinls.obj
 0002:000056cc       ??_C@_1M@KPPKEPBO@?$AAe?$AAn?$AA?9?$AAn?$AAz?$AA?$AA@ 1004a6cc     LIBCMT:winapinls.obj
 0002:000056d8       ??_C@_1M@GMDGLDOB@?$AAe?$AAn?$AA?9?$AAp?$AAh?$AA?$AA@ 1004a6d8     LIBCMT:winapinls.obj
 0002:000056e4       ??_C@_1M@ONGIBJNA@?$AAe?$AAn?$AA?9?$AAt?$AAt?$AA?$AA@ 1004a6e4     LIBCMT:winapinls.obj
 0002:000056f0       ??_C@_1M@LLODPCMM@?$AAe?$AAn?$AA?9?$AAu?$AAs?$AA?$AA@ 1004a6f0     LIBCMT:winapinls.obj
 0002:000056fc       ??_C@_1M@LAKFNPAN@?$AAe?$AAn?$AA?9?$AAz?$AAa?$AA?$AA@ 1004a6fc     LIBCMT:winapinls.obj
 0002:00005708       ??_C@_1M@MFNHNHEO@?$AAe?$AAn?$AA?9?$AAz?$AAw?$AA?$AA@ 1004a708     LIBCMT:winapinls.obj
 0002:00005714       ??_C@_1M@EJEINPHM@?$AAe?$AAs?$AA?9?$AAa?$AAr?$AA?$AA@ 1004a714     LIBCMT:winapinls.obj
 0002:00005720       ??_C@_1M@GNKPCCJA@?$AAe?$AAs?$AA?9?$AAb?$AAo?$AA?$AA@ 1004a720     LIBCMT:winapinls.obj
 0002:0000572c       ??_C@_1M@LEEGFONL@?$AAe?$AAs?$AA?9?$AAc?$AAl?$AA?$AA@ 1004a72c     LIBCMT:winapinls.obj
 0002:00005738       ??_C@_1M@KGPDPBDF@?$AAe?$AAs?$AA?9?$AAc?$AAo?$AA?$AA@ 1004a738     LIBCMT:winapinls.obj
 0002:00005744       ??_C@_1M@EIAHOHH@?$AAe?$AAs?$AA?9?$AAc?$AAr?$AA?$AA@ 1004a744     LIBCMT:winapinls.obj
 0002:00005750       ??_C@_1M@LLPGMBIN@?$AAe?$AAs?$AA?9?$AAd?$AAo?$AA?$AA@ 1004a750     LIBCMT:winapinls.obj
 0002:0000575c       ??_C@_1M@DKHMKNJA@?$AAe?$AAs?$AA?9?$AAe?$AAc?$AA?$AA@ 1004a75c     LIBCMT:winapinls.obj
 0002:00005768       ??_C@_1M@GKGFPKAP@?$AAe?$AAs?$AA?9?$AAe?$AAs?$AA?$AA@ 1004a768     LIBCMT:winapinls.obj
 0002:00005774       ??_C@_1M@LKHKGDLN@?$AAe?$AAs?$AA?9?$AAg?$AAt?$AA?$AA@ 1004a774     LIBCMT:winapinls.obj
 0002:00005780       ??_C@_1M@HEIIGGJD@?$AAe?$AAs?$AA?9?$AAh?$AAn?$AA?$AA@ 1004a780     LIBCMT:winapinls.obj
 0002:0000578c       ??_C@_1M@FBDHPPGD@?$AAe?$AAs?$AA?9?$AAm?$AAx?$AA?$AA@ 1004a78c     LIBCMT:winapinls.obj
 0002:00005798       ??_C@_1M@DPAGLNDH@?$AAe?$AAs?$AA?9?$AAn?$AAi?$AA?$AA@ 1004a798     LIBCMT:winapinls.obj
 0002:000057a4       ??_C@_1M@MDGOPGDD@?$AAe?$AAs?$AA?9?$AAp?$AAa?$AA?$AA@ 1004a7a4     LIBCMT:winapinls.obj
 0002:000057b0       ??_C@_1M@EMAMGBGE@?$AAe?$AAs?$AA?9?$AAp?$AAe?$AA?$AA@ 1004a7b0     LIBCMT:winapinls.obj
 0002:000057bc       ??_C@_1M@IBMCAOEC@?$AAe?$AAs?$AA?9?$AAp?$AAr?$AA?$AA@ 1004a7bc     LIBCMT:winapinls.obj
 0002:000057c8       ??_C@_1M@FGMDIJED@?$AAe?$AAs?$AA?9?$AAp?$AAy?$AA?$AA@ 1004a7c8     LIBCMT:winapinls.obj
 0002:000057d4       ??_C@_1M@IIDEOLLL@?$AAe?$AAs?$AA?9?$AAs?$AAv?$AA?$AA@ 1004a7d4     LIBCMT:winapinls.obj
 0002:000057e0       ??_C@_1M@GAOBIPA@?$AAe?$AAs?$AA?9?$AAu?$AAy?$AA?$AA@ 1004a7e0     LIBCMT:winapinls.obj
 0002:000057ec       ??_C@_1M@JKFFICHJ@?$AAe?$AAs?$AA?9?$AAv?$AAe?$AA?$AA@ 1004a7ec     LIBCMT:winapinls.obj
 0002:000057f8       ??_C@_1M@PNMLOJDF@?$AAe?$AAt?$AA?9?$AAe?$AAe?$AA?$AA@ 1004a7f8     LIBCMT:winapinls.obj
 0002:00005804       ??_C@_1M@GHHLIKEI@?$AAe?$AAu?$AA?9?$AAe?$AAs?$AA?$AA@ 1004a804     LIBCMT:winapinls.obj
 0002:00005810       ??_C@_1M@PBNONODE@?$AAf?$AAa?$AA?9?$AAi?$AAr?$AA?$AA@ 1004a810     LIBCMT:winapinls.obj
 0002:0000581c       ??_C@_1M@JEEHPMIL@?$AAf?$AAi?$AA?9?$AAf?$AAi?$AA?$AA@ 1004a81c     LIBCMT:winapinls.obj
 0002:00005828       ??_C@_1M@LMDCNDBA@?$AAf?$AAo?$AA?9?$AAf?$AAo?$AA?$AA@ 1004a828     LIBCMT:winapinls.obj
 0002:00005834       ??_C@_1M@JKEOHLDK@?$AAf?$AAr?$AA?9?$AAb?$AAe?$AA?$AA@ 1004a834     LIBCMT:winapinls.obj
 0002:00005840       ??_C@_1M@NOHADPMI@?$AAf?$AAr?$AA?9?$AAc?$AAa?$AA?$AA@ 1004a840     LIBCMT:winapinls.obj
 0002:0000584c       ??_C@_1M@KDHIHAEC@?$AAf?$AAr?$AA?9?$AAc?$AAh?$AA?$AA@ 1004a84c     LIBCMT:winapinls.obj
 0002:00005858       ??_C@_1M@MMBBFGAK@?$AAf?$AAr?$AA?9?$AAf?$AAr?$AA?$AA@ 1004a858     LIBCMT:winapinls.obj
 0002:00005864       ??_C@_1M@PAFNENNF@?$AAf?$AAr?$AA?9?$AAl?$AAu?$AA?$AA@ 1004a864     LIBCMT:winapinls.obj
 0002:00005870       ??_C@_1M@EOHDJGDD@?$AAf?$AAr?$AA?9?$AAm?$AAc?$AA?$AA@ 1004a870     LIBCMT:winapinls.obj
 0002:0000587c       ??_C@_1M@FAPLLOPF@?$AAg?$AAl?$AA?9?$AAe?$AAs?$AA?$AA@ 1004a87c     LIBCMT:winapinls.obj
 0002:00005888       ??_C@_1M@FOPBFLOO@?$AAg?$AAu?$AA?9?$AAi?$AAn?$AA?$AA@ 1004a888     LIBCMT:winapinls.obj
 0002:00005894       ??_C@_1M@KBMCINPM@?$AAh?$AAe?$AA?9?$AAi?$AAl?$AA?$AA@ 1004a894     LIBCMT:winapinls.obj
 0002:000058a0       ??_C@_1M@BBPHKFPJ@?$AAh?$AAi?$AA?9?$AAi?$AAn?$AA?$AA@ 1004a8a0     LIBCMT:winapinls.obj
 0002:000058ac       ??_C@_1M@PMBNDPHD@?$AAh?$AAr?$AA?9?$AAb?$AAa?$AA?$AA@ 1004a8ac     LIBCMT:winapinls.obj
 0002:000058b8       ??_C@_1M@BPCKOEGE@?$AAh?$AAr?$AA?9?$AAh?$AAr?$AA?$AA@ 1004a8b8     LIBCMT:winapinls.obj
 0002:000058c4       ??_C@_1M@GACBMHKE@?$AAh?$AAu?$AA?9?$AAh?$AAu?$AA?$AA@ 1004a8c4     LIBCMT:winapinls.obj
 0002:000058d0       ??_C@_1M@MILPAJJC@?$AAh?$AAy?$AA?9?$AAa?$AAm?$AA?$AA@ 1004a8d0     LIBCMT:winapinls.obj
 0002:000058dc       ??_C@_1M@BABBICEC@?$AAi?$AAd?$AA?9?$AAi?$AAd?$AA?$AA@ 1004a8dc     LIBCMT:winapinls.obj
 0002:000058e8       ??_C@_1M@BIKNHHPF@?$AAi?$AAs?$AA?9?$AAi?$AAs?$AA?$AA@ 1004a8e8     LIBCMT:winapinls.obj
 0002:000058f4       ??_C@_1M@NMPCJPHE@?$AAi?$AAt?$AA?9?$AAc?$AAh?$AA?$AA@ 1004a8f4     LIBCMT:winapinls.obj
 0002:00005900       ??_C@_1M@GHKGFEDF@?$AAi?$AAt?$AA?9?$AAi?$AAt?$AA?$AA@ 1004a900     LIBCMT:winapinls.obj
 0002:0000590c       ??_C@_1M@NIEJCJJA@?$AAj?$AAa?$AA?9?$AAj?$AAp?$AA?$AA@ 1004a90c     LIBCMT:winapinls.obj
 0002:00005918       ??_C@_1M@JILFNBIM@?$AAk?$AAa?$AA?9?$AAg?$AAe?$AA?$AA@ 1004a918     LIBCMT:winapinls.obj
 0002:00005924       ??_C@_1M@PACPMGPH@?$AAk?$AAk?$AA?9?$AAk?$AAz?$AA?$AA@ 1004a924     LIBCMT:winapinls.obj
 0002:00005930       ??_C@_1M@IELFGMHA@?$AAk?$AAn?$AA?9?$AAi?$AAn?$AA?$AA@ 1004a930     LIBCMT:winapinls.obj
 0002:0000593c       ??_C@_1O@IBBJHCH@?$AAk?$AAo?$AAk?$AA?9?$AAi?$AAn?$AA?$AA@ 1004a93c     LIBCMT:winapinls.obj
 0002:0000594c       ??_C@_1M@DMHAEOGC@?$AAk?$AAo?$AA?9?$AAk?$AAr?$AA?$AA@ 1004a94c     LIBCMT:winapinls.obj
 0002:00005958       ??_C@_1M@HBAHBIGA@?$AAk?$AAy?$AA?9?$AAk?$AAg?$AA?$AA@ 1004a958     LIBCMT:winapinls.obj
 0002:00005964       ??_C@_1M@KPMILCJG@?$AAl?$AAt?$AA?9?$AAl?$AAt?$AA?$AA@ 1004a964     LIBCMT:winapinls.obj
 0002:00005970       ??_C@_1M@BDEKKCA@?$AAl?$AAv?$AA?9?$AAl?$AAv?$AA?$AA@ 1004a970     LIBCMT:winapinls.obj
 0002:0000597c       ??_C@_1M@ELCKCCJJ@?$AAm?$AAi?$AA?9?$AAn?$AAz?$AA?$AA@ 1004a97c     LIBCMT:winapinls.obj
 0002:00005988       ??_C@_1M@CBOOLAPA@?$AAm?$AAk?$AA?9?$AAm?$AAk?$AA?$AA@ 1004a988     LIBCMT:winapinls.obj
 0002:00005994       ??_C@_1M@GPHNBJKN@?$AAm?$AAl?$AA?9?$AAi?$AAn?$AA?$AA@ 1004a994     LIBCMT:winapinls.obj
 0002:000059a0       ??_C@_1M@PABJILIG@?$AAm?$AAn?$AA?9?$AAm?$AAn?$AA?$AA@ 1004a9a0     LIBCMT:winapinls.obj
 0002:000059ac       ??_C@_1M@FGBKKIPG@?$AAm?$AAr?$AA?9?$AAi?$AAn?$AA?$AA@ 1004a9ac     LIBCMT:winapinls.obj
 0002:000059b8       ??_C@_1M@NDBPDDAL@?$AAm?$AAs?$AA?9?$AAb?$AAn?$AA?$AA@ 1004a9b8     LIBCMT:winapinls.obj
 0002:000059c4       ??_C@_1M@OPIHOOPI@?$AAm?$AAs?$AA?9?$AAm?$AAy?$AA?$AA@ 1004a9c4     LIBCMT:winapinls.obj
 0002:000059d0       ??_C@_1M@PPDBCNFM@?$AAm?$AAt?$AA?9?$AAm?$AAt?$AA?$AA@ 1004a9d0     LIBCMT:winapinls.obj
 0002:000059dc       ??_C@_1M@KDJDKMDD@?$AAn?$AAb?$AA?9?$AAn?$AAo?$AA?$AA@ 1004a9dc     LIBCMT:winapinls.obj
 0002:000059e8       ??_C@_1M@KFCFLMJP@?$AAn?$AAl?$AA?9?$AAb?$AAe?$AA?$AA@ 1004a9e8     LIBCMT:winapinls.obj
 0002:000059f4       ??_C@_1M@KPOPDDGO@?$AAn?$AAl?$AA?9?$AAn?$AAl?$AA?$AA@ 1004a9f4     LIBCMT:winapinls.obj
 0002:00005a00       ??_C@_1M@LJKPEMLN@?$AAn?$AAn?$AA?9?$AAn?$AAo?$AA?$AA@ 1004aa00     LIBCMT:winapinls.obj
 0002:00005a0c       ??_C@_1M@BDGHHBFL@?$AAn?$AAs?$AA?9?$AAz?$AAa?$AA?$AA@ 1004aa0c     LIBCMT:winapinls.obj
 0002:00005a18       ??_C@_1M@IDEHOAP@?$AAp?$AAa?$AA?9?$AAi?$AAn?$AA?$AA@ 1004aa18     LIBCMT:winapinls.obj
 0002:00005a24       ??_C@_1M@HDBKGOGH@?$AAp?$AAl?$AA?9?$AAp?$AAl?$AA?$AA@ 1004aa24     LIBCMT:winapinls.obj
 0002:00005a30       ??_C@_1M@LJLLCMEH@?$AAp?$AAt?$AA?9?$AAb?$AAr?$AA?$AA@ 1004aa30     LIBCMT:winapinls.obj
 0002:00005a3c       ??_C@_1M@NCMONAAL@?$AAp?$AAt?$AA?9?$AAp?$AAt?$AA?$AA@ 1004aa3c     LIBCMT:winapinls.obj
 0002:00005a48       ??_C@_1O@EAKMAJDN@?$AAq?$AAu?$AAz?$AA?9?$AAb?$AAo?$AA?$AA@ 1004aa48     LIBCMT:winapinls.obj
 0002:00005a58       ??_C@_1O@BHHPIGDN@?$AAq?$AAu?$AAz?$AA?9?$AAe?$AAc?$AA?$AA@ 1004aa58     LIBCMT:winapinls.obj
 0002:00005a68       ??_C@_1O@GBAPEKMJ@?$AAq?$AAu?$AAz?$AA?9?$AAp?$AAe?$AA?$AA@ 1004aa68     LIBCMT:winapinls.obj
 0002:00005a78       ??_C@_1M@CLGLEFBO@?$AAr?$AAo?$AA?9?$AAr?$AAo?$AA?$AA@ 1004aa78     LIBCMT:winapinls.obj
 0002:00005a84       ??_C@_1M@CEEDODME@?$AAr?$AAu?$AA?9?$AAr?$AAu?$AA?$AA@ 1004aa84     LIBCMT:winapinls.obj
 0002:00005a90       ??_C@_1M@HPKKKMPP@?$AAs?$AAa?$AA?9?$AAi?$AAn?$AA?$AA@ 1004aa90     LIBCMT:winapinls.obj
 0002:00005a9c       ??_C@_1M@BKMAIGOJ@?$AAs?$AAe?$AA?9?$AAf?$AAi?$AA?$AA@ 1004aa9c     LIBCMT:winapinls.obj
 0002:00005aa8       ??_C@_1M@NDPIFLFI@?$AAs?$AAe?$AA?9?$AAn?$AAo?$AA?$AA@ 1004aaa8     LIBCMT:winapinls.obj
 0002:00005ab4       ??_C@_1M@DANKKHJ@?$AAs?$AAe?$AA?9?$AAs?$AAe?$AA?$AA@ 1004aab4     LIBCMT:winapinls.obj
 0002:00005ac0       ??_C@_1M@PNBLONPJ@?$AAs?$AAk?$AA?9?$AAs?$AAk?$AA?$AA@ 1004aac0     LIBCMT:winapinls.obj
 0002:00005acc       ??_C@_1M@LFMODOAL@?$AAs?$AAl?$AA?9?$AAs?$AAi?$AA?$AA@ 1004aacc     LIBCMT:winapinls.obj
 0002:00005ad8       ??_C@_1O@DFKOMPG@?$AAs?$AAm?$AAa?$AA?9?$AAn?$AAo?$AA?$AA@ 1004aad8     LIBCMT:winapinls.obj
 0002:00005ae8       ??_C@_1O@NDKPBNNH@?$AAs?$AAm?$AAa?$AA?9?$AAs?$AAe?$AA?$AA@ 1004aae8     LIBCMT:winapinls.obj
 0002:00005af8       ??_C@_1O@PLLKBHAB@?$AAs?$AAm?$AAj?$AA?9?$AAn?$AAo?$AA?$AA@ 1004aaf8     LIBCMT:winapinls.obj
 0002:00005b08       ??_C@_1O@CLEPOGCA@?$AAs?$AAm?$AAj?$AA?9?$AAs?$AAe?$AA?$AA@ 1004ab08     LIBCMT:winapinls.obj
 0002:00005b18       ??_C@_1O@DLGJGKMK@?$AAs?$AAm?$AAn?$AA?9?$AAf?$AAi?$AA?$AA@ 1004ab18     LIBCMT:winapinls.obj
 0002:00005b28       ??_C@_1O@OJDJGAJC@?$AAs?$AAm?$AAs?$AA?9?$AAf?$AAi?$AA?$AA@ 1004ab28     LIBCMT:winapinls.obj
 0002:00005b38       ??_C@_1M@BOFOGHPB@?$AAs?$AAq?$AA?9?$AAa?$AAl?$AA?$AA@ 1004ab38     LIBCMT:winapinls.obj
 0002:00005b44       ??_C@_1BG@LJBBIPGB@?$AAs?$AAr?$AA?9?$AAb?$AAa?$AA?9?$AAc?$AAy?$AAr?$AAl?$AA?$AA@ 1004ab44     LIBCMT:winapinls.obj
 0002:00005b5c       ??_C@_1BG@JLBENFOE@?$AAs?$AAr?$AA?9?$AAb?$AAa?$AA?9?$AAl?$AAa?$AAt?$AAn?$AA?$AA@ 1004ab5c     LIBCMT:winapinls.obj
 0002:00005b74       ??_C@_1BG@KODPNHE@?$AAs?$AAr?$AA?9?$AAs?$AAp?$AA?9?$AAc?$AAy?$AAr?$AAl?$AA?$AA@ 1004ab74     LIBCMT:winapinls.obj
 0002:00005b8c       ??_C@_1BG@CIOGKHPB@?$AAs?$AAr?$AA?9?$AAs?$AAp?$AA?9?$AAl?$AAa?$AAt?$AAn?$AA?$AA@ 1004ab8c     LIBCMT:winapinls.obj
 0002:00005ba4       ??_C@_1M@NGFJLMAC@?$AAs?$AAv?$AA?9?$AAf?$AAi?$AA?$AA@ 1004aba4     LIBCMT:winapinls.obj
 0002:00005bb0       ??_C@_1M@MPJEJAJC@?$AAs?$AAv?$AA?9?$AAs?$AAe?$AA?$AA@ 1004abb0     LIBCMT:winapinls.obj
 0002:00005bbc       ??_C@_1M@MPNDHLFK@?$AAs?$AAw?$AA?9?$AAk?$AAe?$AA?$AA@ 1004abbc     LIBCMT:winapinls.obj
 0002:00005bc8       ??_C@_1O@KOHBJJI@?$AAs?$AAy?$AAr?$AA?9?$AAs?$AAy?$AA?$AA@ 1004abc8     LIBCMT:winapinls.obj
 0002:00005bd8       ??_C@_1M@LDCEFHA@?$AAt?$AAa?$AA?9?$AAi?$AAn?$AA?$AA@ 1004abd8     LIBCMT:winapinls.obj
 0002:00005be4       ??_C@_1M@CNJOFAK@?$AAt?$AAe?$AA?9?$AAi?$AAn?$AA?$AA@ 1004abe4     LIBCMT:winapinls.obj
 0002:00005bf0       ??_C@_1M@GNAECACD@?$AAt?$AAh?$AA?9?$AAt?$AAh?$AA?$AA@ 1004abf0     LIBCMT:winapinls.obj
 0002:00005bfc       ??_C@_1M@CHBIHOJO@?$AAt?$AAn?$AA?9?$AAz?$AAa?$AA?$AA@ 1004abfc     LIBCMT:winapinls.obj
 0002:00005c08       ??_C@_1M@GCCMIGPJ@?$AAt?$AAr?$AA?9?$AAt?$AAr?$AA?$AA@ 1004ac08     LIBCMT:winapinls.obj
 0002:00005c14       ??_C@_1M@CELMCNBK@?$AAt?$AAt?$AA?9?$AAr?$AAu?$AA?$AA@ 1004ac14     LIBCMT:winapinls.obj
 0002:00005c20       ??_C@_1M@KLMCELGA@?$AAu?$AAk?$AA?9?$AAu?$AAa?$AA?$AA@ 1004ac20     LIBCMT:winapinls.obj
 0002:00005c2c       ??_C@_1M@EPAJJAJF@?$AAu?$AAr?$AA?9?$AAp?$AAk?$AA?$AA@ 1004ac2c     LIBCMT:winapinls.obj
 0002:00005c38       ??_C@_1BG@GEGPMCDJ@?$AAu?$AAz?$AA?9?$AAu?$AAz?$AA?9?$AAc?$AAy?$AAr?$AAl?$AA?$AA@ 1004ac38     LIBCMT:winapinls.obj
 0002:00005c50       ??_C@_1BG@EGGKJILM@?$AAu?$AAz?$AA?9?$AAu?$AAz?$AA?9?$AAl?$AAa?$AAt?$AAn?$AA?$AA@ 1004ac50     LIBCMT:winapinls.obj
 0002:00005c68       ??_C@_1M@GFOCLFF@?$AAv?$AAi?$AA?9?$AAv?$AAn?$AA?$AA@ 1004ac68     LIBCMT:winapinls.obj
 0002:00005c74       ??_C@_1M@CPAMEDFI@?$AAx?$AAh?$AA?9?$AAz?$AAa?$AA?$AA@ 1004ac74     LIBCMT:winapinls.obj
 0002:00005c80       ??_C@_1O@EBKIFIGN@?$AAz?$AAh?$AA?9?$AAc?$AAh?$AAs?$AA?$AA@ 1004ac80     LIBCMT:winapinls.obj
 0002:00005c90       ??_C@_1O@NMHPGANE@?$AAz?$AAh?$AA?9?$AAc?$AAh?$AAt?$AA?$AA@ 1004ac90     LIBCMT:winapinls.obj
 0002:00005ca0       ??_C@_1M@LPINJOMC@?$AAz?$AAh?$AA?9?$AAc?$AAn?$AA?$AA@ 1004aca0     LIBCMT:winapinls.obj
 0002:00005cac       ??_C@_1M@OCJEJODD@?$AAz?$AAh?$AA?9?$AAh?$AAk?$AA?$AA@ 1004acac     LIBCMT:winapinls.obj
 0002:00005cb8       ??_C@_1M@DNDLJINH@?$AAz?$AAh?$AA?9?$AAm?$AAo?$AA?$AA@ 1004acb8     LIBCMT:winapinls.obj
 0002:00005cc4       ??_C@_1M@MBFDNDND@?$AAz?$AAh?$AA?9?$AAs?$AAg?$AA?$AA@ 1004acc4     LIBCMT:winapinls.obj
 0002:00005cd0       ??_C@_1M@IMEPLEPE@?$AAz?$AAh?$AA?9?$AAt?$AAw?$AA?$AA@ 1004acd0     LIBCMT:winapinls.obj
 0002:00005cdc       ??_C@_1M@BBGHNHJP@?$AAz?$AAu?$AA?9?$AAz?$AAa?$AA?$AA@ 1004acdc     LIBCMT:winapinls.obj
 0002:00005ce8       ___newctype                1004ace8     LIBCMT:ctype.obj
 0002:00005fe8       __wctype                   1004afe8     LIBCMT:ctype.obj
 0002:000061f0       ___newclmap                1004b1f0     LIBCMT:ctype.obj
 0002:00006370       ___newcumap                1004b370     LIBCMT:ctype.obj
 0002:000064f0       ___lc_category             1004b4f0     LIBCMT:wsetloca.obj
 0002:00006538       ??_C@_1O@GIFLHMA@?$AAL?$AAC?$AA_?$AAA?$AAL?$AAL?$AA?$AA@ 1004b538     LIBCMT:wsetloca.obj
 0002:00006548       ??_C@_1BG@PPOMIBNJ@?$AAL?$AAC?$AA_?$AAC?$AAO?$AAL?$AAL?$AAA?$AAT?$AAE?$AA?$AA@ 1004b548     LIBCMT:wsetloca.obj
 0002:00006560       ??_C@_1BC@FFJGAPJM@?$AAL?$AAC?$AA_?$AAC?$AAT?$AAY?$AAP?$AAE?$AA?$AA@ 1004b560     LIBCMT:wsetloca.obj
 0002:00006574       ??_C@_1BI@PCKFNJFB@?$AAL?$AAC?$AA_?$AAM?$AAO?$AAN?$AAE?$AAT?$AAA?$AAR?$AAY?$AA?$AA@ 1004b574     LIBCMT:wsetloca.obj
 0002:0000658c       ??_C@_1BG@ENIEDKID@?$AAL?$AAC?$AA_?$AAN?$AAU?$AAM?$AAE?$AAR?$AAI?$AAC?$AA?$AA@ 1004b58c     LIBCMT:wsetloca.obj
 0002:000065a4       ??_C@_1BA@HAAOMIIG@?$AAL?$AAC?$AA_?$AAT?$AAI?$AAM?$AAE?$AA?$AA@ 1004b5a4     LIBCMT:wsetloca.obj
 0002:00006638       ??_C@_15NBPDDFIP@?$AA?$DN?$AA?$DL?$AA?$AA@ 1004b638     LIBCMT:wsetloca.obj
 0002:00006640       ??_C@_13PJJBFPED@?$AA?$DL?$AA?$AA@ 1004b640     LIBCMT:wsetloca.obj
 0002:00006644       ??_C@_13NMPKAAJP@?$AA?$DN?$AA?$AA@ 1004b644     LIBCMT:wsetloca.obj
 0002:00006648       ??_C@_13FHBKNHDA@?$AAC?$AA?$AA@ 1004b648     LIBCMT:wsetloca.obj
 0002:0000664c       ??_C@_17MBJJLFDM@?$AA_?$AA?4?$AA?0?$AA?$AA@ 1004b64c     LIBCMT:wsetloca.obj
 0002:00006654       ??_C@_13ENNFDPBH@?$AA_?$AA?$AA@ 1004b654     LIBCMT:wsetloca.obj
 0002:00006658       ??_C@_13JOFGPIOO@?$AA?4?$AA?$AA@ 1004b658     LIBCMT:wsetloca.obj
 0002:0000665c       ??_C@_06PGGFOGJG@1?$CDSNAN?$AA@ 1004b65c     LIBCMT:x10fout.obj
 0002:00006664       ??_C@_05PHHOCPM@1?$CDIND?$AA@ 1004b664     LIBCMT:x10fout.obj
 0002:0000666c       ??_C@_05DNEBIAHO@1?$CDINF?$AA@ 1004b66c     LIBCMT:x10fout.obj
 0002:00006674       ??_C@_06IMKFLFPG@1?$CDQNAN?$AA@ 1004b674     LIBCMT:x10fout.obj
 0002:0000667c       ??_C@_0M@HHGEPIBF@CreateFile2?$AA@ 1004b67c     LIBCMT:wopen.obj
 0002:00006688       ??_C@_1BA@BALFACEM@?$AAC?$AAO?$AAN?$AAO?$AAU?$AAT?$AA$?$AA?$AA@ 1004b688     LIBCMT:initcon.obj
 0002:00006698       ___rg_language             1004b698     LIBCMT:getqloc.obj
 0002:000069a4       ??_C@_1BC@LLOKLNP@?$AAa?$AAm?$AAe?$AAr?$AAi?$AAc?$AAa?$AAn?$AA?$AA@ 1004b9a4     LIBCMT:getqloc.obj
 0002:000069b8       ??_C@_1CC@HEIGCDGG@?$AAa?$AAm?$AAe?$AAr?$AAi?$AAc?$AAa?$AAn?$AA?5?$AAe?$AAn?$AAg?$AAl?$AAi?$AAs?$AAh?$AA?$AA@ 1004b9b8     LIBCMT:getqloc.obj
 0002:000069dc       ??_C@_1CC@IHCNOMIN@?$AAa?$AAm?$AAe?$AAr?$AAi?$AAc?$AAa?$AAn?$AA?9?$AAe?$AAn?$AAg?$AAl?$AAi?$AAs?$AAh?$AA?$AA@ 1004b9dc     LIBCMT:getqloc.obj
 0002:00006a00       ??_C@_1BG@GKAGPCGG@?$AAa?$AAu?$AAs?$AAt?$AAr?$AAa?$AAl?$AAi?$AAa?$AAn?$AA?$AA@ 1004ba00     LIBCMT:getqloc.obj
 0002:00006a18       ??_C@_1BA@GMENCENF@?$AAb?$AAe?$AAl?$AAg?$AAi?$AAa?$AAn?$AA?$AA@ 1004ba18     LIBCMT:getqloc.obj
 0002:00006a28       ??_C@_1BC@PJMIIAAN@?$AAc?$AAa?$AAn?$AAa?$AAd?$AAi?$AAa?$AAn?$AA?$AA@ 1004ba28     LIBCMT:getqloc.obj
 0002:00006a3c       ??_C@_17NOIMNFBF@?$AAc?$AAh?$AAh?$AA?$AA@ 1004ba3c     LIBCMT:getqloc.obj
 0002:00006a44       ??_C@_17GGDALCHA@?$AAc?$AAh?$AAi?$AA?$AA@ 1004ba44     LIBCMT:getqloc.obj
 0002:00006a4c       ??_C@_1BA@NPNJKIBL@?$AAc?$AAh?$AAi?$AAn?$AAe?$AAs?$AAe?$AA?$AA@ 1004ba4c     LIBCMT:getqloc.obj
 0002:00006a5c       ??_C@_1CC@DINBAMMJ@?$AAc?$AAh?$AAi?$AAn?$AAe?$AAs?$AAe?$AA?9?$AAh?$AAo?$AAn?$AAg?$AAk?$AAo?$AAn?$AAg?$AA?$AA@ 1004ba5c     LIBCMT:getqloc.obj
 0002:00006a80       ??_C@_1CG@IOBJPACO@?$AAc?$AAh?$AAi?$AAn?$AAe?$AAs?$AAe?$AA?9?$AAs?$AAi?$AAm?$AAp?$AAl?$AAi?$AAf?$AAi?$AAe?$AAd?$AA?$AA@ 1004ba80     LIBCMT:getqloc.obj
 0002:00006aa8       ??_C@_1CE@GAJNDCKG@?$AAc?$AAh?$AAi?$AAn?$AAe?$AAs?$AAe?$AA?9?$AAs?$AAi?$AAn?$AAg?$AAa?$AAp?$AAo?$AAr?$AAe?$AA?$AA@ 1004baa8     LIBCMT:getqloc.obj
 0002:00006acc       ??_C@_1CI@PAJPIOOD@?$AAc?$AAh?$AAi?$AAn?$AAe?$AAs?$AAe?$AA?9?$AAt?$AAr?$AAa?$AAd?$AAi?$AAt?$AAi?$AAo?$AAn?$AAa?$AAl?$AA?$AA@ 1004bacc     LIBCMT:getqloc.obj
 0002:00006af4       ??_C@_1BM@NILJBMMD@?$AAd?$AAu?$AAt?$AAc?$AAh?$AA?9?$AAb?$AAe?$AAl?$AAg?$AAi?$AAa?$AAn?$AA?$AA@ 1004baf4     LIBCMT:getqloc.obj
 0002:00006b10       ??_C@_1CC@OOJPJNEJ@?$AAe?$AAn?$AAg?$AAl?$AAi?$AAs?$AAh?$AA?9?$AAa?$AAm?$AAe?$AAr?$AAi?$AAc?$AAa?$AAn?$AA?$AA@ 1004bb10     LIBCMT:getqloc.obj
 0002:00006b34       ??_C@_1BI@IOLFEEM@?$AAe?$AAn?$AAg?$AAl?$AAi?$AAs?$AAh?$AA?9?$AAa?$AAu?$AAs?$AA?$AA@ 1004bb34     LIBCMT:getqloc.obj
 0002:00006b4c       ??_C@_1BO@HFFNLENJ@?$AAe?$AAn?$AAg?$AAl?$AAi?$AAs?$AAh?$AA?9?$AAb?$AAe?$AAl?$AAi?$AAz?$AAe?$AA?$AA@ 1004bb4c     LIBCMT:getqloc.obj
 0002:00006b6c       ??_C@_1BI@HAPKJMPO@?$AAe?$AAn?$AAg?$AAl?$AAi?$AAs?$AAh?$AA?9?$AAc?$AAa?$AAn?$AA?$AA@ 1004bb6c     LIBCMT:getqloc.obj
 0002:00006b84       ??_C@_1CE@HLNDMIOJ@?$AAe?$AAn?$AAg?$AAl?$AAi?$AAs?$AAh?$AA?9?$AAc?$AAa?$AAr?$AAi?$AAb?$AAb?$AAe?$AAa?$AAn?$AA?$AA@ 1004bb84     LIBCMT:getqloc.obj
 0002:00006ba8       ??_C@_1BI@LDHJHHAC@?$AAe?$AAn?$AAg?$AAl?$AAi?$AAs?$AAh?$AA?9?$AAi?$AAr?$AAe?$AA?$AA@ 1004bba8     LIBCMT:getqloc.obj
 0002:00006bc0       ??_C@_1CA@NJMMCFOC@?$AAe?$AAn?$AAg?$AAl?$AAi?$AAs?$AAh?$AA?9?$AAj?$AAa?$AAm?$AAa?$AAi?$AAc?$AAa?$AA?$AA@ 1004bbc0     LIBCMT:getqloc.obj
 0002:00006be0       ??_C@_1BG@BHJEBBGG@?$AAe?$AAn?$AAg?$AAl?$AAi?$AAs?$AAh?$AA?9?$AAn?$AAz?$AA?$AA@ 1004bbe0     LIBCMT:getqloc.obj
 0002:00006bf8       ??_C@_1CK@FGOEJJCO@?$AAe?$AAn?$AAg?$AAl?$AAi?$AAs?$AAh?$AA?9?$AAs?$AAo?$AAu?$AAt?$AAh?$AA?5?$AAa?$AAf?$AAr?$AAi?$AAc?$AAa?$AA?$AA@ 1004bbf8     LIBCMT:getqloc.obj
 0002:00006c24       ??_C@_1DE@PDBJPCJ@?$AAe?$AAn?$AAg?$AAl?$AAi?$AAs?$AAh?$AA?9?$AAt?$AAr?$AAi?$AAn?$AAi?$AAd?$AAa?$AAd?$AA?5?$AAy?$AA?5?$AAt?$AAo?$AAb?$AAa?$AAg?$AAo?$AA?$AA@ 1004bc24     LIBCMT:getqloc.obj
 0002:00006c58       ??_C@_1BG@JGCANDME@?$AAe?$AAn?$AAg?$AAl?$AAi?$AAs?$AAh?$AA?9?$AAu?$AAk?$AA?$AA@ 1004bc58     LIBCMT:getqloc.obj
 0002:00006c70       ??_C@_1BG@DINKMLE@?$AAe?$AAn?$AAg?$AAl?$AAi?$AAs?$AAh?$AA?9?$AAu?$AAs?$AA?$AA@ 1004bc70     LIBCMT:getqloc.obj
 0002:00006c88       ??_C@_1BI@NMFDBHJE@?$AAe?$AAn?$AAg?$AAl?$AAi?$AAs?$AAh?$AA?9?$AAu?$AAs?$AAa?$AA?$AA@ 1004bc88     LIBCMT:getqloc.obj
 0002:00006ca0       ??_C@_1BO@OIHKJKII@?$AAf?$AAr?$AAe?$AAn?$AAc?$AAh?$AA?9?$AAb?$AAe?$AAl?$AAg?$AAi?$AAa?$AAn?$AA?$AA@ 1004bca0     LIBCMT:getqloc.obj
 0002:00006cc0       ??_C@_1CA@NKAELJKI@?$AAf?$AAr?$AAe?$AAn?$AAc?$AAh?$AA?9?$AAc?$AAa?$AAn?$AAa?$AAd?$AAi?$AAa?$AAn?$AA?$AA@ 1004bcc0     LIBCMT:getqloc.obj
 0002:00006ce0       ??_C@_1CE@MGKCNLGN@?$AAf?$AAr?$AAe?$AAn?$AAc?$AAh?$AA?9?$AAl?$AAu?$AAx?$AAe?$AAm?$AAb?$AAo?$AAu?$AAr?$AAg?$AA?$AA@ 1004bce0     LIBCMT:getqloc.obj
 0002:00006d04       ??_C@_1BK@CEGEAILM@?$AAf?$AAr?$AAe?$AAn?$AAc?$AAh?$AA?9?$AAs?$AAw?$AAi?$AAs?$AAs?$AA?$AA@ 1004bd04     LIBCMT:getqloc.obj
 0002:00006d20       ??_C@_1CA@PAFKEOCC@?$AAg?$AAe?$AAr?$AAm?$AAa?$AAn?$AA?9?$AAa?$AAu?$AAs?$AAt?$AAr?$AAi?$AAa?$AAn?$AA?$AA@ 1004bd20     LIBCMT:getqloc.obj
 0002:00006d40       ??_C@_1CI@HCFHGOFD@?$AAg?$AAe?$AAr?$AAm?$AAa?$AAn?$AA?9?$AAl?$AAi?$AAc?$AAh?$AAt?$AAe?$AAn?$AAs?$AAt?$AAe?$AAi?$AAn?$AA?$AA@ 1004bd40     LIBCMT:getqloc.obj
 0002:00006d68       ??_C@_1CE@FEDDNPDG@?$AAg?$AAe?$AAr?$AAm?$AAa?$AAn?$AA?9?$AAl?$AAu?$AAx?$AAe?$AAm?$AAb?$AAo?$AAu?$AAr?$AAg?$AA?$AA@ 1004bd68     LIBCMT:getqloc.obj
 0002:00006d8c       ??_C@_1BK@LIMINNMN@?$AAg?$AAe?$AAr?$AAm?$AAa?$AAn?$AA?9?$AAs?$AAw?$AAi?$AAs?$AAs?$AA?$AA@ 1004bd8c     LIBCMT:getqloc.obj
 0002:00006da8       ??_C@_1BM@LGMDBEPD@?$AAi?$AAr?$AAi?$AAs?$AAh?$AA?9?$AAe?$AAn?$AAg?$AAl?$AAi?$AAs?$AAh?$AA?$AA@ 1004bda8     LIBCMT:getqloc.obj
 0002:00006dc4       ??_C@_1BM@NNCFBAEE@?$AAi?$AAt?$AAa?$AAl?$AAi?$AAa?$AAn?$AA?9?$AAs?$AAw?$AAi?$AAs?$AAs?$AA?$AA@ 1004bdc4     LIBCMT:getqloc.obj
 0002:00006de0       ??_C@_1BE@FEDJNPIB@?$AAn?$AAo?$AAr?$AAw?$AAe?$AAg?$AAi?$AAa?$AAn?$AA?$AA@ 1004bde0     LIBCMT:getqloc.obj
 0002:00006df4       ??_C@_1CC@CILKDEIE@?$AAn?$AAo?$AAr?$AAw?$AAe?$AAg?$AAi?$AAa?$AAn?$AA?9?$AAb?$AAo?$AAk?$AAm?$AAa?$AAl?$AA?$AA@ 1004bdf4     LIBCMT:getqloc.obj
 0002:00006e18       ??_C@_1CE@DHMMHEPL@?$AAn?$AAo?$AAr?$AAw?$AAe?$AAg?$AAi?$AAa?$AAn?$AA?9?$AAn?$AAy?$AAn?$AAo?$AAr?$AAs?$AAk?$AA?$AA@ 1004be18     LIBCMT:getqloc.obj
 0002:00006e3c       ??_C@_1CK@OPNMHECD@?$AAp?$AAo?$AAr?$AAt?$AAu?$AAg?$AAu?$AAe?$AAs?$AAe?$AA?9?$AAb?$AAr?$AAa?$AAz?$AAi?$AAl?$AAi?$AAa?$AAn?$AA?$AA@ 1004be3c     LIBCMT:getqloc.obj
 0002:00006e68       ??_C@_1CE@KEEHCDB@?$AAs?$AAp?$AAa?$AAn?$AAi?$AAs?$AAh?$AA?9?$AAa?$AAr?$AAg?$AAe?$AAn?$AAt?$AAi?$AAn?$AAa?$AA?$AA@ 1004be68     LIBCMT:getqloc.obj
 0002:00006e8c       ??_C@_1CA@GIAOLHJD@?$AAs?$AAp?$AAa?$AAn?$AAi?$AAs?$AAh?$AA?9?$AAb?$AAo?$AAl?$AAi?$AAv?$AAi?$AAa?$AA?$AA@ 1004be8c     LIBCMT:getqloc.obj
 0002:00006eac       ??_C@_1BM@OJNDFNPD@?$AAs?$AAp?$AAa?$AAn?$AAi?$AAs?$AAh?$AA?9?$AAc?$AAh?$AAi?$AAl?$AAe?$AA?$AA@ 1004beac     LIBCMT:getqloc.obj
 0002:00006ec8       ??_C@_1CC@OCOLPALL@?$AAs?$AAp?$AAa?$AAn?$AAi?$AAs?$AAh?$AA?9?$AAc?$AAo?$AAl?$AAo?$AAm?$AAb?$AAi?$AAa?$AA?$AA@ 1004bec8     LIBCMT:getqloc.obj
 0002:00006eec       ??_C@_1CG@BPOFMKBB@?$AAs?$AAp?$AAa?$AAn?$AAi?$AAs?$AAh?$AA?9?$AAc?$AAo?$AAs?$AAt?$AAa?$AA?5?$AAr?$AAi?$AAc?$AAa?$AA?$AA@ 1004beec     LIBCMT:getqloc.obj
 0002:00006f14       ??_C@_1DG@IGOBAPBB@?$AAs?$AAp?$AAa?$AAn?$AAi?$AAs?$AAh?$AA?9?$AAd?$AAo?$AAm?$AAi?$AAn?$AAi?$AAc?$AAa?$AAn?$AA?5?$AAr?$AAe?$AAp?$AAu?$AAb?$AAl?$AAi?$AAc?$AA?$AA@ 1004bf14     LIBCMT:getqloc.obj
 0002:00006f4c       ??_C@_1CA@JHAPGEGI@?$AAs?$AAp?$AAa?$AAn?$AAi?$AAs?$AAh?$AA?9?$AAe?$AAc?$AAu?$AAa?$AAd?$AAo?$AAr?$AA?$AA@ 1004bf4c     LIBCMT:getqloc.obj
 0002:00006f6c       ??_C@_1CI@LAPALJPP@?$AAs?$AAp?$AAa?$AAn?$AAi?$AAs?$AAh?$AA?9?$AAe?$AAl?$AA?5?$AAs?$AAa?$AAl?$AAv?$AAa?$AAd?$AAo?$AAr?$AA?$AA@ 1004bf6c     LIBCMT:getqloc.obj
 0002:00006f94       ??_C@_1CE@PDGBOFOM@?$AAs?$AAp?$AAa?$AAn?$AAi?$AAs?$AAh?$AA?9?$AAg?$AAu?$AAa?$AAt?$AAe?$AAm?$AAa?$AAl?$AAa?$AA?$AA@ 1004bf94     LIBCMT:getqloc.obj
 0002:00006fb8       ??_C@_1CC@NBEBAODI@?$AAs?$AAp?$AAa?$AAn?$AAi?$AAs?$AAh?$AA?9?$AAh?$AAo?$AAn?$AAd?$AAu?$AAr?$AAa?$AAs?$AA?$AA@ 1004bfb8     LIBCMT:getqloc.obj
 0002:00006fdc       ??_C@_1CA@LLKGHBMF@?$AAs?$AAp?$AAa?$AAn?$AAi?$AAs?$AAh?$AA?9?$AAm?$AAe?$AAx?$AAi?$AAc?$AAa?$AAn?$AA?$AA@ 1004bfdc     LIBCMT:getqloc.obj
 0002:00006ffc       ??_C@_1BO@LKNDOIGD@?$AAs?$AAp?$AAa?$AAn?$AAi?$AAs?$AAh?$AA?9?$AAm?$AAo?$AAd?$AAe?$AAr?$AAn?$AA?$AA@ 1004bffc     LIBCMT:getqloc.obj
 0002:0000701c       ??_C@_1CE@NMDMOEEB@?$AAs?$AAp?$AAa?$AAn?$AAi?$AAs?$AAh?$AA?9?$AAn?$AAi?$AAc?$AAa?$AAr?$AAa?$AAg?$AAu?$AAa?$AA?$AA@ 1004c01c     LIBCMT:getqloc.obj
 0002:00007040       ??_C@_1BO@LLCBEJGB@?$AAs?$AAp?$AAa?$AAn?$AAi?$AAs?$AAh?$AA?9?$AAp?$AAa?$AAn?$AAa?$AAm?$AAa?$AA?$AA@ 1004c040     LIBCMT:getqloc.obj
 0002:00007060       ??_C@_1CC@FKPGGIHO@?$AAs?$AAp?$AAa?$AAn?$AAi?$AAs?$AAh?$AA?9?$AAp?$AAa?$AAr?$AAa?$AAg?$AAu?$AAa?$AAy?$AA?$AA@ 1004c060     LIBCMT:getqloc.obj
 0002:00007084       ??_C@_1BK@CDEIHOOP@?$AAs?$AAp?$AAa?$AAn?$AAi?$AAs?$AAh?$AA?9?$AAp?$AAe?$AAr?$AAu?$AA?$AA@ 1004c084     LIBCMT:getqloc.obj
 0002:000070a0       ??_C@_1CI@GAHAKKGP@?$AAs?$AAp?$AAa?$AAn?$AAi?$AAs?$AAh?$AA?9?$AAp?$AAu?$AAe?$AAr?$AAt?$AAo?$AA?5?$AAr?$AAi?$AAc?$AAo?$AA?$AA@ 1004c0a0     LIBCMT:getqloc.obj
 0002:000070c8       ??_C@_1CA@NKJBCAGP@?$AAs?$AAp?$AAa?$AAn?$AAi?$AAs?$AAh?$AA?9?$AAu?$AAr?$AAu?$AAg?$AAu?$AAa?$AAy?$AA?$AA@ 1004c0c8     LIBCMT:getqloc.obj
 0002:000070e8       ??_C@_1CE@ODILCONM@?$AAs?$AAp?$AAa?$AAn?$AAi?$AAs?$AAh?$AA?9?$AAv?$AAe?$AAn?$AAe?$AAz?$AAu?$AAe?$AAl?$AAa?$AA?$AA@ 1004c0e8     LIBCMT:getqloc.obj
 0002:0000710c       ??_C@_1CA@OBNMCGFO@?$AAs?$AAw?$AAe?$AAd?$AAi?$AAs?$AAh?$AA?9?$AAf?$AAi?$AAn?$AAl?$AAa?$AAn?$AAd?$AA?$AA@ 1004c10c     LIBCMT:getqloc.obj
 0002:0000712c       ??_C@_1M@PIPDDPPI@?$AAs?$AAw?$AAi?$AAs?$AAs?$AA?$AA@ 1004c12c     LIBCMT:getqloc.obj
 0002:00007138       ??_C@_15GMFIMNFM@?$AAu?$AAs?$AA?$AA@ 1004c138     LIBCMT:getqloc.obj
 0002:00007140       ??_C@_17HAEBFAGL@?$AAu?$AAs?$AAa?$AA?$AA@ 1004c140     LIBCMT:getqloc.obj
 0002:00007148       ___rg_country              1004c148     LIBCMT:getqloc.obj
 0002:0000725c       ??_C@_1BA@DPFJEPHB@?$AAa?$AAm?$AAe?$AAr?$AAi?$AAc?$AAa?$AA?$AA@ 1004c25c     LIBCMT:getqloc.obj
 0002:0000726c       ??_C@_1BA@ELOGGFK@?$AAb?$AAr?$AAi?$AAt?$AAa?$AAi?$AAn?$AA?$AA@ 1004c26c     LIBCMT:getqloc.obj
 0002:0000727c       ??_C@_1M@GHBGIGDA@?$AAc?$AAh?$AAi?$AAn?$AAa?$AA?$AA@ 1004c27c     LIBCMT:getqloc.obj
 0002:00007288       ??_C@_1M@NCHEJOPO@?$AAc?$AAz?$AAe?$AAc?$AAh?$AA?$AA@ 1004c288     LIBCMT:getqloc.obj
 0002:00007294       ??_C@_1BA@BKPAPBLA@?$AAe?$AAn?$AAg?$AAl?$AAa?$AAn?$AAd?$AA?$AA@ 1004c294     LIBCMT:getqloc.obj
 0002:000072a4       ??_C@_1BM@HKBCKIPC@?$AAg?$AAr?$AAe?$AAa?$AAt?$AA?5?$AAb?$AAr?$AAi?$AAt?$AAa?$AAi?$AAn?$AA?$AA@ 1004c2a4     LIBCMT:getqloc.obj
 0002:000072c0       ??_C@_1BA@PPCHPGJB@?$AAh?$AAo?$AAl?$AAl?$AAa?$AAn?$AAd?$AA?$AA@ 1004c2c0     LIBCMT:getqloc.obj
 0002:000072d0       ??_C@_1BE@JBMPEGDG@?$AAh?$AAo?$AAn?$AAg?$AA?9?$AAk?$AAo?$AAn?$AAg?$AA?$AA@ 1004c2d0     LIBCMT:getqloc.obj
 0002:000072e4       ??_C@_1BI@KOELBBPJ@?$AAn?$AAe?$AAw?$AA?9?$AAz?$AAe?$AAa?$AAl?$AAa?$AAn?$AAd?$AA?$AA@ 1004c2e4     LIBCMT:getqloc.obj
 0002:000072fc       ??_C@_15HIEBHAIO@?$AAn?$AAz?$AA?$AA@ 1004c2fc     LIBCMT:getqloc.obj
 0002:00007304       ??_C@_1BC@CHBCPFPI@?$AAp?$AAr?$AA?5?$AAc?$AAh?$AAi?$AAn?$AAa?$AA?$AA@ 1004c304     LIBCMT:getqloc.obj
 0002:00007318       ??_C@_1BC@JAOIIFKD@?$AAp?$AAr?$AA?9?$AAc?$AAh?$AAi?$AAn?$AAa?$AA?$AA@ 1004c318     LIBCMT:getqloc.obj
 0002:0000732c       ??_C@_1BI@BEHPPHKC@?$AAp?$AAu?$AAe?$AAr?$AAt?$AAo?$AA?9?$AAr?$AAi?$AAc?$AAo?$AA?$AA@ 1004c32c     LIBCMT:getqloc.obj
 0002:00007344       ??_C@_1O@PAEOFKDI@?$AAs?$AAl?$AAo?$AAv?$AAa?$AAk?$AA?$AA@ 1004c344     LIBCMT:getqloc.obj
 0002:00007354       ??_C@_1BK@FIHMCKAM@?$AAs?$AAo?$AAu?$AAt?$AAh?$AA?5?$AAa?$AAf?$AAr?$AAi?$AAc?$AAa?$AA?$AA@ 1004c354     LIBCMT:getqloc.obj
 0002:00007370       ??_C@_1BI@NAEOODKB@?$AAs?$AAo?$AAu?$AAt?$AAh?$AA?5?$AAk?$AAo?$AAr?$AAe?$AAa?$AA?$AA@ 1004c370     LIBCMT:getqloc.obj
 0002:00007388       ??_C@_1BK@FBDGGIFF@?$AAs?$AAo?$AAu?$AAt?$AAh?$AA?9?$AAa?$AAf?$AAr?$AAi?$AAc?$AAa?$AA?$AA@ 1004c388     LIBCMT:getqloc.obj
 0002:000073a4       ??_C@_1BI@GHLEJDPK@?$AAs?$AAo?$AAu?$AAt?$AAh?$AA?9?$AAk?$AAo?$AAr?$AAe?$AAa?$AA?$AA@ 1004c3a4     LIBCMT:getqloc.obj
 0002:000073bc       ??_C@_1CE@PLHLOMJF@?$AAt?$AAr?$AAi?$AAn?$AAi?$AAd?$AAa?$AAd?$AA?5?$AA?$CG?$AA?5?$AAt?$AAo?$AAb?$AAa?$AAg?$AAo?$AA?$AA@ 1004c3bc     LIBCMT:getqloc.obj
 0002:000073e0       ??_C@_1BO@MODIMHHI@?$AAu?$AAn?$AAi?$AAt?$AAe?$AAd?$AA?9?$AAk?$AAi?$AAn?$AAg?$AAd?$AAo?$AAm?$AA?$AA@ 1004c3e0     LIBCMT:getqloc.obj
 0002:00007400       ??_C@_1BM@FFHJONBJ@?$AAu?$AAn?$AAi?$AAt?$AAe?$AAd?$AA?9?$AAs?$AAt?$AAa?$AAt?$AAe?$AAs?$AA?$AA@ 1004c400     LIBCMT:getqloc.obj
 0002:0000741c       ___rg_language_count       1004c41c     LIBCMT:getqloc.obj
 0002:00007420       ___rg_country_count        1004c420     LIBCMT:getqloc.obj
 0002:00007424       ??_C@_17DNCLJFIF@?$AAA?$AAC?$AAP?$AA?$AA@ 1004c424     LIBCMT:getqloc.obj
 0002:0000742c       ??_C@_17CIKBIHLH@?$AAO?$AAC?$AAP?$AA?$AA@ 1004c42c     LIBCMT:getqloc.obj
 0002:00007434       ___rglangidNotDefault      1004c434     LIBCMT:getqloc_downlevel.obj
 0002:00007448       __load_config_used         1004c448     LIBCMT:loadcfg.obj
 0002:00008780       ___safe_se_handler_table   1004d780     <linker-defined>
 0002:00008890       ___rtc_iaa                 1004d890     LIBCMT:initsect.obj
 0002:00008994       ___rtc_izz                 1004d994     LIBCMT:initsect.obj
 0002:00008a98       ___rtc_taa                 1004da98     LIBCMT:initsect.obj
 0002:00008b9c       ___rtc_tzz                 1004db9c     LIBCMT:initsect.obj
 0003:00002100       _pci20041digout            10051100     xpctarget.obj
 0003:00002104       _nipcdio24cnfg             10051104     xpctarget.obj
 0003:00002108       _rtddm6604cnfg             10051108     xpctarget.obj
 0003:00003b9c       _DefaultCOMIOBase          10052b9c     xpcruntime:xpcimports.obj
 0003:00003bac       _DefaultCOMIRQ             10052bac     xpcruntime:xpcimports.obj
 0003:00003f90       __fltused                  10052f90     LIBCMT:fpinit.obj
 0003:00003f94       __ldused                   10052f94     LIBCMT:fpinit.obj
 0003:00003fa0       __iob                      10052fa0     LIBCMT:_file.obj
 0003:00004220       ___security_cookie         10053220     LIBCMT:gs_cookie.obj
 0003:00004224       ___security_cookie_complement 10053224     LIBCMT:gs_cookie.obj
 0003:00004400       ___isa_enabled             10053400     LIBCMT:cpu_disp.obj
 0003:00004404       ___nullstring              10053404     LIBCMT:output.obj
 0003:00004408       ___wnullstring             10053408     LIBCMT:output.obj
 0003:00004410       __cfltcvt_tab              10053410     LIBCMT:cmiscdat.obj
 0003:00004560       __mbctype                  10053560     LIBCMT:mbctype.obj
 0003:00004668       __mbcasemap                10053668     LIBCMT:mbctype.obj
 0003:00004768       ___initialmbcinfo          10053768     LIBCMT:mbctype.obj
 0003:0000498c       ___ptmbcinfo               1005398c     LIBCMT:mbctype.obj
 0003:00004a80       ___badioinfo               10053a80     LIBCMT:ioinit.obj
 0003:00004ac0       __lookuptrailbytes         10053ac0     LIBCMT:read.obj
 0003:00004bc8       __d_inf                    10053bc8     LIBCMT:util.obj
 0003:00004bd0       __d_ind                    10053bd0     LIBCMT:util.obj
 0003:00004bd8       __d_max                    10053bd8     LIBCMT:util.obj
 0003:00004be0       __d_min                    10053be0     LIBCMT:util.obj
 0003:00004be8       __d_mzero                  10053be8     LIBCMT:util.obj
 0003:00004cf4       ___abort_behavior          10053cf4     LIBCMT:abort.obj
 0003:00004cf8       ___flsindex                10053cf8     LIBCMT:tidtable.obj
 0003:00004d00       ___mb_cur_max              10053d00     LIBCMT:nlsdata.obj
 0003:00004d04       ___wclocalestr             10053d04     LIBCMT:nlsdata.obj
 0003:00004d08       ___lc_time_c               10053d08     LIBCMT:nlsdata.obj
 0003:00004e6c       ___ptlocinfo               10053e6c     LIBCMT:nlsdata.obj
 0003:00004e70       ___initiallocinfo          10053e70     LIBCMT:nlsdata.obj
 0003:00004f28       ___initiallocalestructinfo 10053f28     LIBCMT:nlsdata.obj
 0003:00004f30       ___globallocalestatus      10053f30     LIBCMT:glstatus.obj
 0003:00004f40       __NLG_Destination          10053f40     LIBCMT:exsup.obj
 0003:00004f50       __matherr_flag             10053f50     LIBCMT:matherr.obj
 0003:00004f58       ___lconv                   10053f58     LIBCMT:lconv.obj
 0003:00004f5c       ___lconv_static_decimal    10053f5c     LIBCMT:lconv.obj
 0003:00004f60       ___lconv_c                 10053f60     LIBCMT:lconv.obj
 0003:00004fb0       ___lconv_static_W_decimal  10053fb0     LIBCMT:lconv.obj
 0003:00004fb4       __pctype                   10053fb4     LIBCMT:ctype.obj
 0003:00004fb8       __pwctype                  10053fb8     LIBCMT:ctype.obj
 0003:00004ff0       __confh                    10053ff0     LIBCMT:initcon.obj
 0003:00004ff8       __pow10pos                 10053ff8     LIBCMT:constpow.obj
 0003:00005158       __pow10neg                 10054158     LIBCMT:constpow.obj
 0003:000052c0       __HUGE                     100542c0     LIBCMT:huge.obj
 0003:00005c1c       _xmlsize                   10054c1c     xpctarget.obj
 0003:00005c20       _pci20098PortA             10054c20     xpctarget.obj
 0003:00005c24       _pci20098PortB             10054c24     xpctarget.obj
 0003:00005c28       _siepowercan_firmware_initialized 10054c28     xpctarget.obj
 0003:00005c2c       _siepowercan_port1_configured 10054c2c     xpctarget.obj
 0003:00005c30       _siepowercan_port2_configured 10054c30     xpctarget.obj
 0003:00005c34       _CANAC2_FIRMWARE_LOADED    10054c34     xpctarget.obj
 0003:00005c38       _rs232ports                10054c38     xpctarget.obj
 0003:00005c48       _NI_AT_MIO_16F_5_commreg2  10054c48     xpctarget.obj
 0003:00005c4c       _RTD_DM6430_init           10054c4c     xpctarget.obj
 0003:00005c50       _RTD_DM6420_init           10054c50     xpctarget.obj
 0003:00005c54       _CANAC2_FIRMWARE_LOADED_mb1 10054c54     xpctarget.obj
 0003:00005c58       _CANAC2_FIRMWARE_LOADED_mb2 10054c58     xpctarget.obj
 0003:00005c5c       _CANAC2_FIRMWARE_LOADED_mb3 10054c5c     xpctarget.obj
 0003:00006230       ___fastflag                10055230     LIBCMT:fpinit.obj
 0003:00006558       __C_Exit_Done              10055558     LIBCMT:crt0dat.obj
 0003:0000655c       ___argc                    1005555c     LIBCMT:crt0dat.obj
 0003:00006560       ___argv                    10055560     LIBCMT:crt0dat.obj
 0003:00006564       ___wargv                   10055564     LIBCMT:crt0dat.obj
 0003:00006568       __environ                  10055568     LIBCMT:crt0dat.obj
 0003:0000656c       __wenviron                 1005556c     LIBCMT:crt0dat.obj
 0003:00006570       __pgmptr                   10055570     LIBCMT:crt0dat.obj
 0003:00006574       __wpgmptr                  10055574     LIBCMT:crt0dat.obj
 0003:00006578       __umaskval                 10055578     LIBCMT:crt0dat.obj
 0003:0000657c       __exitflag                 1005557c     LIBCMT:crt0dat.obj
 0003:00006580       __C_Termination_Done       10055580     LIBCMT:crt0dat.obj
 0003:00006584       ___winitenv                10055584     LIBCMT:crt0dat.obj
 0003:00006588       ___initenv                 10055588     LIBCMT:crt0dat.obj
 0003:0000658c       __cflush                   1005558c     LIBCMT:_file.obj
 0003:00006594       __aenvptr                  10055594     LIBCMT:dllcrt0.obj
 0003:00006598       __wenvptr                  10055598     LIBCMT:dllcrt0.obj
 0003:0000659c       ?_pnhHeap@@3P6AHI@ZA       1005559c     LIBCMT:handler.obj
 0003:000065a0       ___app_type                100555a0     LIBCMT:crt0msg.obj
 0003:00006bd0       __newmode                  10055bd0     LIBCMT:_newmode.obj
 0003:00006bd4       __crtheap                  10055bd4     LIBCMT:heapinit.obj
 0003:00006bd8       ___isa_available           10055bd8     LIBCMT:cpu_disp.obj
 0003:00006bdc       ___favor                   10055bdc     LIBCMT:cpu_disp.obj
 0003:00006be0       ___pInvalidArgHandler      10055be0     LIBCMT:invarg.obj
 0003:00006be4       __stdbuf                   10055be4     LIBCMT:_sftbuf.obj
 0003:00006d40       __maxwait                  10055d40     LIBCMT:crtheap.obj
 0003:00006d44       ?__pInconsistency@@3P6AXXZA 10055d44     LIBCMT:hooks.obj
 0003:00006d48       ___pPurecall               10055d48     LIBCMT:inithelp.obj
 0003:00006d64       ___mbcodepage              10055d64     LIBCMT:mbctype.obj
 0003:00006d68       ___ismbcodepage            10055d68     LIBCMT:mbctype.obj
 0003:00006d6c       ___mbulinfo                10055d6c     LIBCMT:mbctype.obj
 0003:00006d78       ___mblocalename            10055d78     LIBCMT:mbctype.obj
 0003:00006d80       ___pioinfo                 10055d80     LIBCMT:ioinit.obj
 0003:00006e84       ___error_mode              10055e84     LIBCMT:errmode.obj
 0003:00006fa8       __outputformat             10055fa8     LIBCMT:outputformat.obj
 0003:00006fb0       __commode                  10055fb0     LIBCMT:ncommode.obj
 0003:00006fb4       ___lconv_static_null       10055fb4     LIBCMT:lconv.obj
 0003:00006fb8       ___lconv_static_W_null     10055fb8     LIBCMT:lconv.obj
 0003:00006fbc       ___locale_changed          10055fbc     LIBCMT:wsetloca.obj
 0003:00006fc0       __fmode                    10055fc0     LIBCMT:txtmode.obj
 0003:00006fe0       _CANAC2_2_receiveindex_mb3 10055fe0     <common>
 0003:0000a0b4       _CANAC2_2_receivemaxindex_mb3 100590b4     <common>
 0003:0000a0c0       _CANAC2_2_sendindex_mb3    100590c0     <common>
 0003:0000a3e0       _CANAC2_2_sendmaxindex_mb3 100593e0     <common>
 0003:0000a400       _CANAC2_1_receiveindex_mb3 10059400     <common>
 0003:0000a720       _CANAC2_1_receivemaxindex_mb3 10059720     <common>
 0003:0000a740       _CANAC2_1_sendindex_mb3    10059740     <common>
 0003:0000aa60       _CANAC2_1_sendmaxindex_mb3 10059a60     <common>
 0003:0000aa80       _CANAC2_2_receive_mb3      10059a80     <common>
 0003:0000ada0       _CANAC2_2_send_mb3         10059da0     <common>
 0003:0000b0c0       _CANAC2_1_receive_mb3      1005a0c0     <common>
 0003:0000b3e0       _CANAC2_1_send_mb3         1005a3e0     <common>
 0003:0000b700       _CANAC2_2_receiveindex_mb2 1005a700     <common>
 0003:0000ba20       _CANAC2_2_receivemaxindex_mb2 1005aa20     <common>
 0003:0000ba40       _CANAC2_2_sendindex_mb2    1005aa40     <common>
 0003:0000bd60       _CANAC2_2_sendmaxindex_mb2 1005ad60     <common>
 0003:0000bd80       _CANAC2_1_receiveindex_mb2 1005ad80     <common>
 0003:0000c0a0       _CANAC2_1_receivemaxindex_mb2 1005b0a0     <common>
 0003:0000c0c0       _CANAC2_1_sendindex_mb2    1005b0c0     <common>
 0003:0000c3e0       _CANAC2_1_sendmaxindex_mb2 1005b3e0     <common>
 0003:0000c400       _CANAC2_2_receive_mb2      1005b400     <common>
 0003:0000c720       _CANAC2_2_send_mb2         1005b720     <common>
 0003:0000ca40       _CANAC2_1_receive_mb2      1005ba40     <common>
 0003:0000cd60       _CANAC2_1_send_mb2         1005bd60     <common>
 0003:0000d080       _CANAC2_2_receiveindex_mb1 1005c080     <common>
 0003:0000d3a0       _CANAC2_2_receivemaxindex_mb1 1005c3a0     <common>
 0003:0000d3c0       _CANAC2_2_sendindex_mb1    1005c3c0     <common>
 0003:0000d6e0       _CANAC2_2_sendmaxindex_mb1 1005c6e0     <common>
 0003:0000d700       _CANAC2_1_receiveindex_mb1 1005c700     <common>
 0003:0000da20       _CANAC2_1_receivemaxindex_mb1 1005ca20     <common>
 0003:0000da40       _CANAC2_1_sendindex_mb1    1005ca40     <common>
 0003:0000dd60       _CANAC2_1_sendmaxindex_mb1 1005cd60     <common>
 0003:0000dd80       _CANAC2_2_receive_mb1      1005cd80     <common>
 0003:0000e0a0       _CANAC2_2_send_mb1         1005d0a0     <common>
 0003:0000e3c0       _CANAC2_1_receive_mb1      1005d3c0     <common>
 0003:0000e6e0       _CANAC2_1_send_mb1         1005d6e0     <common>
 0003:0000ea00       _CANAC2_2_receiveindex     1005da00     <common>
 0003:0000ed20       _CANAC2_2_receivemaxindex  1005dd20     <common>
 0003:0000ed40       _CANAC2_2_sendindex        1005dd40     <common>
 0003:0000f060       _CANAC2_2_sendmaxindex     1005e060     <common>
 0003:0000f080       _CANAC2_1_receiveindex     1005e080     <common>
 0003:0000f3a0       _CANAC2_1_receivemaxindex  1005e3a0     <common>
 0003:0000f3c0       _CANAC2_1_sendindex        1005e3c0     <common>
 0003:0000f6e0       _CANAC2_1_sendmaxindex     1005e6e0     <common>
 0003:0000f700       _CANAC2_2_receive          1005e700     <common>
 0003:0000fa20       _CANAC2_2_send             1005ea20     <common>
 0003:0000fd40       _CANAC2_1_receive          1005ed40     <common>
 0003:00010060       _CANAC2_1_send             1005f060     <common>
 0003:00010380       _siepowercan_can_object_buffer_port2 1005f380     <common>
 0003:000143a0       _siepowercan_can_object_buffer_port1 100633a0     <common>
 0003:000183a0       _rtNaNF                    100673a0     <common>
 0003:000183b4       _rtMinusInfF               100673b4     <common>
 0003:000183b8       _rtInfF                    100673b8     <common>
 0003:000183c0       _rtNaN                     100673c0     <common>
 0003:000183c8       _rtMinusInf                100673c8     <common>
 0003:000183d0       _rtInf                     100673d0     <common>
 0003:000183e0       _firstTest_M_              100673e0     <common>
 0003:00019980       _firstTest_DW              10068980     <common>
 0003:00019b00       _firstTest_B               10068b00     <common>
 0003:00019be0       _ReadFrameBuffer           10068be0     <common>
 0003:00019c40       _StartVideo                10068c40     <common>
 0003:00019c44       _GetVideoConfigs           10068c44     <common>
 0003:00019c48       _FindUsbVideoDevice        10068c48     <common>
 0003:00019c4c       _xpceDeleteSemaphore       10068c4c     <common>
 0003:00019c50       _xpceSignalSemaphore       10068c50     <common>
 0003:00019c54       _xpceWaitSemaphore         10068c54     <common>
 0003:00019c58       _xpceCreateSemaphore       10068c58     <common>
 0003:00019c5c       _TBGiveSpinFast            10068c5c     <common>
 0003:00019c60       _TBTakeSpinFast            10068c60     <common>
 0003:00019c64       _TBDeleteSpin              10068c64     <common>
 0003:00019c68       _TBCreateSpin              10068c68     <common>
 0003:00019c6c       _xpceScopeAcqOK            10068c6c     <common>
 0003:00019c70       _rl32eRestartAcquisition   10068c70     <common>
 0003:00019c74       _rl32eSetTargetScopeSigFt  10068c74     <common>
 0003:00019c78       _rl32eSetTargetScope       10068c78     <common>
 0003:00019c7c       _xpceFSScopeSet            10068c7c     <common>
 0003:00019c80       _rl32eSetScope             10068c80     <common>
 0003:00019c84       _rl32eAddSignal            10068c84     <common>
 0003:00019c88       _rl32eGetSignalNo          10068c88     <common>
 0003:00019c8c       _rl32eDefScope             10068c8c     <common>
 0003:00019c90       _rl32eScopeExists          10068c90     <common>
 0003:00019c94       _xpceGetParamDims          10068c94     <common>
 0003:00019c98       _xpceGetParameter          10068c98     <common>
 0003:00019c9c       _xpceSetParameter          10068c9c     <common>
 0003:00019ca0       _xpceGetSignalValue        10068ca0     <common>
 0003:00019ca4       _xpceAssignPCIInterrupt    10068ca4     <common>
 0003:00019ca8       _rl32eGetPCIInfoAtSlot     10068ca8     <common>
 0003:00019cac       _rl32eGetPCIInfo           10068cac     <common>
 0003:00019cb0       _rl32eShowPCIInfo          10068cb0     <common>
 0003:00019cb4       _rl32eShowPCIDev           10068cb4     <common>
 0003:00019cb8       _xpceGetTET                10068cb8     <common>
 0003:00019cbc       _xpceaddEvent              10068cbc     <common>
 0003:00019cc0       _xpceDeRegisterISR         10068cc0     <common>
 0003:00019cc4       _xpceRegisterISR           10068cc4     <common>
 0003:00019cc8       _xpcIsModelInit            10068cc8     <common>
 0003:00019ccc       _xpcGetElapsedTime         10068ccc     <common>
 0003:00019cd0       _xpcBusyWait               10068cd0     <common>
 0003:00019cd4       _xpcFreePhysicalMemory     10068cd4     <common>
 0003:00019cd8       _xpcAllocPhysicalMemory    10068cd8     <common>
 0003:00019cdc       _xpcReserveMemoryRegion    10068cdc     <common>
 0003:00019ce0       _xpcOutpB                  10068ce0     <common>
 0003:00019ce4       _xpcOutpW                  10068ce4     <common>
 0003:00019ce8       _xpcOutpDW                 10068ce8     <common>
 0003:00019cec       _xpcInpB                   10068cec     <common>
 0003:00019cf0       _xpcInpW                   10068cf0     <common>
 0003:00019cf4       _xpcInpDW                  10068cf4     <common>
 0003:00019cf8       _socket                    10068cf8     <common>
 0003:00019cfc       _inet_addr                 10068cfc     <common>
 0003:00019d00       _sendto                    10068d00     <common>
 0003:00019d04       _recvfrom                  10068d04     <common>
 0003:00019d08       _listen                    10068d08     <common>
 0003:00019d0c       _ioctlsocket               10068d0c     <common>
 0003:00019d10       _connect                   10068d10     <common>
 0003:00019d14       _closesocket               10068d14     <common>
 0003:00019d18       _setsockopt                10068d18     <common>
 0003:00019d1c       _bind                      10068d1c     <common>
 0003:00019d20       _accept                    10068d20     <common>
 0003:00019d24       _GetHostTarIPAdd           10068d24     <common>
 0003:00019d28       _GetDCUUsage               10068d28     <common>
 0003:00019d2c       _DeleteRoute               10068d2c     <common>
 0003:00019d30       _AddGatewayRoute           10068d30     <common>
 0003:00019d34       _SetIP                     10068d34     <common>
 0003:00019d38       _CloseInterface            10068d38     <common>
 0003:00019d3c       _OpenInterface             10068d3c     <common>
 0003:00019d40       _SetIPTASKPriority         10068d40     <common>
 0003:00019d44       _isUsedByRTIP              10068d44     <common>
 0003:00019d48       _getlasterror              10068d48     <common>
 0003:00019d4c       _slrtfsGetFileStatus       10068d4c     <common>
 0003:00019d50       _slrtfsOpenFileAsync       10068d50     <common>
 0003:00019d54       _slrtfsCloseFileAsync      10068d54     <common>
 0003:00019d58       _slrtfsGetFileErrorMessage 10068d58     <common>
 0003:00019d5c       _slrtfsGetFileError        10068d5c     <common>
 0003:00019d60       _slrtfsWriteToFile         10068d60     <common>
 0003:00019d64       _slrtfsCloseFile           10068d64     <common>
 0003:00019d68       _slrtfsOpenFile            10068d68     <common>
 0003:00019d6c       _slrtGetSgCRBSpace         10068d6c     <common>
 0003:00019d70       _slrtGetCRBScratchSpace    10068d70     <common>
 0003:00019d74       _slrteSetupMSI             10068d74     <common>
 0003:00019d78       _slTestRegAssessment       10068d78     <common>
 0003:00019d7c       _slTestTerminate           10068d7c     <common>
 0003:00019d80       _slTestEvalOnFail          10068d80     <common>
 0003:00019d84       _slTestLogAssessments      10068d84     <common>
 0003:00019d88       _slTestInitialize          10068d88     <common>
 0003:00019d8c       _unRegisterPTPTimeRead     10068d8c     <common>
 0003:00019d90       _registerPTPTimeRead       10068d90     <common>
 0003:00019d94       _slrteGetCurrentStepSize   10068d94     <common>
 0003:00019d98       _slrteSetStepSizeDelta     10068d98     <common>
 0003:00019d9c       _xpceGetIntTimerGranularityNS 10068d9c     <common>
 0003:00019da0       _sendToAsyncQueueTgtAppSvc 10068da0     <common>
 0003:00019da4       _terminateToAsyncQueueTgtAppSvc 10068da4     <common>
 0003:00019da8       _startToAsyncQueueTgtAppSvc 10068da8     <common>
 0003:00019dac       _getStatusFlags            10068dac     <common>
 0003:00019db0       _getCommService            10068db0     <common>
 0003:00019db4       _getMemoryService          10068db4     <common>
 0003:00019db8       _StreamVideo               10068db8     <common>
 0003:00019dbc       _StopVideoDisplay          10068dbc     <common>
 0003:00019dc0       _StartVideoDisplay         10068dc0     <common>
 0003:00019dc4       _DestroyVideoDisplay       10068dc4     <common>
 0003:00019dc8       _CreateVideoDisplay        10068dc8     <common>
 0003:00019dcc       _ConvertUImage             10068dcc     <common>
 0003:00019dd0       _StopVideo                 10068dd0     <common>
 0003:00019dd4       ___unguarded_readlc_active 10068dd4     <common>
 0003:00019de4       ___setlc_active            10068de4     <common>
 0003:00019de8       ___use_sse2_mathfcns       10068de8     <common>
 0003:00019df4       __pmatherr                 10068df4     <common>
 0003:00019e00       __nhandle                  10068e00     <common>
 0003:00019e20       _encodedKERNEL32Functions  10068e20     <common>
 0003:00019ec8       __debugger_hook_dummy      10068ec8     <common>
 0003:00019ed4       __pDestructExceptionObject 10068ed4     <common>
 0003:00019ee0       __acmdln                   10068ee0     <common>
 0003:00019f00       __bufin                    10068f00     <common>
 0003:0001b23c       ___piob                    1006a23c     <common>
 0003:0001b240       __nstream                  1006a240     <common>
 0003:0001b244       ___dyn_tls_init_callback   1006a244     <common>
 0003:0001b254       ___onexitend               1006a254     <common>
 0003:0001b258       ___onexitbegin             1006a258     <common>
 0003:0001b25c       ___mbctype_initialized     1006a25c     <common>
 0003:0001b260       ___env_initialized         1006a260     <common>
 0004:00000000       __imp__GetModuleHandleA@4  1006b000     kernel32:KERNEL32.dll
 0004:00000004       __imp__GetProcAddress@8    1006b004     kernel32:KERNEL32.dll
 0004:00000008       __imp__HeapAlloc@12        1006b008     kernel32:KERNEL32.dll
 0004:0000000c       __imp__IsDebuggerPresent@0 1006b00c     kernel32:KERNEL32.dll
 0004:00000010       __imp__IsProcessorFeaturePresent@4 1006b010     kernel32:KERNEL32.dll
 0004:00000014       __imp__EncodePointer@4     1006b014     kernel32:KERNEL32.dll
 0004:00000018       __imp__DecodePointer@4     1006b018     kernel32:KERNEL32.dll
 0004:0000001c       __imp__GetLastError@0      1006b01c     kernel32:KERNEL32.dll
 0004:00000020       __imp__ExitProcess@4       1006b020     kernel32:KERNEL32.dll
 0004:00000024       __imp__GetModuleHandleExW@12 1006b024     kernel32:KERNEL32.dll
 0004:00000028       __imp__AreFileApisANSI@0   1006b028     kernel32:KERNEL32.dll
 0004:0000002c       __imp__MultiByteToWideChar@24 1006b02c     kernel32:KERNEL32.dll
 0004:00000030       __imp__WideCharToMultiByte@32 1006b030     kernel32:KERNEL32.dll
 0004:00000034       __imp__HeapFree@12         1006b034     kernel32:KERNEL32.dll
 0004:00000038       __imp__HeapReAlloc@16      1006b038     kernel32:KERNEL32.dll
 0004:0000003c       __imp__EnterCriticalSection@4 1006b03c     kernel32:KERNEL32.dll
 0004:00000040       __imp__LeaveCriticalSection@4 1006b040     kernel32:KERNEL32.dll
 0004:00000044       __imp__GetStdHandle@4      1006b044     kernel32:KERNEL32.dll
 0004:00000048       __imp__GetFileType@4       1006b048     kernel32:KERNEL32.dll
 0004:0000004c       __imp__GetModuleFileNameW@12 1006b04c     kernel32:KERNEL32.dll
 0004:00000050       __imp__WriteConsoleW@20    1006b050     kernel32:KERNEL32.dll
 0004:00000054       __imp__GetCommandLineA@0   1006b054     kernel32:KERNEL32.dll
 0004:00000058       __imp__GetCurrentThreadId@0 1006b058     kernel32:KERNEL32.dll
 0004:0000005c       __imp__WriteFile@20        1006b05c     kernel32:KERNEL32.dll
 0004:00000060       __imp__GetProcessHeap@0    1006b060     kernel32:KERNEL32.dll
 0004:00000064       __imp__UnhandledExceptionFilter@4 1006b064     kernel32:KERNEL32.dll
 0004:00000068       __imp__SetUnhandledExceptionFilter@4 1006b068     kernel32:KERNEL32.dll
 0004:0000006c       __imp__SetLastError@4      1006b06c     kernel32:KERNEL32.dll
 0004:00000070       __imp__InitializeCriticalSectionAndSpinCount@8 1006b070     kernel32:KERNEL32.dll
 0004:00000074       __imp__CreateEventW@16     1006b074     kernel32:KERNEL32.dll
 0004:00000078       __imp__Sleep@4             1006b078     kernel32:KERNEL32.dll
 0004:0000007c       __imp__GetCurrentProcess@0 1006b07c     kernel32:KERNEL32.dll
 0004:00000080       __imp__TerminateProcess@8  1006b080     kernel32:KERNEL32.dll
 0004:00000084       __imp__TlsAlloc@0          1006b084     kernel32:KERNEL32.dll
 0004:00000088       __imp__TlsGetValue@4       1006b088     kernel32:KERNEL32.dll
 0004:0000008c       __imp__TlsSetValue@8       1006b08c     kernel32:KERNEL32.dll
 0004:00000090       __imp__TlsFree@4           1006b090     kernel32:KERNEL32.dll
 0004:00000094       __imp__GetStartupInfoW@4   1006b094     kernel32:KERNEL32.dll
 0004:00000098       __imp__GetTickCount@0      1006b098     kernel32:KERNEL32.dll
 0004:0000009c       __imp__GetModuleHandleW@4  1006b09c     kernel32:KERNEL32.dll
 0004:000000a0       __imp__CreateSemaphoreW@16 1006b0a0     kernel32:KERNEL32.dll
 0004:000000a4       __imp__DeleteCriticalSection@4 1006b0a4     kernel32:KERNEL32.dll
 0004:000000a8       __imp__FatalAppExitA@8     1006b0a8     kernel32:KERNEL32.dll
 0004:000000ac       __imp__SetConsoleCtrlHandler@8 1006b0ac     kernel32:KERNEL32.dll
 0004:000000b0       __imp__FreeLibrary@4       1006b0b0     kernel32:KERNEL32.dll
 0004:000000b4       __imp__LoadLibraryExW@12   1006b0b4     kernel32:KERNEL32.dll
 0004:000000b8       __imp__IsValidCodePage@4   1006b0b8     kernel32:KERNEL32.dll
 0004:000000bc       __imp__GetACP@0            1006b0bc     kernel32:KERNEL32.dll
 0004:000000c0       __imp__GetOEMCP@0          1006b0c0     kernel32:KERNEL32.dll
 0004:000000c4       __imp__GetCPInfo@8         1006b0c4     kernel32:KERNEL32.dll
 0004:000000c8       __imp__CloseHandle@4       1006b0c8     kernel32:KERNEL32.dll
 0004:000000cc       __imp__RtlUnwind@16        1006b0cc     kernel32:KERNEL32.dll
 0004:000000d0       __imp__ReadFile@20         1006b0d0     kernel32:KERNEL32.dll
 0004:000000d4       __imp__GetConsoleMode@8    1006b0d4     kernel32:KERNEL32.dll
 0004:000000d8       __imp__ReadConsoleW@20     1006b0d8     kernel32:KERNEL32.dll
 0004:000000dc       __imp__GetConsoleCP@0      1006b0dc     kernel32:KERNEL32.dll
 0004:000000e0       __imp__DeleteFileW@4       1006b0e0     kernel32:KERNEL32.dll
 0004:000000e4       __imp__SetFilePointerEx@20 1006b0e4     kernel32:KERNEL32.dll
 0004:000000e8       __imp__RaiseException@16   1006b0e8     kernel32:KERNEL32.dll
 0004:000000ec       __imp__OutputDebugStringW@4 1006b0ec     kernel32:KERNEL32.dll
 0004:000000f0       __imp__GetCurrentThread@0  1006b0f0     kernel32:KERNEL32.dll
 0004:000000f4       __imp__GetModuleFileNameA@12 1006b0f4     kernel32:KERNEL32.dll
 0004:000000f8       __imp__QueryPerformanceCounter@4 1006b0f8     kernel32:KERNEL32.dll
 0004:000000fc       __imp__GetCurrentProcessId@0 1006b0fc     kernel32:KERNEL32.dll
 0004:00000100       __imp__GetSystemTimeAsFileTime@4 1006b100     kernel32:KERNEL32.dll
 0004:00000104       __imp__GetEnvironmentStringsW@0 1006b104     kernel32:KERNEL32.dll
 0004:00000108       __imp__FreeEnvironmentStringsW@4 1006b108     kernel32:KERNEL32.dll
 0004:0000010c       __imp__HeapSize@12         1006b10c     kernel32:KERNEL32.dll
 0004:00000110       __imp__GetDateFormatW@24   1006b110     kernel32:KERNEL32.dll
 0004:00000114       __imp__GetTimeFormatW@24   1006b114     kernel32:KERNEL32.dll
 0004:00000118       __imp__CompareStringW@24   1006b118     kernel32:KERNEL32.dll
 0004:0000011c       __imp__LCMapStringW@24     1006b11c     kernel32:KERNEL32.dll
 0004:00000120       __imp__GetLocaleInfoW@16   1006b120     kernel32:KERNEL32.dll
 0004:00000124       __imp__IsValidLocale@8     1006b124     kernel32:KERNEL32.dll
 0004:00000128       __imp__GetUserDefaultLCID@0 1006b128     kernel32:KERNEL32.dll
 0004:0000012c       __imp__EnumSystemLocalesW@8 1006b12c     kernel32:KERNEL32.dll
 0004:00000130       __imp__GetStringTypeW@16   1006b130     kernel32:KERNEL32.dll
 0004:00000134       __imp__FlushFileBuffers@4  1006b134     kernel32:KERNEL32.dll
 0004:00000138       __imp__SetStdHandle@8      1006b138     kernel32:KERNEL32.dll
 0004:0000013c       __imp__CreateFileW@28      1006b13c     kernel32:KERNEL32.dll
 0004:00000140       __imp__SetEndOfFile@4      1006b140     kernel32:KERNEL32.dll
 0004:00000144       \177KERNEL32_NULL_THUNK_DATA 1006b144     kernel32:KERNEL32.dll
 0004:000001b0       __IMPORT_DESCRIPTOR_KERNEL32 1006b1b0     kernel32:KERNEL32.dll
 0004:000001c4       __NULL_IMPORT_DESCRIPTOR   1006b1c4     kernel32:KERNEL32.dll
