 feedback_plant_sfun

 Timestamp is 57b2e022 (Tue Aug 16 11:42:58 2016)

 Preferred load address is 0000000180000000

 Start         Length     Name                   Class
 0001:00000000 0001986eH .text                   CODE
 0001:00019870 0000007bH .text$x                 CODE
 0002:00000000 00000490H .idata$5                DATA
 0002:00000490 00000008H .CRT$XCA                DATA
 0002:00000498 00000008H .CRT$XCZ                DATA
 0002:000004a0 00000008H .CRT$XIA                DATA
 0002:000004a8 00000008H .CRT$XIAA               DATA
 0002:000004b0 00000008H .CRT$XIC                DATA
 0002:000004b8 00000008H .CRT$XIZ                DATA
 0002:000004c0 00000750H .rdata                  DATA
 0002:00000c10 00000008H .rtc$IAA                DATA
 0002:00000c18 00000008H .rtc$IZZ                DATA
 0002:00000c20 00000008H .rtc$TAA                DATA
 0002:00000c28 00000008H .rtc$TZZ                DATA
 0002:00000c30 00000b68H .xdata                  DATA
 0002:00001798 00000078H .idata$2                DATA
 0002:00001810 00000014H .idata$3                DATA
 0002:00001828 00000490H .idata$4                DATA
 0002:00001cb8 00000d1cH .idata$6                DATA
 0002:000029e0 00000059H .edata                  DATA
 0003:00000000 00002d74H .data                   DATA
 0003:00002d80 000006d8H .bss                    DATA
 0004:00000000 00000d8cH .pdata                  DATA

  Address         Publics by Value              Rva+Base               Lib:Object

 0000:00000000       ___safe_se_handler_count   0000000000000000     <absolute>
 0000:00000000       ___safe_se_handler_table   0000000000000000     <absolute>
 0000:00000000       __ImageBase                0000000180000000     <linker-defined>
 0001:00000000       feedback_plant_initializer 0000000180001000 f   feedback_plant_sfun.obj
 0001:00000010       feedback_plant_terminator  0000000180001010 f   feedback_plant_sfun.obj
 0001:00000020       load_feedback_plant_optimization_info 0000000180001020 f   feedback_plant_sfun.obj
 0001:000000d0       unload_feedback_plant_optimization_info 00000001800010d0 f   feedback_plant_sfun.obj
 0001:00000100       sf_feedback_plant_method_dispatcher 0000000180001100 f   feedback_plant_sfun.obj
 0001:00000190       sf_feedback_plant_process_testpoint_info_call 0000000180001190 f   feedback_plant_sfun.obj
 0001:00000350       sf_feedback_plant_process_check_sum_call 0000000180001350 f   feedback_plant_sfun.obj
 0001:00000930       sf_feedback_plant_autoinheritance_info 0000000180001930 f   feedback_plant_sfun.obj
 0001:00000be0       sf_feedback_plant_get_eml_resolved_functions_info 0000000180001be0 f   feedback_plant_sfun.obj
 0001:00000de0       sf_feedback_plant_third_party_uses_info 0000000180001de0 f   feedback_plant_sfun.obj
 0001:00001020       sf_feedback_plant_jit_fallback_info 0000000180002020 f   feedback_plant_sfun.obj
 0001:00001260       sf_feedback_plant_updateBuildInfo_args_info 0000000180002260 f   feedback_plant_sfun.obj
 0001:000014a0       feedback_plant_debug_initialize 00000001800024a0 f   feedback_plant_sfun.obj
 0001:00001520       feedback_plant_register_exported_symbols 0000000180002520 f   feedback_plant_sfun.obj
 0001:00001530       sf_c1_feedback_plant_get_eml_resolved_functions_info 0000000180002530 f   c1_feedback_plant.obj
 0001:000015b0       sf_c1_feedback_plant_get_check_sum 00000001800025b0 f   c1_feedback_plant.obj
 0001:00001680       c1_feedback_plant_method_dispatcher 0000000180002680 f   c1_feedback_plant.obj
 0001:00003fe0       sf_c1_feedback_plant_get_post_codegen_info 0000000180004fe0 f   c1_feedback_plant.obj
 0001:000040b0       sf_c1_feedback_plant_get_autoinheritance_info 00000001800050b0 f   c1_feedback_plant.obj
 0001:00004b80       sf_c1_feedback_plant_third_party_uses_info 0000000180005b80 f   c1_feedback_plant.obj
 0001:00004bb0       sf_c1_feedback_plant_jit_fallback_info 0000000180005bb0 f   c1_feedback_plant.obj
 0001:00004d20       sf_c1_feedback_plant_updateBuildInfo_args_info 0000000180005d20 f   c1_feedback_plant.obj
 0001:000059a0       sf_c18_feedback_plant_get_eml_resolved_functions_info 00000001800069a0 f   c18_feedback_plant.obj
 0001:00005a20       sf_c18_feedback_plant_get_check_sum 0000000180006a20 f   c18_feedback_plant.obj
 0001:00005af0       c18_feedback_plant_method_dispatcher 0000000180006af0 f   c18_feedback_plant.obj
 0001:0000a240       sf_c18_feedback_plant_get_post_codegen_info 000000018000b240 f   c18_feedback_plant.obj
 0001:0000a310       sf_c18_feedback_plant_get_autoinheritance_info 000000018000b310 f   c18_feedback_plant.obj
 0001:0000a8c0       sf_c18_feedback_plant_third_party_uses_info 000000018000b8c0 f   c18_feedback_plant.obj
 0001:0000a8f0       sf_c18_feedback_plant_jit_fallback_info 000000018000b8f0 f   c18_feedback_plant.obj
 0001:0000aa60       sf_c18_feedback_plant_updateBuildInfo_args_info 000000018000ba60 f   c18_feedback_plant.obj
 0001:0000b6a0       sf_c19_feedback_plant_get_eml_resolved_functions_info 000000018000c6a0 f   c19_feedback_plant.obj
 0001:0000b720       sf_c19_feedback_plant_get_check_sum 000000018000c720 f   c19_feedback_plant.obj
 0001:0000b7f0       c19_feedback_plant_method_dispatcher 000000018000c7f0 f   c19_feedback_plant.obj
 0001:0000fd90       sf_c19_feedback_plant_get_post_codegen_info 0000000180010d90 f   c19_feedback_plant.obj
 0001:0000fe60       sf_c19_feedback_plant_get_autoinheritance_info 0000000180010e60 f   c19_feedback_plant.obj
 0001:00010410       sf_c19_feedback_plant_third_party_uses_info 0000000180011410 f   c19_feedback_plant.obj
 0001:00010440       sf_c19_feedback_plant_jit_fallback_info 0000000180011440 f   c19_feedback_plant.obj
 0001:000105b0       sf_c19_feedback_plant_updateBuildInfo_args_info 00000001800115b0 f   c19_feedback_plant.obj
 0001:000111f0       mexFunction                00000001800121f0 f   feedback_plant_sfun_registry.obj
 0001:000125c0       _ssSetInputPortDirectFeedThroughFcn 00000001800135c0 f   feedback_plant_sfun_registry.obj
 0001:00012770       _ssGetInputPortSignalPtrsFcn 0000000180013770 f   feedback_plant_sfun_registry.obj
 0001:00012a40       _ssGetInputPortSignalFcn   0000000180013a40 f   feedback_plant_sfun_registry.obj
 0001:00012d10       _ssSetInputPortReusableFcn 0000000180013d10 f   feedback_plant_sfun_registry.obj
 0001:00012df0       _ssSetOutputPortReusableFcn 0000000180013df0 f   feedback_plant_sfun_registry.obj
 0001:00012ed0       _ssSetSymbolicDimsSupport  0000000180013ed0 f   feedback_plant_sfun_registry.obj
 0001:00012f40       _ssRegisterSymbolicDimsExpr 0000000180013f40 f   feedback_plant_sfun_registry.obj
 0001:00012fc0       _ssRegisterSymbolicDims    0000000180013fc0 f   feedback_plant_sfun_registry.obj
 0001:00013060       _ssRegisterSymbolicDimsString 0000000180014060 f   feedback_plant_sfun_registry.obj
 0001:000130e0       _ssRegisterSymbolicDimsIntValue 00000001800140e0 f   feedback_plant_sfun_registry.obj
 0001:00013150       _ssRegisterSymbolicDimsPlus 0000000180014150 f   feedback_plant_sfun_registry.obj
 0001:000131d0       _ssRegisterSymbolicDimsMinus 00000001800141d0 f   feedback_plant_sfun_registry.obj
 0001:00013250       _ssRegisterSymbolicDimsMultiply 0000000180014250 f   feedback_plant_sfun_registry.obj
 0001:000132d0       _ssRegisterSymbolicDimsDivide 00000001800142d0 f   feedback_plant_sfun_registry.obj
 0001:00013350       _ssGetNumSymbolicDims      0000000180014350 f   feedback_plant_sfun_registry.obj
 0001:000133c0       _ssGetSymbolicDim          00000001800143c0 f   feedback_plant_sfun_registry.obj
 0001:00013440       _ssSetInputPortSymbolicDimsId 0000000180014440 f   feedback_plant_sfun_registry.obj
 0001:000134b0       _ssGetCompInputPortSymbolicDimsId 00000001800144b0 f   feedback_plant_sfun_registry.obj
 0001:00013520       _ssSetCompInputPortSymbolicDimsId 0000000180014520 f   feedback_plant_sfun_registry.obj
 0001:00013590       _ssSetOutputPortSymbolicDimsId 0000000180014590 f   feedback_plant_sfun_registry.obj
 0001:00013600       _ssGetCompOutputPortSymbolicDimsId 0000000180014600 f   feedback_plant_sfun_registry.obj
 0001:00013670       _ssSetCompOutputPortSymbolicDimsId 0000000180014670 f   feedback_plant_sfun_registry.obj
 0001:000136e0       _ssSetCompDWorkSymbolicDimsId 00000001800146e0 f   feedback_plant_sfun_registry.obj
 0001:00013750       ssGetIsZeroCrossControlDisabled 0000000180014750 f   feedback_plant_sfun_registry.obj
 0001:000137c0       ssSetIsInputPortUsedForContZcSignal 00000001800147c0 f   feedback_plant_sfun_registry.obj
 0001:00013830       ssSetZcSignalIsZcElementDisc 0000000180014830 f   feedback_plant_sfun_registry.obj
 0001:000138e0       ssSetZcSignalName          00000001800148e0 f   feedback_plant_sfun_registry.obj
 0001:00013950       ssSetZcSignalWidth         0000000180014950 f   feedback_plant_sfun_registry.obj
 0001:000139c0       ssSetZcSignalZcEventType   00000001800149c0 f   feedback_plant_sfun_registry.obj
 0001:00013a30       ssSetZcSignalType          0000000180014a30 f   feedback_plant_sfun_registry.obj
 0001:00013aa0       ssSetZcSignalZcTol         0000000180014aa0 f   feedback_plant_sfun_registry.obj
 0001:00013b10       ssSetZcSignalNeedsEventNotification 0000000180014b10 f   feedback_plant_sfun_registry.obj
 0001:00013b80       ssCreateAndAddZcSignalInfo 0000000180014b80 f   feedback_plant_sfun_registry.obj
 0001:00013bf0       ssCloneAndAddZcSignalInfo  0000000180014bf0 f   feedback_plant_sfun_registry.obj
 0001:00013c60       ssGetNumZcSignals          0000000180014c60 f   feedback_plant_sfun_registry.obj
 0001:00013cd0       ssGetZcSignalVector        0000000180014cd0 f   feedback_plant_sfun_registry.obj
 0001:00013d40       ssGetZcSignalName          0000000180014d40 f   feedback_plant_sfun_registry.obj
 0001:00013db0       ssGetZcSignalWidth         0000000180014db0 f   feedback_plant_sfun_registry.obj
 0001:00013e20       ssGetZcSignalZcEventType   0000000180014e20 f   feedback_plant_sfun_registry.obj
 0001:00013e90       ssGetZcSignalZcEvents      0000000180014e90 f   feedback_plant_sfun_registry.obj
 0001:00013f00       ssGetZcSignalType          0000000180014f00 f   feedback_plant_sfun_registry.obj
 0001:00013f70       ssGetZcSignalZcTol         0000000180014f70 f   feedback_plant_sfun_registry.obj
 0001:00013ff0       ssGetZcSignalNeedsEventNotification 0000000180014ff0 f   feedback_plant_sfun_registry.obj
 0001:00014060       ssGetZcSignalIsZcElementDisc 0000000180015060 f   feedback_plant_sfun_registry.obj
 0001:00014100       ssGetIsInputPortElementContinuous 0000000180015100 f   feedback_plant_sfun_registry.obj
 0001:000141a0       ssGetDTypeIdFromMxArray    00000001800151a0 f   feedback_plant_sfun_registry.obj
 0001:000142c0       ssWriteRTWStr              00000001800152c0 f   feedback_plant_sfun_registry.obj
 0001:00014320       ssWriteRTWNameValuePair    0000000180015320 f   feedback_plant_sfun_registry.obj
 0001:00014820       ssWriteRTWParamSettings    0000000180015820 f   feedback_plant_sfun_registry.obj
 0001:00014f10       ssWriteRTWParameters       0000000180015f10 f   feedback_plant_sfun_registry.obj
 0001:000154e0       ssWriteRTWWorkVect         00000001800164e0 f   feedback_plant_sfun_registry.obj
 0001:000159d0       ssWriteRTWMxVectParam      00000001800169d0 f   feedback_plant_sfun_registry.obj
 0001:00015a50       ssWriteRTWMx2dMatParam     0000000180016a50 f   feedback_plant_sfun_registry.obj
 0001:00015ae0       _ssSetInputPortMatrixDimensions 0000000180016ae0 f   feedback_plant_sfun_registry.obj
 0001:00015be0       _ssSetOutputPortMatrixDimensions 0000000180016be0 f   feedback_plant_sfun_registry.obj
 0001:00015ce0       _ssSetInputPortVectorDimension 0000000180016ce0 f   feedback_plant_sfun_registry.obj
 0001:00015d90       _ssSetOutputPortVectorDimension 0000000180016d90 f   feedback_plant_sfun_registry.obj
 0001:00015e40       ssIsRunTimeParamTunable    0000000180016e40 f   feedback_plant_sfun_registry.obj
 0001:00015eb0       ssGetSFuncBlockHandle      0000000180016eb0 f   feedback_plant_sfun_registry.obj
 0001:00015f20       _ssGetCurrentInputPortWidth 0000000180016f20 f   feedback_plant_sfun_registry.obj
 0001:00016040       _ssGetCurrentOutputPortWidth 0000000180017040 f   feedback_plant_sfun_registry.obj
 0001:00016160       _ssGetCallSystemNumFcnCallDestinations 0000000180017160 f   feedback_plant_sfun_registry.obj
 0001:000161d0       ssGetParameterTuningCompliance 00000001800171d0 f   feedback_plant_sfun_registry.obj
 0001:00016240       ssWarning                  0000000180017240 f   feedback_plant_sfun_registry.obj
 0001:00016330       _ssGetAbsTol               0000000180017330 f   feedback_plant_sfun_registry.obj
 0001:000163a0       _ssSetStateAbsTol          00000001800173a0 f   feedback_plant_sfun_registry.obj
 0001:00016480       sf_process_check_sum_call  0000000180017480 f   feedback_plant_sfun_registry.obj
 0001:000164d0       sf_process_testpoint_info_call 00000001800174d0 f   feedback_plant_sfun_registry.obj
 0001:00016520       sf_process_autoinheritance_call 0000000180017520 f   feedback_plant_sfun_registry.obj
 0001:00016750       sf_process_get_third_party_uses_info_call 0000000180017750 f   feedback_plant_sfun_registry.obj
 0001:00016980       sf_process_get_jit_fallback_info_call 0000000180017980 f   feedback_plant_sfun_registry.obj
 0001:00016bb0       sf_process_get_updateBuildInfo_args_info_call 0000000180017bb0 f   feedback_plant_sfun_registry.obj
 0001:00016de0       sf_process_get_eml_resolved_functions_info_call 0000000180017de0 f   feedback_plant_sfun_registry.obj
 0001:00016fe0       sf_mex_unlock_call         0000000180017fe0 f   feedback_plant_sfun_registry.obj
 0001:000172a0       sf_machine_global_initializer_called 00000001800182a0 f   feedback_plant_sfun_registry.obj
 0001:000172d0       sf_machine_global_method_dispatcher 00000001800182d0 f   feedback_plant_sfun_registry.obj
 0001:00017330       sf_machine_global_terminator 0000000180018330 f   feedback_plant_sfun_registry.obj
 0001:00017380       sf_register_machine_exported_symbols 0000000180018380 f   feedback_plant_sfun_registry.obj
 0001:000173a0       callCustomFcn              00000001800183a0 f   feedback_plant_sfun_registry.obj
 0001:000173b0       sf_machine_global_initializer 00000001800183b0 f   feedback_plant_sfun_registry.obj
 0001:00017430       mdlGetSimState             0000000180018430 f   feedback_plant_sfun_registry.obj
 0001:00017470       mdlSetSimState             0000000180018470 f   feedback_plant_sfun_registry.obj
 0001:00017cd0       ProcessMexSfunctionEveryCall 0000000180018cd0 f   feedback_plant_sfun_registry.obj
 0001:000189b6       sf_load_rtw_optimization_info 00000001800199b6 f   sf_runtime:sf_runtime.dll
 0001:000189bc       sf_debug_initialize_machine 00000001800199bc f   sf_runtime:sf_runtime.dll
 0001:000189c2       sf_debug_set_machine_event_thresholds 00000001800199c2 f   sf_runtime:sf_runtime.dll
 0001:000189c8       sf_debug_set_machine_data_thresholds 00000001800199c8 f   sf_runtime:sf_runtime.dll
 0001:000189ce       sf_init_ChartRunTimeInfo   00000001800199ce f   sf_runtime:sf_runtime.dll
 0001:000189d4       sf_free_ChartRunTimeInfo   00000001800199d4 f   sf_runtime:sf_runtime.dll
 0001:000189da       sf_get_chart_instance_ptr  00000001800199da f   sf_runtime:sf_runtime.dll
 0001:000189e0       sf_rtw_info_uint_prop      00000001800199e0 f   sf_runtime:sf_runtime.dll
 0001:000189e6       sf_update_buildInfo        00000001800199e6 f   sf_runtime:sf_runtime.dll
 0001:000189ec       sf_is_chart_inlinable      00000001800199ec f   sf_runtime:sf_runtime.dll
 0001:000189f2       sf_mark_chart_reusable_outputs 00000001800199f2 f   sf_runtime:sf_runtime.dll
 0001:000189f8       sf_mark_chart_expressionable_inputs 00000001800199f8 f   sf_runtime:sf_runtime.dll
 0001:000189fe       sim_mode_is_rtw_gen        00000001800199fe f   sf_runtime:sf_runtime.dll
 0001:00018a04       sim_mode_is_external       0000000180019a04 f   sf_runtime:sf_runtime.dll
 0001:00018a0a       sim_mode_is_modelref_sim   0000000180019a0a f   sf_runtime:sf_runtime.dll
 0001:00018a10       sf_clear_rtw_identifier    0000000180019a10 f   sf_runtime:sf_runtime.dll
 0001:00018a16       sf_set_rtw_dwork_info      0000000180019a16 f   sf_runtime:sf_runtime.dll
 0001:00018a1c       sf_get_time                0000000180019a1c f   sf_runtime:sf_runtime.dll
 0001:00018a22       sf_is_first_init_cond      0000000180019a22 f   sf_runtime:sf_runtime.dll
 0001:00018a28       sf_set_chart_accesses_machine_info 0000000180019a28 f   sf_runtime:sf_runtime.dll
 0001:00018a2e       sf_mex_error_message       0000000180019a2e f   sf_runtime:sf_runtime.dll
 0001:00018a34       sf_mex_create              0000000180019a34 f   sf_runtime:sf_runtime.dll
 0001:00018a3a       sf_mex_createcellmatrix    0000000180019a3a f   sf_runtime:sf_runtime.dll
 0001:00018a40       sf_mex_setcell             0000000180019a40 f   sf_runtime:sf_runtime.dll
 0001:00018a46       sf_mex_getcell             0000000180019a46 f   sf_runtime:sf_runtime.dll
 0001:00018a4c       sf_mex_assign              0000000180019a4c f   sf_runtime:sf_runtime.dll
 0001:00018a52       sf_mex_dup                 0000000180019a52 f   sf_runtime:sf_runtime.dll
 0001:00018a58       sf_mex_destroy             0000000180019a58 f   sf_runtime:sf_runtime.dll
 0001:00018a5e       sf_mex_import              0000000180019a5e f   sf_runtime:sf_runtime.dll
 0001:00018a64       sf_mex_decode_encoded_mx_struct_array 0000000180019a64 f   sf_runtime:sf_runtime.dll
 0001:00018a6a       ssGetInputPortSignal_wrapper 0000000180019a6a f   sf_runtime:sf_runtime.dll
 0001:00018a70       ssGetOutputPortSignal_wrapper 0000000180019a70 f   sf_runtime:sf_runtime.dll
 0001:00018a76       sf_debug_initialize_chart  0000000180019a76 f   sf_runtime:sf_runtime.dll
 0001:00018a7c       sf_debug_call              0000000180019a7c f   sf_runtime:sf_runtime.dll
 0001:00018a82       eml_debug_line_call        0000000180019a82 f   sf_runtime:sf_runtime.dll
 0001:00018a88       cv_eml_eval                0000000180019a88 f   sf_runtime:sf_runtime.dll
 0001:00018a8e       cv_eml_init_script         0000000180019a8e f   sf_runtime:sf_runtime.dll
 0001:00018a94       cv_eml_init_fcn            0000000180019a94 f   sf_runtime:sf_runtime.dll
 0001:00018a9a       sf_debug_reset_current_state_configuration 0000000180019a9a f   sf_runtime:sf_runtime.dll
 0001:00018aa0       sf_debug_check_for_state_inconsistency 0000000180019aa0 f   sf_runtime:sf_runtime.dll
 0001:00018aa6       sf_debug_set_chart_data_props 0000000180019aa6 f   sf_runtime:sf_runtime.dll
 0001:00018aac       sf_debug_set_chart_data_compiled_props 0000000180019aac f   sf_runtime:sf_runtime.dll
 0001:00018ab2       sf_debug_symbol_scope_push 0000000180019ab2 f   sf_runtime:sf_runtime.dll
 0001:00018ab8       sf_debug_symbol_scope_push_eml 0000000180019ab8 f   sf_runtime:sf_runtime.dll
 0001:00018abe       sf_debug_symbol_scope_pop  0000000180019abe f   sf_runtime:sf_runtime.dll
 0001:00018ac4       sf_debug_symbol_scope_add_eml 0000000180019ac4 f   sf_runtime:sf_runtime.dll
 0001:00018aca       sf_debug_symbol_scope_add_eml_importable 0000000180019aca f   sf_runtime:sf_runtime.dll
 0001:00018ad0       sf_debug_set_instance_data_value_ptr 0000000180019ad0 f   sf_runtime:sf_runtime.dll
 0001:00018ad6       sf_debug_set_chart_disable_implicit_casting 0000000180019ad6 f   sf_runtime:sf_runtime.dll
 0001:00018adc       sf_debug_set_chart_event_thresholds 0000000180019adc f   sf_runtime:sf_runtime.dll
 0001:00018ae2       sf_debug_set_chart_state_info 0000000180019ae2 f   sf_runtime:sf_runtime.dll
 0001:00018ae8       sf_debug_set_chart_decomposition 0000000180019ae8 f   sf_runtime:sf_runtime.dll
 0001:00018aee       sf_debug_set_chart_substate_count 0000000180019aee f   sf_runtime:sf_runtime.dll
 0001:00018af4       sf_debug_data_range_wrapper 0000000180019af4 f   sf_runtime:sf_runtime.dll
 0001:00018afa       sf_debug_cv_init_trans     0000000180019afa f   sf_runtime:sf_runtime.dll
 0001:00018b00       sf_debug_cv_init_chart     0000000180019b00 f   sf_runtime:sf_runtime.dll
 0001:00018b06       sf_debug_cv_init_state     0000000180019b06 f   sf_runtime:sf_runtime.dll
 0001:00018b0c       sf_mex_listen_for_ctrl_c_with_debugger 0000000180019b0c f   sf_runtime:sf_runtime.dll
 0001:00018b12       sf_mex_printf              0000000180019b12 f   sf_runtime:sf_runtime.dll
 0001:00018b18       sf_mex_call_debug          0000000180019b18 f   sf_runtime:sf_runtime.dll
 0001:00018b1e       sf_mex_import_vs           0000000180019b1e f   sf_runtime:sf_runtime.dll
 0001:00018b24       sf_eml_array_bounds_check  0000000180019b24 f   sf_runtime:sf_runtime.dll
 0001:00018b2a       cv_eval_relational         0000000180019b2a f   sf_runtime:sf_runtime.dll
 0001:00018b30       cv_eml_init_if             0000000180019b30 f   sf_runtime:sf_runtime.dll
 0001:00018b36       cv_eml_init_for            0000000180019b36 f   sf_runtime:sf_runtime.dll
 0001:00018b3c       cv_eml_init_relational     0000000180019b3c f   sf_runtime:sf_runtime.dll
 0001:00018b42       sf_debug_symbol_scope_add_eml_dyn_importable 0000000180019b42 f   sf_runtime:sf_runtime.dll
 0001:00018b48       sf_get_ChartInfoStruct_CodeGen 0000000180019b48 f   sf_runtime:sf_runtime.dll
 0001:00018b4e       sf_get_isEnhancedMooreMachine 0000000180019b4e f   sf_runtime:sf_runtime.dll
 0001:00018b54       sf_set_compiledInfo        0000000180019b54 f   sf_runtime:sf_runtime.dll
 0001:00018b5a       callMdlMethodAndReportError 0000000180019b5a f   sf_runtime:sf_runtime.dll
 0001:00018b60       call_sf_machine_global_method_dispatcher 0000000180019b60 f   sf_runtime:sf_runtime.dll
 0001:00018b66       sf_mex_error_direct_call   0000000180019b66 f   sf_runtime:sf_runtime.dll
 0001:00018b6c       sf_clear_error_manager_info 0000000180019b6c f   sf_runtime:sf_runtime.dll
 0001:00018b72       sf_debug_create_debug_instance_struct 0000000180019b72 f   sf_runtime:sf_runtime.dll
 0001:00018b78       sf_debug_terminate         0000000180019b78 f   sf_runtime:sf_runtime.dll
 0001:00018b7e       sf_debug_api               0000000180019b7e f   sf_runtime:sf_runtime.dll
 0001:00018b84       mxIsChar                   0000000180019b84 f   libmx:libmx.dll
 0001:00018b8a       mxGetPr                    0000000180019b8a f   libmx:libmx.dll
 0001:00018b90       mxGetScalar                0000000180019b90 f   libmx:libmx.dll
 0001:00018b96       mxDestroyArray             0000000180019b96 f   libmx:libmx.dll
 0001:00018b9c       mxCreateDoubleMatrix_730   0000000180019b9c f   libmx:libmx.dll
 0001:00018ba2       mxGetString_730            0000000180019ba2 f   libmx:libmx.dll
 0001:00018ba8       mxDuplicateArray           0000000180019ba8 f   libmx:libmx.dll
 0001:00018bae       mxSetField_730             0000000180019bae f   libmx:libmx.dll
 0001:00018bb4       mxCreateDoubleScalar       0000000180019bb4 f   libmx:libmx.dll
 0001:00018bba       mxCreateString             0000000180019bba f   libmx:libmx.dll
 0001:00018bc0       mxCreateCellMatrix_730     0000000180019bc0 f   libmx:libmx.dll
 0001:00018bc6       mxCreateCellArray_730      0000000180019bc6 f   libmx:libmx.dll
 0001:00018bcc       mxCreateStructMatrix_730   0000000180019bcc f   libmx:libmx.dll
 0001:00018bd2       mxCreateStructArray_730    0000000180019bd2 f   libmx:libmx.dll
 0001:00018bd8       mxCalloc                   0000000180019bd8 f   libmx:libmx.dll
 0001:00018bde       mxGetM                     0000000180019bde f   libmx:libmx.dll
 0001:00018be4       mxGetClassID               0000000180019be4 f   libmx:libmx.dll
 0001:00018bea       mxIsNumeric                0000000180019bea f   libmx:libmx.dll
 0001:00018bf0       mxIsComplex                0000000180019bf0 f   libmx:libmx.dll
 0001:00018bf6       mxGetN                     0000000180019bf6 f   libmx:libmx.dll
 0001:00018bfc       mexMakeArrayPersistent     0000000180019bfc f   libmex:libmex.dll
 0001:00018c02       mexErrMsgTxt               0000000180019c02 f   libmex:libmex.dll
 0001:00018c08       mexWarnMsgTxt              0000000180019c08 f   libmex:libmex.dll
 0001:00018c0e       mexCallMATLABWithObject    0000000180019c0e f   libmex:libmex.dll
 0001:00018c14       mexLock                    0000000180019c14 f   libmex:libmex.dll
 0001:00018c1a       mexUnlock                  0000000180019c1a f   libmex:libmex.dll
 0001:00018c20       mexIsLocked                0000000180019c20 f   libmex:libmex.dll
 0001:00018c26       utMalloc                   0000000180019c26 f   libut:libut.dll
 0001:00018c2c       utFree                     0000000180019c2c f   libut:libut.dll
 0001:00018c34       __raise_securityfailure    0000000180019c34 f   MSVCRT:gs_report.obj
 0001:00018c80       __report_gsfailure         0000000180019c80 f   MSVCRT:gs_report.obj
 0001:00018d54       __report_rangecheckfailure 0000000180019d54 f   MSVCRT:gs_report.obj
 0001:00018d68       __report_securityfailure   0000000180019d68 f   MSVCRT:gs_report.obj
 0001:00018e04       __report_securityfailureEx 0000000180019e04 f   MSVCRT:gs_report.obj
 0001:00018f12       strcmp                     0000000180019f12 f   MSVCRT:MSVCR110.dll
 0001:00018f18       __GSHandlerCheck           0000000180019f18 f   MSVCRT:gshandler.obj
 0001:00018f38       __GSHandlerCheckCommon     0000000180019f38 f   MSVCRT:gshandler.obj
 0001:00018fb0       __security_check_cookie    0000000180019fb0 f   MSVCRT:amdsecgs.obj
 0001:00018fd0       memset                     0000000180019fd0 f   MSVCRT:MSVCR110.dll
 0001:00018ff0       _alloca_probe              0000000180019ff0     MSVCRT:chkstk.obj
 0001:00018ff0       __chkstk                   0000000180019ff0 f   MSVCRT:chkstk.obj
 0001:0001903e       memcpy                     000000018001a03e f   MSVCRT:MSVCR110.dll
 0001:00019044       strcat                     000000018001a044 f   MSVCRT:MSVCR110.dll
 0001:0001904a       strlen                     000000018001a04a f   MSVCRT:MSVCR110.dll
 0001:00019050       sprintf                    000000018001a050 f   MSVCRT:MSVCR110.dll
 0001:00019056       free                       000000018001a056 f   MSVCRT:MSVCR110.dll
 0001:0001905c       malloc                     000000018001a05c f   MSVCRT:MSVCR110.dll
 0001:000190c4       NtCurrentTeb               000000018001a0c4 f i MSVCRT:crtdll.obj
 0001:000190d0       _CRT_INIT                  000000018001a0d0 f   MSVCRT:crtdll.obj
 0001:0001931c       _DllMainCRTStartup         000000018001a31c f   MSVCRT:crtdll.obj
 0001:00019492       __crt_debugger_hook        000000018001a492 f   MSVCRT:MSVCR110.dll
 0001:00019498       __crtUnhandledException    000000018001a498 f   MSVCRT:MSVCR110.dll
 0001:0001949e       __crtTerminateProcess      000000018001a49e f   MSVCRT:MSVCR110.dll
 0001:000194a4       __crtCaptureCurrentContext 000000018001a4a4 f   MSVCRT:MSVCR110.dll
 0001:000194aa       __crtCapturePreviousContext 000000018001a4aa f   MSVCRT:MSVCR110.dll
 0001:000194b0       __CppXcptFilter            000000018001a4b0 f   MSVCRT:MSVCR110.dll
 0001:000194b6       _amsg_exit                 000000018001a4b6 f   MSVCRT:MSVCR110.dll
 0001:000194c0       _FindPESection             000000018001a4c0 f   MSVCRT:pesect.obj
 0001:00019510       _IsNonwritableInCurrentImage 000000018001a510 f   MSVCRT:pesect.obj
 0001:00019560       _ValidateImageBase         000000018001a560 f   MSVCRT:pesect.obj
 0001:00019590       __atonexitinit             000000018001a590 f   MSVCRT:atonexit.obj
 0001:000195e0       _onexit                    000000018001a5e0 f   MSVCRT:atonexit.obj
 0001:00019690       atexit                     000000018001a690 f   MSVCRT:atonexit.obj
 0001:000196a8       __security_init_cookie     000000018001a6a8 f   MSVCRT:gs_support.obj
 0001:00019760       DllMain                    000000018001a760 f   MSVCRT:dllmain.obj
 0001:00019784       _malloc_crt                000000018001a784 f   MSVCRT:MSVCR110.dll
 0001:0001978c       _RTC_Initialize            000000018001a78c f   MSVCRT:initsect.obj
 0001:000197c4       _RTC_Terminate             000000018001a7c4 f   MSVCRT:initsect.obj
 0001:000197fc       _initterm                  000000018001a7fc f   MSVCRT:MSVCR110.dll
 0001:00019802       _initterm_e                000000018001a802 f   MSVCRT:MSVCR110.dll
 0001:00019808       __clean_type_info_names    000000018001a808 f   MSVCRT:tncleanup.obj
 0001:00019814       __C_specific_handler       000000018001a814 f   MSVCRT:MSVCR110.dll
 0001:0001981a       _lock                      000000018001a81a f   MSVCRT:MSVCR110.dll
 0001:00019820       _unlock                    000000018001a820 f   MSVCRT:MSVCR110.dll
 0001:00019826       _calloc_crt                000000018001a826 f   MSVCRT:MSVCR110.dll
 0001:0001982c       __dllonexit                000000018001a82c f   MSVCRT:MSVCR110.dll
 0001:00019832       __clean_type_info_names_internal 000000018001a832 f   MSVCRT:MSVCR110.dll
 0001:00019838       IsDebuggerPresent          000000018001a838 f   kernel32:KERNEL32.dll
 0001:0001983e       IsProcessorFeaturePresent  000000018001a83e f   kernel32:KERNEL32.dll
 0001:00019844       EncodePointer              000000018001a844 f   kernel32:KERNEL32.dll
 0001:0001984a       DecodePointer              000000018001a84a f   kernel32:KERNEL32.dll
 0001:00019850       QueryPerformanceCounter    000000018001a850 f   kernel32:KERNEL32.dll
 0001:00019856       GetCurrentThreadId         000000018001a856 f   kernel32:KERNEL32.dll
 0001:0001985c       GetSystemTimeAsFileTime    000000018001a85c f   kernel32:KERNEL32.dll
 0001:00019862       GetTickCount64             000000018001a862 f   kernel32:KERNEL32.dll
 0001:00019868       DisableThreadLibraryCalls  000000018001a868 f   kernel32:KERNEL32.dll
 0002:00000000       __imp_GetTickCount64       000000018001b000     kernel32:KERNEL32.dll
 0002:00000008       __imp_GetSystemTimeAsFileTime 000000018001b008     kernel32:KERNEL32.dll
 0002:00000010       __imp_GetCurrentThreadId   000000018001b010     kernel32:KERNEL32.dll
 0002:00000018       __imp_QueryPerformanceCounter 000000018001b018     kernel32:KERNEL32.dll
 0002:00000020       __imp_DecodePointer        000000018001b020     kernel32:KERNEL32.dll
 0002:00000028       __imp_EncodePointer        000000018001b028     kernel32:KERNEL32.dll
 0002:00000030       __imp_IsProcessorFeaturePresent 000000018001b030     kernel32:KERNEL32.dll
 0002:00000038       __imp_IsDebuggerPresent    000000018001b038     kernel32:KERNEL32.dll
 0002:00000040       __imp_DisableThreadLibraryCalls 000000018001b040     kernel32:KERNEL32.dll
 0002:00000048       \177KERNEL32_NULL_THUNK_DATA 000000018001b048     kernel32:KERNEL32.dll
 0002:00000050       __imp___clean_type_info_names_internal 000000018001b050     MSVCRT:MSVCR110.dll
 0002:00000058       __imp___dllonexit          000000018001b058     MSVCRT:MSVCR110.dll
 0002:00000060       __imp__calloc_crt          000000018001b060     MSVCRT:MSVCR110.dll
 0002:00000068       __imp__unlock              000000018001b068     MSVCRT:MSVCR110.dll
 0002:00000070       __imp__lock                000000018001b070     MSVCRT:MSVCR110.dll
 0002:00000078       __imp___C_specific_handler 000000018001b078     MSVCRT:MSVCR110.dll
 0002:00000080       __imp__initterm_e          000000018001b080     MSVCRT:MSVCR110.dll
 0002:00000088       __imp__initterm            000000018001b088     MSVCRT:MSVCR110.dll
 0002:00000090       __imp__malloc_crt          000000018001b090     MSVCRT:MSVCR110.dll
 0002:00000098       __imp__amsg_exit           000000018001b098     MSVCRT:MSVCR110.dll
 0002:000000a0       __imp___CppXcptFilter      000000018001b0a0     MSVCRT:MSVCR110.dll
 0002:000000a8       __imp___crtCapturePreviousContext 000000018001b0a8     MSVCRT:MSVCR110.dll
 0002:000000b0       __imp___crtCaptureCurrentContext 000000018001b0b0     MSVCRT:MSVCR110.dll
 0002:000000b8       __imp___crtTerminateProcess 000000018001b0b8     MSVCRT:MSVCR110.dll
 0002:000000c0       __imp___crtUnhandledException 000000018001b0c0     MSVCRT:MSVCR110.dll
 0002:000000c8       __imp___crt_debugger_hook  000000018001b0c8     MSVCRT:MSVCR110.dll
 0002:000000d0       __imp_malloc               000000018001b0d0     MSVCRT:MSVCR110.dll
 0002:000000d8       __imp_free                 000000018001b0d8     MSVCRT:MSVCR110.dll
 0002:000000e0       __imp_sprintf              000000018001b0e0     MSVCRT:MSVCR110.dll
 0002:000000e8       __imp_strlen               000000018001b0e8     MSVCRT:MSVCR110.dll
 0002:000000f0       __imp_strcat               000000018001b0f0     MSVCRT:MSVCR110.dll
 0002:000000f8       __imp_memcpy               000000018001b0f8     MSVCRT:MSVCR110.dll
 0002:00000100       __imp_memset               000000018001b100     MSVCRT:MSVCR110.dll
 0002:00000108       __imp_strcmp               000000018001b108     MSVCRT:MSVCR110.dll
 0002:00000110       __imp__onexit              000000018001b110     MSVCRT:MSVCR110.dll
 0002:00000118       \177MSVCR110_NULL_THUNK_DATA 000000018001b118     MSVCRT:MSVCR110.dll
 0002:00000120       __imp_mexUnlock            000000018001b120     libmex:libmex.dll
 0002:00000128       __imp_mexErrMsgTxt         000000018001b128     libmex:libmex.dll
 0002:00000130       __imp_mexWarnMsgTxt        000000018001b130     libmex:libmex.dll
 0002:00000138       __imp_mexIsLocked          000000018001b138     libmex:libmex.dll
 0002:00000140       __imp_mexMakeArrayPersistent 000000018001b140     libmex:libmex.dll
 0002:00000148       __imp_mexLock              000000018001b148     libmex:libmex.dll
 0002:00000150       __imp_mexCallMATLABWithObject 000000018001b150     libmex:libmex.dll
 0002:00000158       \177libmex_NULL_THUNK_DATA 000000018001b158     libmex:libmex.dll
 0002:00000160       __imp_mxGetPr              000000018001b160     libmx:libmx.dll
 0002:00000168       __imp_mxSetField_730       000000018001b168     libmx:libmx.dll
 0002:00000170       __imp_mxGetScalar          000000018001b170     libmx:libmx.dll
 0002:00000178       __imp_mxGetN               000000018001b178     libmx:libmx.dll
 0002:00000180       __imp_mxIsComplex          000000018001b180     libmx:libmx.dll
 0002:00000188       __imp_mxIsNumeric          000000018001b188     libmx:libmx.dll
 0002:00000190       __imp_mxGetClassID         000000018001b190     libmx:libmx.dll
 0002:00000198       __imp_mxGetM               000000018001b198     libmx:libmx.dll
 0002:000001a0       __imp_mxCalloc             000000018001b1a0     libmx:libmx.dll
 0002:000001a8       __imp_mxCreateStructArray_730 000000018001b1a8     libmx:libmx.dll
 0002:000001b0       __imp_mxCreateStructMatrix_730 000000018001b1b0     libmx:libmx.dll
 0002:000001b8       __imp_mxCreateCellArray_730 000000018001b1b8     libmx:libmx.dll
 0002:000001c0       __imp_mxCreateCellMatrix_730 000000018001b1c0     libmx:libmx.dll
 0002:000001c8       __imp_mxCreateString       000000018001b1c8     libmx:libmx.dll
 0002:000001d0       __imp_mxCreateDoubleScalar 000000018001b1d0     libmx:libmx.dll
 0002:000001d8       __imp_mxDuplicateArray     000000018001b1d8     libmx:libmx.dll
 0002:000001e0       __imp_mxGetString_730      000000018001b1e0     libmx:libmx.dll
 0002:000001e8       __imp_mxCreateDoubleMatrix_730 000000018001b1e8     libmx:libmx.dll
 0002:000001f0       __imp_mxDestroyArray       000000018001b1f0     libmx:libmx.dll
 0002:000001f8       __imp_mxIsChar             000000018001b1f8     libmx:libmx.dll
 0002:00000200       \177libmx_NULL_THUNK_DATA  000000018001b200     libmx:libmx.dll
 0002:00000208       __imp_utFree               000000018001b208     libut:libut.dll
 0002:00000210       __imp_utMalloc             000000018001b210     libut:libut.dll
 0002:00000218       \177libut_NULL_THUNK_DATA  000000018001b218     libut:libut.dll
 0002:00000220       __imp_sf_get_isEnhancedMooreMachine 000000018001b220     sf_runtime:sf_runtime.dll
 0002:00000228       __imp_sf_set_compiledInfo  000000018001b228     sf_runtime:sf_runtime.dll
 0002:00000230       __imp_callMdlMethodAndReportError 000000018001b230     sf_runtime:sf_runtime.dll
 0002:00000238       __imp_call_sf_machine_global_method_dispatcher 000000018001b238     sf_runtime:sf_runtime.dll
 0002:00000240       __imp_cv_eml_eval          000000018001b240     sf_runtime:sf_runtime.dll
 0002:00000248       __imp_sf_get_ChartInfoStruct_CodeGen 000000018001b248     sf_runtime:sf_runtime.dll
 0002:00000250       __imp_sf_debug_create_debug_instance_struct 000000018001b250     sf_runtime:sf_runtime.dll
 0002:00000258       __imp_sf_debug_terminate   000000018001b258     sf_runtime:sf_runtime.dll
 0002:00000260       __imp_sf_debug_api         000000018001b260     sf_runtime:sf_runtime.dll
 0002:00000268       __imp_sf_debug_symbol_scope_add_eml_dyn_importable 000000018001b268     sf_runtime:sf_runtime.dll
 0002:00000270       __imp_cv_eml_init_relational 000000018001b270     sf_runtime:sf_runtime.dll
 0002:00000278       __imp_cv_eml_init_for      000000018001b278     sf_runtime:sf_runtime.dll
 0002:00000280       __imp_cv_eml_init_if       000000018001b280     sf_runtime:sf_runtime.dll
 0002:00000288       __imp_cv_eval_relational   000000018001b288     sf_runtime:sf_runtime.dll
 0002:00000290       __imp_sf_eml_array_bounds_check 000000018001b290     sf_runtime:sf_runtime.dll
 0002:00000298       __imp_sf_mex_import_vs     000000018001b298     sf_runtime:sf_runtime.dll
 0002:000002a0       __imp_cv_eml_init_script   000000018001b2a0     sf_runtime:sf_runtime.dll
 0002:000002a8       __imp_sf_mex_call_debug    000000018001b2a8     sf_runtime:sf_runtime.dll
 0002:000002b0       __imp_sf_mex_printf        000000018001b2b0     sf_runtime:sf_runtime.dll
 0002:000002b8       __imp_sf_mex_listen_for_ctrl_c_with_debugger 000000018001b2b8     sf_runtime:sf_runtime.dll
 0002:000002c0       __imp_sf_debug_cv_init_state 000000018001b2c0     sf_runtime:sf_runtime.dll
 0002:000002c8       __imp_sf_debug_cv_init_chart 000000018001b2c8     sf_runtime:sf_runtime.dll
 0002:000002d0       __imp_sf_debug_cv_init_trans 000000018001b2d0     sf_runtime:sf_runtime.dll
 0002:000002d8       __imp_sf_debug_data_range_wrapper 000000018001b2d8     sf_runtime:sf_runtime.dll
 0002:000002e0       __imp_sf_debug_set_chart_substate_count 000000018001b2e0     sf_runtime:sf_runtime.dll
 0002:000002e8       __imp_sf_debug_set_chart_decomposition 000000018001b2e8     sf_runtime:sf_runtime.dll
 0002:000002f0       __imp_sf_debug_set_chart_state_info 000000018001b2f0     sf_runtime:sf_runtime.dll
 0002:000002f8       __imp_sf_debug_set_chart_event_thresholds 000000018001b2f8     sf_runtime:sf_runtime.dll
 0002:00000300       __imp_sf_debug_set_chart_disable_implicit_casting 000000018001b300     sf_runtime:sf_runtime.dll
 0002:00000308       __imp_sf_debug_set_instance_data_value_ptr 000000018001b308     sf_runtime:sf_runtime.dll
 0002:00000310       __imp_sf_debug_symbol_scope_add_eml_importable 000000018001b310     sf_runtime:sf_runtime.dll
 0002:00000318       __imp_sf_debug_symbol_scope_add_eml 000000018001b318     sf_runtime:sf_runtime.dll
 0002:00000320       __imp_sf_debug_symbol_scope_pop 000000018001b320     sf_runtime:sf_runtime.dll
 0002:00000328       __imp_sf_debug_symbol_scope_push_eml 000000018001b328     sf_runtime:sf_runtime.dll
 0002:00000330       __imp_sf_debug_symbol_scope_push 000000018001b330     sf_runtime:sf_runtime.dll
 0002:00000338       __imp_sf_debug_set_chart_data_compiled_props 000000018001b338     sf_runtime:sf_runtime.dll
 0002:00000340       __imp_sf_debug_set_chart_data_props 000000018001b340     sf_runtime:sf_runtime.dll
 0002:00000348       __imp_sf_debug_check_for_state_inconsistency 000000018001b348     sf_runtime:sf_runtime.dll
 0002:00000350       __imp_sf_debug_reset_current_state_configuration 000000018001b350     sf_runtime:sf_runtime.dll
 0002:00000358       __imp_cv_eml_init_fcn      000000018001b358     sf_runtime:sf_runtime.dll
 0002:00000360       __imp_sf_clear_error_manager_info 000000018001b360     sf_runtime:sf_runtime.dll
 0002:00000368       __imp_eml_debug_line_call  000000018001b368     sf_runtime:sf_runtime.dll
 0002:00000370       __imp_sf_debug_call        000000018001b370     sf_runtime:sf_runtime.dll
 0002:00000378       __imp_sf_debug_initialize_chart 000000018001b378     sf_runtime:sf_runtime.dll
 0002:00000380       __imp_ssGetOutputPortSignal_wrapper 000000018001b380     sf_runtime:sf_runtime.dll
 0002:00000388       __imp_ssGetInputPortSignal_wrapper 000000018001b388     sf_runtime:sf_runtime.dll
 0002:00000390       __imp_sf_mex_decode_encoded_mx_struct_array 000000018001b390     sf_runtime:sf_runtime.dll
 0002:00000398       __imp_sf_mex_import        000000018001b398     sf_runtime:sf_runtime.dll
 0002:000003a0       __imp_sf_mex_destroy       000000018001b3a0     sf_runtime:sf_runtime.dll
 0002:000003a8       __imp_sf_mex_dup           000000018001b3a8     sf_runtime:sf_runtime.dll
 0002:000003b0       __imp_sf_mex_assign        000000018001b3b0     sf_runtime:sf_runtime.dll
 0002:000003b8       __imp_sf_mex_getcell       000000018001b3b8     sf_runtime:sf_runtime.dll
 0002:000003c0       __imp_sf_mex_setcell       000000018001b3c0     sf_runtime:sf_runtime.dll
 0002:000003c8       __imp_sf_mex_createcellmatrix 000000018001b3c8     sf_runtime:sf_runtime.dll
 0002:000003d0       __imp_sf_mex_create        000000018001b3d0     sf_runtime:sf_runtime.dll
 0002:000003d8       __imp_sf_mex_error_message 000000018001b3d8     sf_runtime:sf_runtime.dll
 0002:000003e0       __imp_sf_set_chart_accesses_machine_info 000000018001b3e0     sf_runtime:sf_runtime.dll
 0002:000003e8       __imp_sf_is_first_init_cond 000000018001b3e8     sf_runtime:sf_runtime.dll
 0002:000003f0       __imp_sf_get_time          000000018001b3f0     sf_runtime:sf_runtime.dll
 0002:000003f8       __imp_sf_set_rtw_dwork_info 000000018001b3f8     sf_runtime:sf_runtime.dll
 0002:00000400       __imp_sf_clear_rtw_identifier 000000018001b400     sf_runtime:sf_runtime.dll
 0002:00000408       __imp_sim_mode_is_modelref_sim 000000018001b408     sf_runtime:sf_runtime.dll
 0002:00000410       __imp_sim_mode_is_external 000000018001b410     sf_runtime:sf_runtime.dll
 0002:00000418       __imp_sim_mode_is_rtw_gen  000000018001b418     sf_runtime:sf_runtime.dll
 0002:00000420       __imp_sf_mark_chart_expressionable_inputs 000000018001b420     sf_runtime:sf_runtime.dll
 0002:00000428       __imp_sf_is_chart_inlinable 000000018001b428     sf_runtime:sf_runtime.dll
 0002:00000430       __imp_sf_mark_chart_reusable_outputs 000000018001b430     sf_runtime:sf_runtime.dll
 0002:00000438       __imp_sf_update_buildInfo  000000018001b438     sf_runtime:sf_runtime.dll
 0002:00000440       __imp_sf_rtw_info_uint_prop 000000018001b440     sf_runtime:sf_runtime.dll
 0002:00000448       __imp_sf_get_chart_instance_ptr 000000018001b448     sf_runtime:sf_runtime.dll
 0002:00000450       __imp_sf_free_ChartRunTimeInfo 000000018001b450     sf_runtime:sf_runtime.dll
 0002:00000458       __imp_sf_init_ChartRunTimeInfo 000000018001b458     sf_runtime:sf_runtime.dll
 0002:00000460       __imp_sf_debug_set_machine_data_thresholds 000000018001b460     sf_runtime:sf_runtime.dll
 0002:00000468       __imp_sf_debug_set_machine_event_thresholds 000000018001b468     sf_runtime:sf_runtime.dll
 0002:00000470       __imp_sf_debug_initialize_machine 000000018001b470     sf_runtime:sf_runtime.dll
 0002:00000478       __imp_sf_mex_error_direct_call 000000018001b478     sf_runtime:sf_runtime.dll
 0002:00000480       __imp_sf_load_rtw_optimization_info 000000018001b480     sf_runtime:sf_runtime.dll
 0002:00000488       \177sf_runtime_NULL_THUNK_DATA 000000018001b488     sf_runtime:sf_runtime.dll
 0002:00000490       __xc_a                     000000018001b490     MSVCRT:cinitexe.obj
 0002:00000498       __xc_z                     000000018001b498     MSVCRT:cinitexe.obj
 0002:000004a0       __xi_a                     000000018001b4a0     MSVCRT:cinitexe.obj
 0002:000004b8       __xi_z                     000000018001b4b8     MSVCRT:cinitexe.obj
 0002:000004c0       __real@419347fa78000000    000000018001b4c0     feedback_plant_sfun.obj
 0002:000004c8       __real@41b95523da000000    000000018001b4c8     feedback_plant_sfun.obj
 0002:000004d0       __real@41dd1de726000000    000000018001b4d0     feedback_plant_sfun.obj
 0002:000004d8       __real@41e32f9e4ce00000    000000018001b4d8     feedback_plant_sfun.obj
 0002:000004e0       __real@41e3390d42800000    000000018001b4e0     feedback_plant_sfun.obj
 0002:000004e8       __real@41e5773560800000    000000018001b4e8     feedback_plant_sfun.obj
 0002:000004f0       __real@41e7108b33c00000    000000018001b4f0     feedback_plant_sfun.obj
 0002:000004f8       __real@41e7f49a11400000    000000018001b4f8     feedback_plant_sfun.obj
 0002:00000500       __real@41ea3b0fdac00000    000000018001b500     feedback_plant_sfun.obj
 0002:00000508       __real@41ec9eeaca600000    000000018001b508     feedback_plant_sfun.obj
 0002:00000510       __real@41ed51321aa00000    000000018001b510     feedback_plant_sfun.obj
 0002:00000518       __real@41ef1eeae7600000    000000018001b518     feedback_plant_sfun.obj
 0002:00000520       __real@3ff0000000000000    000000018001b520     c1_feedback_plant.obj
 0002:00000528       __real@4008000000000000    000000018001b528     c1_feedback_plant.obj
 0002:00000530       __real@4010000000000000    000000018001b530     c1_feedback_plant.obj
 0002:00000538       __real@4024000000000000    000000018001b538     c1_feedback_plant.obj
 0002:00000540       __real@41d4a76cae000000    000000018001b540     c1_feedback_plant.obj
 0002:00000548       __real@41dd3aec1f000000    000000018001b548     c1_feedback_plant.obj
 0002:00000550       __real@41e827e577400000    000000018001b550     c1_feedback_plant.obj
 0002:00000558       __real@41e834fb3ce00000    000000018001b558     c1_feedback_plant.obj
 0002:00000560       __real@4000000000000000    000000018001b560     c18_feedback_plant.obj
 0002:00000568       __real@4036000000000000    000000018001b568     c18_feedback_plant.obj
 0002:00000570       __real@4047800000000000    000000018001b570     c18_feedback_plant.obj
 0002:00000578       __real@405f000000000000    000000018001b578     c18_feedback_plant.obj
 0002:00000580       __real@41b73f33ba000000    000000018001b580     c18_feedback_plant.obj
 0002:00000588       __real@41cedf2b4f800000    000000018001b588     c18_feedback_plant.obj
 0002:00000590       __real@41d9cbe458400000    000000018001b590     c18_feedback_plant.obj
 0002:00000598       __real@41db055858800000    000000018001b598     c18_feedback_plant.obj
 0002:000005a0       __real@41c76e5da7000000    000000018001b5a0     c19_feedback_plant.obj
 0002:000005a8       __real@41d3a8310e000000    000000018001b5a8     c19_feedback_plant.obj
 0002:000005b0       __real@41e1c0c7d4800000    000000018001b5b0     c19_feedback_plant.obj
 0002:000005b8       __real@41ed9b1b7f200000    000000018001b5b8     c19_feedback_plant.obj
 0002:000005c0       DYNAMIC_DIMENSION_DEF      000000018001b5c0     feedback_plant_sfun_registry.obj
 0002:000005e0       _ssBadLevel2InputAccessMsg 000000018001b5e0     feedback_plant_sfun_registry.obj
 0002:00000770       _ssBadLevel2DirectFeedMsg  000000018001b770     feedback_plant_sfun_registry.obj
 0002:000008b0       _ssBadLevel2DirectFeedSolutionMsg 000000018001b8b0     feedback_plant_sfun_registry.obj
 0002:00000920       _ssBadLevel2ZeroDirectFeedMsg 000000018001b920     feedback_plant_sfun_registry.obj
 0002:00000a60       _ssBadLevel2ZeroDirectFeedMsg2 000000018001ba60     feedback_plant_sfun_registry.obj
 0002:00000b48       __real@0000000000000000    000000018001bb48     feedback_plant_sfun_registry.obj
 0002:00000b50       __real@41602cbca0000000    000000018001bb50     feedback_plant_sfun_registry.obj
 0002:00000b58       __real@bff0000000000000    000000018001bb58     feedback_plant_sfun_registry.obj
 0002:00000b70       _pRawDllMain               000000018001bb70     MSVCRT:crtdll.obj
 0002:00000b70       _pDefaultRawDllMain        000000018001bb70     MSVCRT:crtdll.obj
 0002:00000b78       ?ProcessDetach@NativeDll@<CrtImplementationDetails>@@0IB 000000018001bb78     MSVCRT:initsect.obj
 0002:00000b7c       ?ProcessAttach@NativeDll@<CrtImplementationDetails>@@0IB 000000018001bb7c     MSVCRT:initsect.obj
 0002:00000b80       ?ThreadAttach@NativeDll@<CrtImplementationDetails>@@0IB 000000018001bb80     MSVCRT:initsect.obj
 0002:00000b84       ?ThreadDetach@NativeDll@<CrtImplementationDetails>@@0IB 000000018001bb84     MSVCRT:initsect.obj
 0002:00000b88       ?ProcessVerifier@NativeDll@<CrtImplementationDetails>@@0IB 000000018001bb88     MSVCRT:initsect.obj
 0002:00000b8c       ?value@?$integral_constant@_N$0A@@std@@2_NB 000000018001bb8c     MSVCRT:tncleanup.obj
 0002:00000b8d       ?value@?$integral_constant@_N$00@std@@2_NB 000000018001bb8d     MSVCRT:tncleanup.obj
 0002:00000b90       ?value@?$_Sizeof@U_Nil@std@@U12@U12@U12@U12@U12@U12@U12@@std@@2_KB 000000018001bb90     MSVCRT:tncleanup.obj
 0002:00000ba0       _load_config_used          000000018001bba0     MSVCRT:loadcfg.obj
 0002:00000c10       __rtc_iaa                  000000018001bc10     MSVCRT:initsect.obj
 0002:00000c18       __rtc_izz                  000000018001bc18     MSVCRT:initsect.obj
 0002:00000c20       __rtc_taa                  000000018001bc20     MSVCRT:initsect.obj
 0002:00000c28       __rtc_tzz                  000000018001bc28     MSVCRT:initsect.obj
 0002:00001798       __IMPORT_DESCRIPTOR_sf_runtime 000000018001c798     sf_runtime:sf_runtime.dll
 0002:000017ac       __IMPORT_DESCRIPTOR_libmx  000000018001c7ac     libmx:libmx.dll
 0002:000017c0       __IMPORT_DESCRIPTOR_libmex 000000018001c7c0     libmex:libmex.dll
 0002:000017d4       __IMPORT_DESCRIPTOR_libut  000000018001c7d4     libut:libut.dll
 0002:000017e8       __IMPORT_DESCRIPTOR_MSVCR110 000000018001c7e8     MSVCRT:MSVCR110.dll
 0002:000017fc       __IMPORT_DESCRIPTOR_KERNEL32 000000018001c7fc     kernel32:KERNEL32.dll
 0002:00001810       __NULL_IMPORT_DESCRIPTOR   000000018001c810     sf_runtime:sf_runtime.dll
 0003:000025d8       DYNAMIC_DIMENSION          00000001800205d8     feedback_plant_sfun_registry.obj
 0003:00002d50       __security_cookie          0000000180020d50     MSVCRT:gs_cookie.obj
 0003:00002d58       __security_cookie_complement 0000000180020d58     MSVCRT:gs_cookie.obj
 0003:00002d60       _fltused                   0000000180020d60     MSVCRT:dllsupp.obj
 0003:00002d70       __native_dllmain_reason    0000000180020d70     MSVCRT:natstart.obj
 0003:00002dc8       sfGlobalDebugInstanceStruct 0000000180020dc8     feedback_plant_sfun_registry.obj
 0003:00003418       ?__type_info_root_node@@3U__type_info_node@@A 0000000180021418     MSVCRT:tncleanup.obj
 0003:00003428       _feedback_plantMachineNumber_ 0000000180021428     <common>
 0003:00003430       __native_startup_lock      0000000180021430     <common>
 0003:00003438       __native_startup_state     0000000180021438     <common>
 0003:00003440       __onexitend                0000000180021440     <common>
 0003:00003448       __onexitbegin              0000000180021448     <common>
 0003:00003450       __dyn_tls_init_callback    0000000180021450     <common>

 entry point at        0001:0001931c

 Static symbols

 0000:00000000       .debug$S                   0000000180000000     kernel32:KERNEL32.dll
 0000:00000000       .debug$S                   0000000180000000     kernel32:KERNEL32.dll
 0000:00000000       .debug$S                   0000000180000000     kernel32:KERNEL32.dll
 0000:00000000       .debug$S                   0000000180000000     kernel32:KERNEL32.dll
 0000:00000000       .debug$S                   0000000180000000     kernel32:KERNEL32.dll
 0000:00000000       .debug$S                   0000000180000000     kernel32:KERNEL32.dll
 0000:00000000       .debug$S                   0000000180000000     kernel32:KERNEL32.dll
 0000:00000000       .debug$S                   0000000180000000     kernel32:KERNEL32.dll
 0000:00000000       .debug$S                   0000000180000000     kernel32:KERNEL32.dll
 0000:00000000       .debug$S                   0000000180000000     sf_runtime:sf_runtime.dll
 0000:00000000       .debug$S                   0000000180000000     MSVCRT:MSVCR110.dll
 0000:00000000       .debug$S                   0000000180000000     MSVCRT:MSVCR110.dll
 0000:00000000       .debug$S                   0000000180000000     MSVCRT:MSVCR110.dll
 0000:00000000       .debug$S                   0000000180000000     MSVCRT:MSVCR110.dll
 0000:00000000       .debug$S                   0000000180000000     MSVCRT:MSVCR110.dll
 0000:00000000       .debug$S                   0000000180000000     MSVCRT:MSVCR110.dll
 0000:00000000       .debug$S                   0000000180000000     MSVCRT:MSVCR110.dll
 0000:00000000       .debug$S                   0000000180000000     MSVCRT:MSVCR110.dll
 0000:00000000       .debug$S                   0000000180000000     MSVCRT:MSVCR110.dll
 0000:00000000       .debug$S                   0000000180000000     MSVCRT:MSVCR110.dll
 0000:00000000       .debug$S                   0000000180000000     MSVCRT:MSVCR110.dll
 0000:00000000       .debug$S                   0000000180000000     MSVCRT:MSVCR110.dll
 0000:00000000       .debug$S                   0000000180000000     MSVCRT:MSVCR110.dll
 0000:00000000       .debug$S                   0000000180000000     MSVCRT:MSVCR110.dll
 0000:00000000       .debug$S                   0000000180000000     MSVCRT:MSVCR110.dll
 0000:00000000       .debug$S                   0000000180000000     MSVCRT:MSVCR110.dll
 0000:00000000       .debug$S                   0000000180000000     MSVCRT:MSVCR110.dll
 0000:00000000       .debug$S                   0000000180000000     MSVCRT:MSVCR110.dll
 0000:00000000       .debug$S                   0000000180000000     MSVCRT:MSVCR110.dll
 0000:00000000       .debug$S                   0000000180000000     MSVCRT:MSVCR110.dll
 0000:00000000       .debug$S                   0000000180000000     MSVCRT:MSVCR110.dll
 0000:00000000       .debug$S                   0000000180000000     MSVCRT:MSVCR110.dll
 0000:00000000       .debug$S                   0000000180000000     MSVCRT:MSVCR110.dll
 0000:00000000       .debug$S                   0000000180000000     MSVCRT:MSVCR110.dll
 0000:00000000       .debug$S                   0000000180000000     MSVCRT:MSVCR110.dll
 0000:00000000       .debug$S                   0000000180000000     sf_runtime:sf_runtime.dll
 0000:00000000       .debug$S                   0000000180000000     sf_runtime:sf_runtime.dll
 0000:00000000       .debug$S                   0000000180000000     sf_runtime:sf_runtime.dll
 0000:00000000       .debug$S                   0000000180000000     sf_runtime:sf_runtime.dll
 0000:00000000       .debug$S                   0000000180000000     sf_runtime:sf_runtime.dll
 0000:00000000       .debug$S                   0000000180000000     sf_runtime:sf_runtime.dll
 0000:00000000       .debug$S                   0000000180000000     sf_runtime:sf_runtime.dll
 0000:00000000       .debug$S                   0000000180000000     sf_runtime:sf_runtime.dll
 0000:00000000       .debug$S                   0000000180000000     sf_runtime:sf_runtime.dll
 0000:00000000       .debug$S                   0000000180000000     sf_runtime:sf_runtime.dll
 0000:00000000       .debug$S                   0000000180000000     sf_runtime:sf_runtime.dll
 0000:00000000       .debug$S                   0000000180000000     sf_runtime:sf_runtime.dll
 0000:00000000       .debug$S                   0000000180000000     sf_runtime:sf_runtime.dll
 0000:00000000       .debug$S                   0000000180000000     sf_runtime:sf_runtime.dll
 0000:00000000       .debug$S                   0000000180000000     sf_runtime:sf_runtime.dll
 0000:00000000       .debug$S                   0000000180000000     sf_runtime:sf_runtime.dll
 0000:00000000       .debug$S                   0000000180000000     sf_runtime:sf_runtime.dll
 0000:00000000       .debug$S                   0000000180000000     sf_runtime:sf_runtime.dll
 0000:00000000       .debug$S                   0000000180000000     sf_runtime:sf_runtime.dll
 0000:00000000       .debug$S                   0000000180000000     sf_runtime:sf_runtime.dll
 0000:00000000       .debug$S                   0000000180000000     sf_runtime:sf_runtime.dll
 0000:00000000       .debug$S                   0000000180000000     sf_runtime:sf_runtime.dll
 0000:00000000       .debug$S                   0000000180000000     sf_runtime:sf_runtime.dll
 0000:00000000       .debug$S                   0000000180000000     sf_runtime:sf_runtime.dll
 0000:00000000       .debug$S                   0000000180000000     sf_runtime:sf_runtime.dll
 0000:00000000       .debug$S                   0000000180000000     sf_runtime:sf_runtime.dll
 0000:00000000       .debug$S                   0000000180000000     sf_runtime:sf_runtime.dll
 0000:00000000       .debug$S                   0000000180000000     sf_runtime:sf_runtime.dll
 0000:00000000       .debug$S                   0000000180000000     sf_runtime:sf_runtime.dll
 0000:00000000       .debug$S                   0000000180000000     sf_runtime:sf_runtime.dll
 0000:00000000       .debug$S                   0000000180000000     sf_runtime:sf_runtime.dll
 0000:00000000       .debug$S                   0000000180000000     sf_runtime:sf_runtime.dll
 0000:00000000       .debug$S                   0000000180000000     sf_runtime:sf_runtime.dll
 0000:00000000       .debug$S                   0000000180000000     sf_runtime:sf_runtime.dll
 0000:00000000       .debug$S                   0000000180000000     libmx:libmx.dll
 0000:00000000       .debug$S                   0000000180000000     sf_runtime:sf_runtime.dll
 0000:00000000       .debug$S                   0000000180000000     sf_runtime:sf_runtime.dll
 0000:00000000       .debug$S                   0000000180000000     sf_runtime:sf_runtime.dll
 0000:00000000       .debug$S                   0000000180000000     libut:libut.dll
 0000:00000000       .debug$S                   0000000180000000     libut:libut.dll
 0000:00000000       .debug$S                   0000000180000000     libmx:libmx.dll
 0000:00000000       .debug$S                   0000000180000000     libmex:libmex.dll
 0000:00000000       .debug$S                   0000000180000000     libmex:libmex.dll
 0000:00000000       .debug$S                   0000000180000000     libmex:libmex.dll
 0000:00000000       .debug$S                   0000000180000000     libmex:libmex.dll
 0000:00000000       .debug$S                   0000000180000000     libmex:libmex.dll
 0000:00000000       .debug$S                   0000000180000000     libmex:libmex.dll
 0000:00000000       .debug$S                   0000000180000000     libmex:libmex.dll
 0000:00000000       .debug$S                   0000000180000000     sf_runtime:sf_runtime.dll
 0000:00000000       .debug$S                   0000000180000000     libmx:libmx.dll
 0000:00000000       .debug$S                   0000000180000000     libmx:libmx.dll
 0000:00000000       .debug$S                   0000000180000000     libmx:libmx.dll
 0000:00000000       .debug$S                   0000000180000000     libmx:libmx.dll
 0000:00000000       .debug$S                   0000000180000000     libmx:libmx.dll
 0000:00000000       .debug$S                   0000000180000000     libmx:libmx.dll
 0000:00000000       .debug$S                   0000000180000000     libmx:libmx.dll
 0000:00000000       .debug$S                   0000000180000000     libmx:libmx.dll
 0000:00000000       .debug$S                   0000000180000000     libmx:libmx.dll
 0000:00000000       .debug$S                   0000000180000000     libmx:libmx.dll
 0000:00000000       .debug$S                   0000000180000000     libmx:libmx.dll
 0000:00000000       .debug$S                   0000000180000000     libmx:libmx.dll
 0000:00000000       .debug$S                   0000000180000000     libmx:libmx.dll
 0000:00000000       .debug$S                   0000000180000000     libmx:libmx.dll
 0000:00000000       .debug$S                   0000000180000000     libmx:libmx.dll
 0000:00000000       .debug$S                   0000000180000000     libmx:libmx.dll
 0000:00000000       .debug$S                   0000000180000000     sf_runtime:sf_runtime.dll
 0000:00000000       .debug$S                   0000000180000000     sf_runtime:sf_runtime.dll
 0000:00000000       .debug$S                   0000000180000000     libmx:libmx.dll
 0000:00000000       .debug$S                   0000000180000000     sf_runtime:sf_runtime.dll
 0000:00000000       .debug$S                   0000000180000000     sf_runtime:sf_runtime.dll
 0000:00000000       .debug$S                   0000000180000000     sf_runtime:sf_runtime.dll
 0000:00000000       .debug$S                   0000000180000000     libmx:libmx.dll
 0000:00000000       .debug$S                   0000000180000000     sf_runtime:sf_runtime.dll
 0000:00000000       .debug$S                   0000000180000000     sf_runtime:sf_runtime.dll
 0000:00000000       .debug$S                   0000000180000000     sf_runtime:sf_runtime.dll
 0000:00000000       .debug$S                   0000000180000000     sf_runtime:sf_runtime.dll
 0000:00000000       .debug$S                   0000000180000000     sf_runtime:sf_runtime.dll
 0000:00000000       .debug$S                   0000000180000000     sf_runtime:sf_runtime.dll
 0000:00000000       .debug$S                   0000000180000000     sf_runtime:sf_runtime.dll
 0000:00000000       .debug$S                   0000000180000000     sf_runtime:sf_runtime.dll
 0000:00000000       .debug$S                   0000000180000000     sf_runtime:sf_runtime.dll
 0000:00000000       .debug$S                   0000000180000000     sf_runtime:sf_runtime.dll
 0000:00000000       .debug$S                   0000000180000000     sf_runtime:sf_runtime.dll
 0000:00000000       .debug$S                   0000000180000000     sf_runtime:sf_runtime.dll
 0000:00000000       .debug$S                   0000000180000000     sf_runtime:sf_runtime.dll
 0000:00000000       .debug$S                   0000000180000000     sf_runtime:sf_runtime.dll
 0000:00000000       .debug$S                   0000000180000000     sf_runtime:sf_runtime.dll
 0000:00000000       .debug$S                   0000000180000000     sf_runtime:sf_runtime.dll
 0000:00000000       .debug$S                   0000000180000000     sf_runtime:sf_runtime.dll
 0000:00000000       .debug$S                   0000000180000000     sf_runtime:sf_runtime.dll
 0000:00000000       .debug$S                   0000000180000000     sf_runtime:sf_runtime.dll
 0000:00000000       .debug$S                   0000000180000000     sf_runtime:sf_runtime.dll
 0000:00000000       .debug$S                   0000000180000000     sf_runtime:sf_runtime.dll
 0000:00000000       .debug$S                   0000000180000000     sf_runtime:sf_runtime.dll
 0000:00000000       .debug$S                   0000000180000000     sf_runtime:sf_runtime.dll
 0000:00000000       .debug$S                   0000000180000000     sf_runtime:sf_runtime.dll
 0000:00000000       .debug$S                   0000000180000000     sf_runtime:sf_runtime.dll
 0000:00000000       .debug$S                   0000000180000000     sf_runtime:sf_runtime.dll
 0000:00000000       .debug$S                   0000000180000000     sf_runtime:sf_runtime.dll
 0000:00000000       .debug$S                   0000000180000000     sf_runtime:sf_runtime.dll
 0000:00000000       .debug$S                   0000000180000000     sf_runtime:sf_runtime.dll
 0000:00000000       .debug$S                   0000000180000000     sf_runtime:sf_runtime.dll
 0000:00000000       .debug$S                   0000000180000000     sf_runtime:sf_runtime.dll
 0000:00000000       .debug$S                   0000000180000000     sf_runtime:sf_runtime.dll
 0000:00000000       .debug$S                   0000000180000000     sf_runtime:sf_runtime.dll
 0001:000016f0       chart_debug_initialization 00000001800026f0 f   c1_feedback_plant.obj
 0001:00002260       chart_debug_initialize_data_addresses 0000000180003260 f   c1_feedback_plant.obj
 0001:000024d0       initialize_c1_feedback_plant 00000001800034d0 f   c1_feedback_plant.obj
 0001:00002540       initialize_params_c1_feedback_plant 0000000180003540 f   c1_feedback_plant.obj
 0001:00002550       enable_c1_feedback_plant   0000000180003550 f   c1_feedback_plant.obj
 0001:00002580       disable_c1_feedback_plant  0000000180003580 f   c1_feedback_plant.obj
 0001:000025b0       c1_update_debugger_state_c1_feedback_plant 00000001800035b0 f   c1_feedback_plant.obj
 0001:000025c0       get_sim_state_c1_feedback_plant 00000001800035c0 f   c1_feedback_plant.obj
 0001:00002920       set_sim_state_c1_feedback_plant 0000000180003920 f   c1_feedback_plant.obj
 0001:00002ac0       finalize_c1_feedback_plant 0000000180003ac0 f   c1_feedback_plant.obj
 0001:00002ad0       sf_gateway_c1_feedback_plant 0000000180003ad0 f   c1_feedback_plant.obj
 0001:00003840       mdl_start_c1_feedback_plant 0000000180004840 f   c1_feedback_plant.obj
 0001:00003850       initSimStructsc1_feedback_plant 0000000180004850 f   c1_feedback_plant.obj
 0001:00003860       init_script_number_translation 0000000180004860 f   c1_feedback_plant.obj
 0001:00003880       c1_sf_marshallOut          0000000180004880 f   c1_feedback_plant.obj
 0001:00003930       c1_emlrt_marshallIn        0000000180004930 f   c1_feedback_plant.obj
 0001:000039a0       c1_b_emlrt_marshallIn      00000001800049a0 f   c1_feedback_plant.obj
 0001:00003a30       c1_sf_marshallIn           0000000180004a30 f   c1_feedback_plant.obj
 0001:00003ae0       c1_b_sf_marshallOut        0000000180004ae0 f   c1_feedback_plant.obj
 0001:00003bf0       c1_c_emlrt_marshallIn      0000000180004bf0 f   c1_feedback_plant.obj
 0001:00003ce0       c1_b_sf_marshallIn         0000000180004ce0 f   c1_feedback_plant.obj
 0001:00003de0       c1_e_emlrt_marshallIn      0000000180004de0 f   c1_feedback_plant.obj
 0001:00003e50       c1_f_emlrt_marshallIn      0000000180004e50 f   c1_feedback_plant.obj
 0001:00003ee0       init_dsm_address_info      0000000180004ee0 f   c1_feedback_plant.obj
 0001:00003ef0       init_simulink_io_address   0000000180004ef0 f   c1_feedback_plant.obj
 0001:00004d50       sf_get_sim_state_info_c1_feedback_plant 0000000180005d50 f   c1_feedback_plant.obj
 0001:00004e20       sf_get_instance_specialization 0000000180005e20 f   c1_feedback_plant.obj
 0001:00004e30       sf_opaque_initialize_c1_feedback_plant 0000000180005e30 f   c1_feedback_plant.obj
 0001:00004e70       sf_opaque_enable_c1_feedback_plant 0000000180005e70 f   c1_feedback_plant.obj
 0001:00004e90       sf_opaque_disable_c1_feedback_plant 0000000180005e90 f   c1_feedback_plant.obj
 0001:00004eb0       sf_opaque_gateway_c1_feedback_plant 0000000180005eb0 f   c1_feedback_plant.obj
 0001:00004ed0       sf_opaque_get_sim_state_c1_feedback_plant 0000000180005ed0 f   c1_feedback_plant.obj
 0001:00004f00       sf_opaque_set_sim_state_c1_feedback_plant 0000000180005f00 f   c1_feedback_plant.obj
 0001:00004f30       sf_opaque_terminate_c1_feedback_plant 0000000180005f30 f   c1_feedback_plant.obj
 0001:00004fd0       mdlProcessParameters_c1_feedback_plant 0000000180005fd0 f   c1_feedback_plant.obj
 0001:00005090       mdlSetWorkWidths_c1_feedback_plant 0000000180006090 f   c1_feedback_plant.obj
 0001:00005710       mdlRTW_c1_feedback_plant   0000000180006710 f   c1_feedback_plant.obj
 0001:00005750       mdlStart_c1_feedback_plant 0000000180006750 f   c1_feedback_plant.obj
 0001:00005b60       chart_debug_initialization 0000000180006b60 f   c18_feedback_plant.obj
 0001:00006410       chart_debug_initialize_data_addresses 0000000180007410 f   c18_feedback_plant.obj
 0001:00006550       initialize_c18_feedback_plant 0000000180007550 f   c18_feedback_plant.obj
 0001:000065c0       initialize_params_c18_feedback_plant 00000001800075c0 f   c18_feedback_plant.obj
 0001:000065d0       enable_c18_feedback_plant  00000001800075d0 f   c18_feedback_plant.obj
 0001:00006600       disable_c18_feedback_plant 0000000180007600 f   c18_feedback_plant.obj
 0001:00006630       c18_update_debugger_state_c18_feedback_plant 0000000180007630 f   c18_feedback_plant.obj
 0001:00006640       get_sim_state_c18_feedback_plant 0000000180007640 f   c18_feedback_plant.obj
 0001:000067d0       set_sim_state_c18_feedback_plant 00000001800077d0 f   c18_feedback_plant.obj
 0001:000068a0       finalize_c18_feedback_plant 00000001800078a0 f   c18_feedback_plant.obj
 0001:000068b0       sf_gateway_c18_feedback_plant 00000001800078b0 f   c18_feedback_plant.obj
 0001:00006bd0       mdl_start_c18_feedback_plant 0000000180007bd0 f   c18_feedback_plant.obj
 0001:00006be0       c18_chartstep_c18_feedback_plant 0000000180007be0 f   c18_feedback_plant.obj
 0001:00008900       initSimStructsc18_feedback_plant 0000000180009900 f   c18_feedback_plant.obj
 0001:00008910       init_script_number_translation 0000000180009910 f   c18_feedback_plant.obj
 0001:00008930       c18_sf_marshallOut         0000000180009930 f   c18_feedback_plant.obj
 0001:000089e0       c18_emlrt_marshallIn       00000001800099e0 f   c18_feedback_plant.obj
 0001:00008a50       c18_b_emlrt_marshallIn     0000000180009a50 f   c18_feedback_plant.obj
 0001:00008ae0       c18_sf_marshallIn          0000000180009ae0 f   c18_feedback_plant.obj
 0001:00008b90       c18_b_sf_marshallOut       0000000180009b90 f   c18_feedback_plant.obj
 0001:00008ca0       c18_c_sf_marshallOut       0000000180009ca0 f   c18_feedback_plant.obj
 0001:00008db0       c18_d_sf_marshallOut       0000000180009db0 f   c18_feedback_plant.obj
 0001:00008f70       c18_c_emlrt_marshallIn     0000000180009f70 f   c18_feedback_plant.obj
 0001:00009180       c18_b_sf_marshallIn        000000018000a180 f   c18_feedback_plant.obj
 0001:00009300       c18_e_sf_marshallOut       000000018000a300 f   c18_feedback_plant.obj
 0001:000094c0       c18_d_emlrt_marshallIn     000000018000a4c0 f   c18_feedback_plant.obj
 0001:000096d0       c18_c_sf_marshallIn        000000018000a6d0 f   c18_feedback_plant.obj
 0001:00009850       c18_f_sf_marshallOut       000000018000a850 f   c18_feedback_plant.obj
 0001:00009a10       c18_e_emlrt_marshallIn     000000018000aa10 f   c18_feedback_plant.obj
 0001:00009c20       c18_d_sf_marshallIn        000000018000ac20 f   c18_feedback_plant.obj
 0001:00009da0       c18_g_sf_marshallOut       000000018000ada0 f   c18_feedback_plant.obj
 0001:00009ec0       c18_f_emlrt_marshallIn     000000018000aec0 f   c18_feedback_plant.obj
 0001:00009fc0       c18_e_sf_marshallIn        000000018000afc0 f   c18_feedback_plant.obj
 0001:0000a0c0       c18_h_emlrt_marshallIn     000000018000b0c0 f   c18_feedback_plant.obj
 0001:0000a130       c18_i_emlrt_marshallIn     000000018000b130 f   c18_feedback_plant.obj
 0001:0000a1c0       init_dsm_address_info      000000018000b1c0 f   c18_feedback_plant.obj
 0001:0000a1d0       init_simulink_io_address   000000018000b1d0 f   c18_feedback_plant.obj
 0001:0000aa90       sf_get_sim_state_info_c18_feedback_plant 000000018000ba90 f   c18_feedback_plant.obj
 0001:0000ab60       sf_get_instance_specialization 000000018000bb60 f   c18_feedback_plant.obj
 0001:0000ab70       sf_opaque_initialize_c18_feedback_plant 000000018000bb70 f   c18_feedback_plant.obj
 0001:0000abb0       sf_opaque_enable_c18_feedback_plant 000000018000bbb0 f   c18_feedback_plant.obj
 0001:0000abd0       sf_opaque_disable_c18_feedback_plant 000000018000bbd0 f   c18_feedback_plant.obj
 0001:0000abf0       sf_opaque_gateway_c18_feedback_plant 000000018000bbf0 f   c18_feedback_plant.obj
 0001:0000ac10       sf_opaque_get_sim_state_c18_feedback_plant 000000018000bc10 f   c18_feedback_plant.obj
 0001:0000ac40       sf_opaque_set_sim_state_c18_feedback_plant 000000018000bc40 f   c18_feedback_plant.obj
 0001:0000ac70       sf_opaque_terminate_c18_feedback_plant 000000018000bc70 f   c18_feedback_plant.obj
 0001:0000ad10       mdlProcessParameters_c18_feedback_plant 000000018000bd10 f   c18_feedback_plant.obj
 0001:0000add0       mdlSetWorkWidths_c18_feedback_plant 000000018000bdd0 f   c18_feedback_plant.obj
 0001:0000b410       mdlRTW_c18_feedback_plant  000000018000c410 f   c18_feedback_plant.obj
 0001:0000b450       mdlStart_c18_feedback_plant 000000018000c450 f   c18_feedback_plant.obj
 0001:0000b860       chart_debug_initialization 000000018000c860 f   c19_feedback_plant.obj
 0001:0000c110       chart_debug_initialize_data_addresses 000000018000d110 f   c19_feedback_plant.obj
 0001:0000c250       initialize_c19_feedback_plant 000000018000d250 f   c19_feedback_plant.obj
 0001:0000c2c0       initialize_params_c19_feedback_plant 000000018000d2c0 f   c19_feedback_plant.obj
 0001:0000c2d0       enable_c19_feedback_plant  000000018000d2d0 f   c19_feedback_plant.obj
 0001:0000c300       disable_c19_feedback_plant 000000018000d300 f   c19_feedback_plant.obj
 0001:0000c330       c19_update_debugger_state_c19_feedback_plant 000000018000d330 f   c19_feedback_plant.obj
 0001:0000c340       get_sim_state_c19_feedback_plant 000000018000d340 f   c19_feedback_plant.obj
 0001:0000c4d0       set_sim_state_c19_feedback_plant 000000018000d4d0 f   c19_feedback_plant.obj
 0001:0000c5a0       finalize_c19_feedback_plant 000000018000d5a0 f   c19_feedback_plant.obj
 0001:0000c5b0       sf_gateway_c19_feedback_plant 000000018000d5b0 f   c19_feedback_plant.obj
 0001:0000c8d0       mdl_start_c19_feedback_plant 000000018000d8d0 f   c19_feedback_plant.obj
 0001:0000c8e0       c19_chartstep_c19_feedback_plant 000000018000d8e0 f   c19_feedback_plant.obj
 0001:0000e450       initSimStructsc19_feedback_plant 000000018000f450 f   c19_feedback_plant.obj
 0001:0000e460       init_script_number_translation 000000018000f460 f   c19_feedback_plant.obj
 0001:0000e480       c19_sf_marshallOut         000000018000f480 f   c19_feedback_plant.obj
 0001:0000e530       c19_emlrt_marshallIn       000000018000f530 f   c19_feedback_plant.obj
 0001:0000e5a0       c19_b_emlrt_marshallIn     000000018000f5a0 f   c19_feedback_plant.obj
 0001:0000e630       c19_sf_marshallIn          000000018000f630 f   c19_feedback_plant.obj
 0001:0000e6e0       c19_b_sf_marshallOut       000000018000f6e0 f   c19_feedback_plant.obj
 0001:0000e7f0       c19_c_sf_marshallOut       000000018000f7f0 f   c19_feedback_plant.obj
 0001:0000e900       c19_d_sf_marshallOut       000000018000f900 f   c19_feedback_plant.obj
 0001:0000eac0       c19_c_emlrt_marshallIn     000000018000fac0 f   c19_feedback_plant.obj
 0001:0000ecd0       c19_b_sf_marshallIn        000000018000fcd0 f   c19_feedback_plant.obj
 0001:0000ee50       c19_e_sf_marshallOut       000000018000fe50 f   c19_feedback_plant.obj
 0001:0000f010       c19_d_emlrt_marshallIn     0000000180010010 f   c19_feedback_plant.obj
 0001:0000f220       c19_c_sf_marshallIn        0000000180010220 f   c19_feedback_plant.obj
 0001:0000f3a0       c19_f_sf_marshallOut       00000001800103a0 f   c19_feedback_plant.obj
 0001:0000f560       c19_e_emlrt_marshallIn     0000000180010560 f   c19_feedback_plant.obj
 0001:0000f770       c19_d_sf_marshallIn        0000000180010770 f   c19_feedback_plant.obj
 0001:0000f8f0       c19_g_sf_marshallOut       00000001800108f0 f   c19_feedback_plant.obj
 0001:0000fa10       c19_f_emlrt_marshallIn     0000000180010a10 f   c19_feedback_plant.obj
 0001:0000fb10       c19_e_sf_marshallIn        0000000180010b10 f   c19_feedback_plant.obj
 0001:0000fc10       c19_h_emlrt_marshallIn     0000000180010c10 f   c19_feedback_plant.obj
 0001:0000fc80       c19_i_emlrt_marshallIn     0000000180010c80 f   c19_feedback_plant.obj
 0001:0000fd10       init_dsm_address_info      0000000180010d10 f   c19_feedback_plant.obj
 0001:0000fd20       init_simulink_io_address   0000000180010d20 f   c19_feedback_plant.obj
 0001:000105e0       sf_get_sim_state_info_c19_feedback_plant 00000001800115e0 f   c19_feedback_plant.obj
 0001:000106b0       sf_get_instance_specialization 00000001800116b0 f   c19_feedback_plant.obj
 0001:000106c0       sf_opaque_initialize_c19_feedback_plant 00000001800116c0 f   c19_feedback_plant.obj
 0001:00010700       sf_opaque_enable_c19_feedback_plant 0000000180011700 f   c19_feedback_plant.obj
 0001:00010720       sf_opaque_disable_c19_feedback_plant 0000000180011720 f   c19_feedback_plant.obj
 0001:00010740       sf_opaque_gateway_c19_feedback_plant 0000000180011740 f   c19_feedback_plant.obj
 0001:00010760       sf_opaque_get_sim_state_c19_feedback_plant 0000000180011760 f   c19_feedback_plant.obj
 0001:00010790       sf_opaque_set_sim_state_c19_feedback_plant 0000000180011790 f   c19_feedback_plant.obj
 0001:000107c0       sf_opaque_terminate_c19_feedback_plant 00000001800117c0 f   c19_feedback_plant.obj
 0001:00010860       mdlProcessParameters_c19_feedback_plant 0000000180011860 f   c19_feedback_plant.obj
 0001:00010920       mdlSetWorkWidths_c19_feedback_plant 0000000180011920 f   c19_feedback_plant.obj
 0001:00010f60       mdlRTW_c19_feedback_plant  0000000180011f60 f   c19_feedback_plant.obj
 0001:00010fa0       mdlStart_c19_feedback_plant 0000000180011fa0 f   c19_feedback_plant.obj
 0001:000124e8       $LN120                     00000001800134e8     feedback_plant_sfun_registry.obj
 0001:00014264       $LN17                      0000000180015264     feedback_plant_sfun_registry.obj
 0001:000147ec       $LN26                      00000001800157ec     feedback_plant_sfun_registry.obj
 0001:00014ed4       $LN23                      0000000180015ed4     feedback_plant_sfun_registry.obj
 0001:000154b0       $LN26                      00000001800164b0     feedback_plant_sfun_registry.obj
 0001:000170d0       sf_debug_api_wrapper       00000001800180d0 f   feedback_plant_sfun_registry.obj
 0001:00017120       ProcessMexSfunctionCmdLineCall 0000000180018120 f   feedback_plant_sfun_registry.obj
 0001:000174b0       mdlSetWorkWidths           00000001800184b0 f   feedback_plant_sfun_registry.obj
 0001:000174e0       mdlProcessParameters       00000001800184e0 f   feedback_plant_sfun_registry.obj
 0001:00017510       mdl_start_processing       0000000180018510 f   feedback_plant_sfun_registry.obj
 0001:000175c0       mdl_terminate_processing   00000001800185c0 f   feedback_plant_sfun_registry.obj
 0001:00017640       mdlStart                   0000000180018640 f   feedback_plant_sfun_registry.obj
 0001:00017670       mdlTerminate               0000000180018670 f   feedback_plant_sfun_registry.obj
 0001:000176a0       mdlInitializeSizes         00000001800186a0 f   feedback_plant_sfun_registry.obj
 0001:000176d0       mdlInitializeSampleTimes   00000001800186d0 f   feedback_plant_sfun_registry.obj
 0001:00017700       mdl_outputs_continuous_legacy 0000000180018700 f   feedback_plant_sfun_registry.obj
 0001:00017800       mdl_outputs_processing     0000000180018800 f   feedback_plant_sfun_registry.obj
 0001:00017920       mdl_zeroCrossings_processing 0000000180018920 f   feedback_plant_sfun_registry.obj
 0001:00017960       mdlZeroCrossings           0000000180018960 f   feedback_plant_sfun_registry.obj
 0001:00017990       mdl_derivatives_processing 0000000180018990 f   feedback_plant_sfun_registry.obj
 0001:000179e0       mdlDerivatives             00000001800189e0 f   feedback_plant_sfun_registry.obj
 0001:00017a10       mdl_initialize_conditions_processing 0000000180018a10 f   feedback_plant_sfun_registry.obj
 0001:00017a60       mdlInitializeConditions    0000000180018a60 f   feedback_plant_sfun_registry.obj
 0001:00017a90       mdl_ext_mode_exec_processing 0000000180018a90 f   feedback_plant_sfun_registry.obj
 0001:00017ad0       mdlExtModeExec             0000000180018ad0 f   feedback_plant_sfun_registry.obj
 0001:00017b00       mdlRTW                     0000000180018b00 f   feedback_plant_sfun_registry.obj
 0001:00017b40       mdl_enable_processing      0000000180018b40 f   feedback_plant_sfun_registry.obj
 0001:00017b80       mdlEnable                  0000000180018b80 f   feedback_plant_sfun_registry.obj
 0001:00017bb0       mdl_disable_processing     0000000180018bb0 f   feedback_plant_sfun_registry.obj
 0001:00017bf0       mdlDisable                 0000000180018bf0 f   feedback_plant_sfun_registry.obj
 0001:00017c20       mdlOutputs                 0000000180018c20 f   feedback_plant_sfun_registry.obj
 0001:00017c50       mdl_update_processing      0000000180018c50 f   feedback_plant_sfun_registry.obj
 0001:00017ca0       mdlUpdate                  0000000180018ca0 f   feedback_plant_sfun_registry.obj
 0001:00017e80       mdlGetTimeOfNextVarHit     0000000180018e80 f   feedback_plant_sfun_registry.obj
 0001:00017ed0       _RegNumInputPortsCB        0000000180018ed0 f   feedback_plant_sfun_registry.obj
 0001:00017f50       _RegNumOutputPortsCB       0000000180018f50 f   feedback_plant_sfun_registry.obj
 0001:00017fd0       _CreateSimStruct           0000000180018fd0 f   feedback_plant_sfun_registry.obj
 0001:000181b0       _ssFatalError              00000001800191b0 f   feedback_plant_sfun_registry.obj
 0001:00018260       _ProcessMexSfunctionCmdLineCall 0000000180019260 f   feedback_plant_sfun_registry.obj
 0001:00018fa0       $$000000                   0000000180019fa0     MSVCRT:amdsecgs.obj
 0001:00018fe0       $$000000                   0000000180019fe0     MSVCRT:chkstk.obj
 0001:00019064       pre_c_init                 000000018001a064 f   MSVCRT:crtdll.obj
 0001:0001935c       __DllMainCRTStartup        000000018001a35c f   MSVCRT:crtdll.obj
 0001:00019870       __DllMainCRTStartup$filt$0 000000018001a870 f   MSVCRT:crtdll.obj
 0001:00019895       __DllMainCRTStartup$fin$1  000000018001a895 f   MSVCRT:crtdll.obj
 0001:000198b0       _IsNonwritableInCurrentImage$filt$0 000000018001a8b0 f   MSVCRT:pesect.obj
 0001:000198d0       _onexit$fin$0              000000018001a8d0 f   MSVCRT:atonexit.obj
 0002:000004a8       pcinit                     000000018001b4a8     MSVCRT:crtdll.obj
 0002:000004b0       pinit                      000000018001b4b0     MSVCRT:atonexit.obj
 0002:00000b60       GS_ExceptionPointers       000000018001bb60     MSVCRT:gs_report.obj
 0002:00000c30       $unwind$load_feedback_plant_optimization_info 000000018001bc30     feedback_plant_sfun.obj
 0002:00000c38       $unwind$unload_feedback_plant_optimization_info 000000018001bc38     feedback_plant_sfun.obj
 0002:00000c40       $unwind$sf_feedback_plant_method_dispatcher 000000018001bc40     feedback_plant_sfun.obj
 0002:00000c48       $unwind$sf_feedback_plant_process_testpoint_info_call 000000018001bc48     feedback_plant_sfun.obj
 0002:00000c58       $unwind$sf_feedback_plant_process_check_sum_call 000000018001bc58     feedback_plant_sfun.obj
 0002:00000c68       $unwind$sf_feedback_plant_autoinheritance_info 000000018001bc68     feedback_plant_sfun.obj
 0002:00000c78       $unwind$sf_feedback_plant_get_eml_resolved_functions_info 000000018001bc78     feedback_plant_sfun.obj
 0002:00000c88       $unwind$sf_feedback_plant_third_party_uses_info 000000018001bc88     feedback_plant_sfun.obj
 0002:00000c98       $unwind$sf_feedback_plant_jit_fallback_info 000000018001bc98     feedback_plant_sfun.obj
 0002:00000ca8       $unwind$sf_feedback_plant_updateBuildInfo_args_info 000000018001bca8     feedback_plant_sfun.obj
 0002:00000cb8       $unwind$feedback_plant_debug_initialize 000000018001bcb8     feedback_plant_sfun.obj
 0002:00000cc0       $unwind$sf_c1_feedback_plant_get_eml_resolved_functions_info 000000018001bcc0     c1_feedback_plant.obj
 0002:00000cc8       $unwind$sf_c1_feedback_plant_get_check_sum 000000018001bcc8     c1_feedback_plant.obj
 0002:00000cd0       $unwind$c1_feedback_plant_method_dispatcher 000000018001bcd0     c1_feedback_plant.obj
 0002:00000cd8       $unwind$chart_debug_initialization 000000018001bcd8     c1_feedback_plant.obj
 0002:00000ce0       $unwind$chart_debug_initialize_data_addresses 000000018001bce0     c1_feedback_plant.obj
 0002:00000ce8       $unwind$initialize_c1_feedback_plant 000000018001bce8     c1_feedback_plant.obj
 0002:00000cf0       $unwind$enable_c1_feedback_plant 000000018001bcf0     c1_feedback_plant.obj
 0002:00000cf8       $unwind$disable_c1_feedback_plant 000000018001bcf8     c1_feedback_plant.obj
 0002:00000d00       $unwind$get_sim_state_c1_feedback_plant 000000018001bd00     c1_feedback_plant.obj
 0002:00000d08       $unwind$set_sim_state_c1_feedback_plant 000000018001bd08     c1_feedback_plant.obj
 0002:00000d10       $unwind$sf_gateway_c1_feedback_plant 000000018001bd10     c1_feedback_plant.obj
 0002:00000d20       $unwind$c1_sf_marshallOut  000000018001bd20     c1_feedback_plant.obj
 0002:00000d28       $unwind$c1_emlrt_marshallIn 000000018001bd28     c1_feedback_plant.obj
 0002:00000d30       $unwind$c1_b_emlrt_marshallIn 000000018001bd30     c1_feedback_plant.obj
 0002:00000d38       $unwind$c1_sf_marshallIn   000000018001bd38     c1_feedback_plant.obj
 0002:00000d40       $unwind$c1_b_sf_marshallOut 000000018001bd40     c1_feedback_plant.obj
 0002:00000d50       $unwind$c1_c_emlrt_marshallIn 000000018001bd50     c1_feedback_plant.obj
 0002:00000d60       $unwind$c1_b_sf_marshallIn 000000018001bd60     c1_feedback_plant.obj
 0002:00000d70       $unwind$c1_e_emlrt_marshallIn 000000018001bd70     c1_feedback_plant.obj
 0002:00000d78       $unwind$c1_f_emlrt_marshallIn 000000018001bd78     c1_feedback_plant.obj
 0002:00000d80       $unwind$init_simulink_io_address 000000018001bd80     c1_feedback_plant.obj
 0002:00000d88       $unwind$sf_c1_feedback_plant_get_post_codegen_info 000000018001bd88     c1_feedback_plant.obj
 0002:00000d90       $unwind$sf_c1_feedback_plant_get_autoinheritance_info 000000018001bd90     c1_feedback_plant.obj
 0002:00000d98       $unwind$sf_c1_feedback_plant_third_party_uses_info 000000018001bd98     c1_feedback_plant.obj
 0002:00000da0       $unwind$sf_c1_feedback_plant_jit_fallback_info 000000018001bda0     c1_feedback_plant.obj
 0002:00000da8       $unwind$sf_c1_feedback_plant_updateBuildInfo_args_info 000000018001bda8     c1_feedback_plant.obj
 0002:00000db0       $unwind$sf_get_sim_state_info_c1_feedback_plant 000000018001bdb0     c1_feedback_plant.obj
 0002:00000db8       $unwind$sf_opaque_initialize_c1_feedback_plant 000000018001bdb8     c1_feedback_plant.obj
 0002:00000dc0       $unwind$sf_opaque_enable_c1_feedback_plant 000000018001bdc0     c1_feedback_plant.obj
 0002:00000dc8       $unwind$sf_opaque_disable_c1_feedback_plant 000000018001bdc8     c1_feedback_plant.obj
 0002:00000dd0       $unwind$sf_opaque_gateway_c1_feedback_plant 000000018001bdd0     c1_feedback_plant.obj
 0002:00000dd8       $unwind$sf_opaque_get_sim_state_c1_feedback_plant 000000018001bdd8     c1_feedback_plant.obj
 0002:00000de0       $unwind$sf_opaque_set_sim_state_c1_feedback_plant 000000018001bde0     c1_feedback_plant.obj
 0002:00000de8       $unwind$sf_opaque_terminate_c1_feedback_plant 000000018001bde8     c1_feedback_plant.obj
 0002:00000df0       $unwind$mdlProcessParameters_c1_feedback_plant 000000018001bdf0     c1_feedback_plant.obj
 0002:00000df8       $unwind$mdlSetWorkWidths_c1_feedback_plant 000000018001bdf8     c1_feedback_plant.obj
 0002:00000e00       $unwind$mdlRTW_c1_feedback_plant 000000018001be00     c1_feedback_plant.obj
 0002:00000e08       $unwind$mdlStart_c1_feedback_plant 000000018001be08     c1_feedback_plant.obj
 0002:00000e10       $unwind$sf_c18_feedback_plant_get_eml_resolved_functions_info 000000018001be10     c18_feedback_plant.obj
 0002:00000e18       $unwind$sf_c18_feedback_plant_get_check_sum 000000018001be18     c18_feedback_plant.obj
 0002:00000e20       $unwind$c18_feedback_plant_method_dispatcher 000000018001be20     c18_feedback_plant.obj
 0002:00000e28       $unwind$chart_debug_initialization 000000018001be28     c18_feedback_plant.obj
 0002:00000e30       $unwind$chart_debug_initialize_data_addresses 000000018001be30     c18_feedback_plant.obj
 0002:00000e38       $unwind$initialize_c18_feedback_plant 000000018001be38     c18_feedback_plant.obj
 0002:00000e40       $unwind$enable_c18_feedback_plant 000000018001be40     c18_feedback_plant.obj
 0002:00000e48       $unwind$disable_c18_feedback_plant 000000018001be48     c18_feedback_plant.obj
 0002:00000e50       $unwind$get_sim_state_c18_feedback_plant 000000018001be50     c18_feedback_plant.obj
 0002:00000e58       $unwind$set_sim_state_c18_feedback_plant 000000018001be58     c18_feedback_plant.obj
 0002:00000e60       $unwind$sf_gateway_c18_feedback_plant 000000018001be60     c18_feedback_plant.obj
 0002:00000e68       $unwind$c18_chartstep_c18_feedback_plant 000000018001be68     c18_feedback_plant.obj
 0002:00000e78       $unwind$c18_sf_marshallOut 000000018001be78     c18_feedback_plant.obj
 0002:00000e80       $unwind$c18_emlrt_marshallIn 000000018001be80     c18_feedback_plant.obj
 0002:00000e88       $unwind$c18_b_emlrt_marshallIn 000000018001be88     c18_feedback_plant.obj
 0002:00000e90       $unwind$c18_sf_marshallIn  000000018001be90     c18_feedback_plant.obj
 0002:00000e98       $unwind$c18_b_sf_marshallOut 000000018001be98     c18_feedback_plant.obj
 0002:00000ea8       $unwind$c18_c_sf_marshallOut 000000018001bea8     c18_feedback_plant.obj
 0002:00000eb8       $unwind$c18_d_sf_marshallOut 000000018001beb8     c18_feedback_plant.obj
 0002:00000ec8       $unwind$c18_c_emlrt_marshallIn 000000018001bec8     c18_feedback_plant.obj
 0002:00000ed8       $unwind$c18_b_sf_marshallIn 000000018001bed8     c18_feedback_plant.obj
 0002:00000ee8       $unwind$c18_e_sf_marshallOut 000000018001bee8     c18_feedback_plant.obj
 0002:00000ef8       $unwind$c18_d_emlrt_marshallIn 000000018001bef8     c18_feedback_plant.obj
 0002:00000f08       $unwind$c18_c_sf_marshallIn 000000018001bf08     c18_feedback_plant.obj
 0002:00000f18       $unwind$c18_f_sf_marshallOut 000000018001bf18     c18_feedback_plant.obj
 0002:00000f28       $unwind$c18_e_emlrt_marshallIn 000000018001bf28     c18_feedback_plant.obj
 0002:00000f38       $unwind$c18_d_sf_marshallIn 000000018001bf38     c18_feedback_plant.obj
 0002:00000f48       $unwind$c18_g_sf_marshallOut 000000018001bf48     c18_feedback_plant.obj
 0002:00000f58       $unwind$c18_f_emlrt_marshallIn 000000018001bf58     c18_feedback_plant.obj
 0002:00000f68       $unwind$c18_e_sf_marshallIn 000000018001bf68     c18_feedback_plant.obj
 0002:00000f78       $unwind$c18_h_emlrt_marshallIn 000000018001bf78     c18_feedback_plant.obj
 0002:00000f80       $unwind$c18_i_emlrt_marshallIn 000000018001bf80     c18_feedback_plant.obj
 0002:00000f88       $unwind$init_simulink_io_address 000000018001bf88     c18_feedback_plant.obj
 0002:00000f90       $unwind$sf_c18_feedback_plant_get_post_codegen_info 000000018001bf90     c18_feedback_plant.obj
 0002:00000f98       $unwind$sf_c18_feedback_plant_get_autoinheritance_info 000000018001bf98     c18_feedback_plant.obj
 0002:00000fa0       $unwind$sf_c18_feedback_plant_third_party_uses_info 000000018001bfa0     c18_feedback_plant.obj
 0002:00000fa8       $unwind$sf_c18_feedback_plant_jit_fallback_info 000000018001bfa8     c18_feedback_plant.obj
 0002:00000fb0       $unwind$sf_c18_feedback_plant_updateBuildInfo_args_info 000000018001bfb0     c18_feedback_plant.obj
 0002:00000fb8       $unwind$sf_get_sim_state_info_c18_feedback_plant 000000018001bfb8     c18_feedback_plant.obj
 0002:00000fc0       $unwind$sf_opaque_initialize_c18_feedback_plant 000000018001bfc0     c18_feedback_plant.obj
 0002:00000fc8       $unwind$sf_opaque_enable_c18_feedback_plant 000000018001bfc8     c18_feedback_plant.obj
 0002:00000fd0       $unwind$sf_opaque_disable_c18_feedback_plant 000000018001bfd0     c18_feedback_plant.obj
 0002:00000fd8       $unwind$sf_opaque_gateway_c18_feedback_plant 000000018001bfd8     c18_feedback_plant.obj
 0002:00000fe0       $unwind$sf_opaque_get_sim_state_c18_feedback_plant 000000018001bfe0     c18_feedback_plant.obj
 0002:00000fe8       $unwind$sf_opaque_set_sim_state_c18_feedback_plant 000000018001bfe8     c18_feedback_plant.obj
 0002:00000ff0       $unwind$sf_opaque_terminate_c18_feedback_plant 000000018001bff0     c18_feedback_plant.obj
 0002:00000ff8       $unwind$mdlProcessParameters_c18_feedback_plant 000000018001bff8     c18_feedback_plant.obj
 0002:00001000       $unwind$mdlSetWorkWidths_c18_feedback_plant 000000018001c000     c18_feedback_plant.obj
 0002:00001008       $unwind$mdlRTW_c18_feedback_plant 000000018001c008     c18_feedback_plant.obj
 0002:00001010       $unwind$mdlStart_c18_feedback_plant 000000018001c010     c18_feedback_plant.obj
 0002:00001018       $unwind$sf_c19_feedback_plant_get_eml_resolved_functions_info 000000018001c018     c19_feedback_plant.obj
 0002:00001020       $unwind$sf_c19_feedback_plant_get_check_sum 000000018001c020     c19_feedback_plant.obj
 0002:00001028       $unwind$c19_feedback_plant_method_dispatcher 000000018001c028     c19_feedback_plant.obj
 0002:00001030       $unwind$chart_debug_initialization 000000018001c030     c19_feedback_plant.obj
 0002:00001038       $unwind$chart_debug_initialize_data_addresses 000000018001c038     c19_feedback_plant.obj
 0002:00001040       $unwind$initialize_c19_feedback_plant 000000018001c040     c19_feedback_plant.obj
 0002:00001048       $unwind$enable_c19_feedback_plant 000000018001c048     c19_feedback_plant.obj
 0002:00001050       $unwind$disable_c19_feedback_plant 000000018001c050     c19_feedback_plant.obj
 0002:00001058       $unwind$get_sim_state_c19_feedback_plant 000000018001c058     c19_feedback_plant.obj
 0002:00001060       $unwind$set_sim_state_c19_feedback_plant 000000018001c060     c19_feedback_plant.obj
 0002:00001068       $unwind$sf_gateway_c19_feedback_plant 000000018001c068     c19_feedback_plant.obj
 0002:00001070       $unwind$c19_chartstep_c19_feedback_plant 000000018001c070     c19_feedback_plant.obj
 0002:00001080       $unwind$c19_sf_marshallOut 000000018001c080     c19_feedback_plant.obj
 0002:00001088       $unwind$c19_emlrt_marshallIn 000000018001c088     c19_feedback_plant.obj
 0002:00001090       $unwind$c19_b_emlrt_marshallIn 000000018001c090     c19_feedback_plant.obj
 0002:00001098       $unwind$c19_sf_marshallIn  000000018001c098     c19_feedback_plant.obj
 0002:000010a0       $unwind$c19_b_sf_marshallOut 000000018001c0a0     c19_feedback_plant.obj
 0002:000010b0       $unwind$c19_c_sf_marshallOut 000000018001c0b0     c19_feedback_plant.obj
 0002:000010c0       $unwind$c19_d_sf_marshallOut 000000018001c0c0     c19_feedback_plant.obj
 0002:000010d0       $unwind$c19_c_emlrt_marshallIn 000000018001c0d0     c19_feedback_plant.obj
 0002:000010e0       $unwind$c19_b_sf_marshallIn 000000018001c0e0     c19_feedback_plant.obj
 0002:000010f0       $unwind$c19_e_sf_marshallOut 000000018001c0f0     c19_feedback_plant.obj
 0002:00001100       $unwind$c19_d_emlrt_marshallIn 000000018001c100     c19_feedback_plant.obj
 0002:00001110       $unwind$c19_c_sf_marshallIn 000000018001c110     c19_feedback_plant.obj
 0002:00001120       $unwind$c19_f_sf_marshallOut 000000018001c120     c19_feedback_plant.obj
 0002:00001130       $unwind$c19_e_emlrt_marshallIn 000000018001c130     c19_feedback_plant.obj
 0002:00001140       $unwind$c19_d_sf_marshallIn 000000018001c140     c19_feedback_plant.obj
 0002:00001150       $unwind$c19_g_sf_marshallOut 000000018001c150     c19_feedback_plant.obj
 0002:00001160       $unwind$c19_f_emlrt_marshallIn 000000018001c160     c19_feedback_plant.obj
 0002:00001170       $unwind$c19_e_sf_marshallIn 000000018001c170     c19_feedback_plant.obj
 0002:00001180       $unwind$c19_h_emlrt_marshallIn 000000018001c180     c19_feedback_plant.obj
 0002:00001188       $unwind$c19_i_emlrt_marshallIn 000000018001c188     c19_feedback_plant.obj
 0002:00001190       $unwind$init_simulink_io_address 000000018001c190     c19_feedback_plant.obj
 0002:00001198       $unwind$sf_c19_feedback_plant_get_post_codegen_info 000000018001c198     c19_feedback_plant.obj
 0002:000011a0       $unwind$sf_c19_feedback_plant_get_autoinheritance_info 000000018001c1a0     c19_feedback_plant.obj
 0002:000011a8       $unwind$sf_c19_feedback_plant_third_party_uses_info 000000018001c1a8     c19_feedback_plant.obj
 0002:000011b0       $unwind$sf_c19_feedback_plant_jit_fallback_info 000000018001c1b0     c19_feedback_plant.obj
 0002:000011b8       $unwind$sf_c19_feedback_plant_updateBuildInfo_args_info 000000018001c1b8     c19_feedback_plant.obj
 0002:000011c0       $unwind$sf_get_sim_state_info_c19_feedback_plant 000000018001c1c0     c19_feedback_plant.obj
 0002:000011c8       $unwind$sf_opaque_initialize_c19_feedback_plant 000000018001c1c8     c19_feedback_plant.obj
 0002:000011d0       $unwind$sf_opaque_enable_c19_feedback_plant 000000018001c1d0     c19_feedback_plant.obj
 0002:000011d8       $unwind$sf_opaque_disable_c19_feedback_plant 000000018001c1d8     c19_feedback_plant.obj
 0002:000011e0       $unwind$sf_opaque_gateway_c19_feedback_plant 000000018001c1e0     c19_feedback_plant.obj
 0002:000011e8       $unwind$sf_opaque_get_sim_state_c19_feedback_plant 000000018001c1e8     c19_feedback_plant.obj
 0002:000011f0       $unwind$sf_opaque_set_sim_state_c19_feedback_plant 000000018001c1f0     c19_feedback_plant.obj
 0002:000011f8       $unwind$sf_opaque_terminate_c19_feedback_plant 000000018001c1f8     c19_feedback_plant.obj
 0002:00001200       $unwind$mdlProcessParameters_c19_feedback_plant 000000018001c200     c19_feedback_plant.obj
 0002:00001208       $unwind$mdlSetWorkWidths_c19_feedback_plant 000000018001c208     c19_feedback_plant.obj
 0002:00001210       $unwind$mdlRTW_c19_feedback_plant 000000018001c210     c19_feedback_plant.obj
 0002:00001218       $unwind$mdlStart_c19_feedback_plant 000000018001c218     c19_feedback_plant.obj
 0002:00001220       $unwind$mexFunction        000000018001c220     feedback_plant_sfun_registry.obj
 0002:00001228       $unwind$_ssSetInputPortDirectFeedThroughFcn 000000018001c228     feedback_plant_sfun_registry.obj
 0002:00001230       $unwind$_ssGetInputPortSignalPtrsFcn 000000018001c230     feedback_plant_sfun_registry.obj
 0002:00001238       $unwind$_ssGetInputPortSignalFcn 000000018001c238     feedback_plant_sfun_registry.obj
 0002:00001240       $unwind$_ssSetInputPortReusableFcn 000000018001c240     feedback_plant_sfun_registry.obj
 0002:00001250       $unwind$_ssSetOutputPortReusableFcn 000000018001c250     feedback_plant_sfun_registry.obj
 0002:00001260       $unwind$_ssSetSymbolicDimsSupport 000000018001c260     feedback_plant_sfun_registry.obj
 0002:00001268       $unwind$_ssRegisterSymbolicDimsExpr 000000018001c268     feedback_plant_sfun_registry.obj
 0002:00001270       $unwind$_ssRegisterSymbolicDims 000000018001c270     feedback_plant_sfun_registry.obj
 0002:00001278       $unwind$_ssRegisterSymbolicDimsString 000000018001c278     feedback_plant_sfun_registry.obj
 0002:00001280       $unwind$_ssRegisterSymbolicDimsIntValue 000000018001c280     feedback_plant_sfun_registry.obj
 0002:00001288       $unwind$_ssRegisterSymbolicDimsPlus 000000018001c288     feedback_plant_sfun_registry.obj
 0002:00001290       $unwind$_ssRegisterSymbolicDimsMinus 000000018001c290     feedback_plant_sfun_registry.obj
 0002:00001298       $unwind$_ssRegisterSymbolicDimsMultiply 000000018001c298     feedback_plant_sfun_registry.obj
 0002:000012a0       $unwind$_ssRegisterSymbolicDimsDivide 000000018001c2a0     feedback_plant_sfun_registry.obj
 0002:000012a8       $unwind$_ssGetNumSymbolicDims 000000018001c2a8     feedback_plant_sfun_registry.obj
 0002:000012b0       $unwind$_ssGetSymbolicDim  000000018001c2b0     feedback_plant_sfun_registry.obj
 0002:000012b8       $unwind$_ssSetInputPortSymbolicDimsId 000000018001c2b8     feedback_plant_sfun_registry.obj
 0002:000012c0       $unwind$_ssGetCompInputPortSymbolicDimsId 000000018001c2c0     feedback_plant_sfun_registry.obj
 0002:000012c8       $unwind$_ssSetCompInputPortSymbolicDimsId 000000018001c2c8     feedback_plant_sfun_registry.obj
 0002:000012d0       $unwind$_ssSetOutputPortSymbolicDimsId 000000018001c2d0     feedback_plant_sfun_registry.obj
 0002:000012d8       $unwind$_ssGetCompOutputPortSymbolicDimsId 000000018001c2d8     feedback_plant_sfun_registry.obj
 0002:000012e0       $unwind$_ssSetCompOutputPortSymbolicDimsId 000000018001c2e0     feedback_plant_sfun_registry.obj
 0002:000012e8       $unwind$_ssSetCompDWorkSymbolicDimsId 000000018001c2e8     feedback_plant_sfun_registry.obj
 0002:000012f0       $unwind$ssGetIsZeroCrossControlDisabled 000000018001c2f0     feedback_plant_sfun_registry.obj
 0002:000012f8       $unwind$ssSetIsInputPortUsedForContZcSignal 000000018001c2f8     feedback_plant_sfun_registry.obj
 0002:00001300       $unwind$ssSetZcSignalIsZcElementDisc 000000018001c300     feedback_plant_sfun_registry.obj
 0002:00001310       $unwind$ssSetZcSignalName  000000018001c310     feedback_plant_sfun_registry.obj
 0002:00001318       $unwind$ssSetZcSignalWidth 000000018001c318     feedback_plant_sfun_registry.obj
 0002:00001320       $unwind$ssSetZcSignalZcEventType 000000018001c320     feedback_plant_sfun_registry.obj
 0002:00001328       $unwind$ssSetZcSignalType  000000018001c328     feedback_plant_sfun_registry.obj
 0002:00001330       $unwind$ssSetZcSignalZcTol 000000018001c330     feedback_plant_sfun_registry.obj
 0002:00001338       $unwind$ssSetZcSignalNeedsEventNotification 000000018001c338     feedback_plant_sfun_registry.obj
 0002:00001340       $unwind$ssCreateAndAddZcSignalInfo 000000018001c340     feedback_plant_sfun_registry.obj
 0002:00001348       $unwind$ssCloneAndAddZcSignalInfo 000000018001c348     feedback_plant_sfun_registry.obj
 0002:00001350       $unwind$ssGetNumZcSignals  000000018001c350     feedback_plant_sfun_registry.obj
 0002:00001358       $unwind$ssGetZcSignalVector 000000018001c358     feedback_plant_sfun_registry.obj
 0002:00001360       $unwind$ssGetZcSignalName  000000018001c360     feedback_plant_sfun_registry.obj
 0002:00001368       $unwind$ssGetZcSignalWidth 000000018001c368     feedback_plant_sfun_registry.obj
 0002:00001370       $unwind$ssGetZcSignalZcEventType 000000018001c370     feedback_plant_sfun_registry.obj
 0002:00001378       $unwind$ssGetZcSignalZcEvents 000000018001c378     feedback_plant_sfun_registry.obj
 0002:00001380       $unwind$ssGetZcSignalType  000000018001c380     feedback_plant_sfun_registry.obj
 0002:00001388       $unwind$ssGetZcSignalZcTol 000000018001c388     feedback_plant_sfun_registry.obj
 0002:00001390       $unwind$ssGetZcSignalNeedsEventNotification 000000018001c390     feedback_plant_sfun_registry.obj
 0002:00001398       $unwind$ssGetZcSignalIsZcElementDisc 000000018001c398     feedback_plant_sfun_registry.obj
 0002:000013a8       $unwind$ssGetIsInputPortElementContinuous 000000018001c3a8     feedback_plant_sfun_registry.obj
 0002:000013b8       $unwind$ssGetDTypeIdFromMxArray 000000018001c3b8     feedback_plant_sfun_registry.obj
 0002:000013c0       $unwind$ssWriteRTWStr      000000018001c3c0     feedback_plant_sfun_registry.obj
 0002:000013c8       $unwind$ssWriteRTWNameValuePair 000000018001c3c8     feedback_plant_sfun_registry.obj
 0002:000013d0       $unwind$ssWriteRTWParamSettings 000000018001c3d0     feedback_plant_sfun_registry.obj
 0002:000013d8       $unwind$ssWriteRTWParameters 000000018001c3d8     feedback_plant_sfun_registry.obj
 0002:000013e0       $unwind$ssWriteRTWWorkVect 000000018001c3e0     feedback_plant_sfun_registry.obj
 0002:000013f4       $unwind$ssWriteRTWMxVectParam 000000018001c3f4     feedback_plant_sfun_registry.obj
 0002:000013fc       $unwind$ssWriteRTWMx2dMatParam 000000018001c3fc     feedback_plant_sfun_registry.obj
 0002:00001404       $unwind$_ssSetInputPortMatrixDimensions 000000018001c404     feedback_plant_sfun_registry.obj
 0002:00001410       $unwind$_ssSetOutputPortMatrixDimensions 000000018001c410     feedback_plant_sfun_registry.obj
 0002:0000141c       $unwind$_ssSetInputPortVectorDimension 000000018001c41c     feedback_plant_sfun_registry.obj
 0002:00001428       $unwind$_ssSetOutputPortVectorDimension 000000018001c428     feedback_plant_sfun_registry.obj
 0002:00001434       $unwind$ssIsRunTimeParamTunable 000000018001c434     feedback_plant_sfun_registry.obj
 0002:0000143c       $unwind$ssGetSFuncBlockHandle 000000018001c43c     feedback_plant_sfun_registry.obj
 0002:00001444       $unwind$_ssGetCurrentInputPortWidth 000000018001c444     feedback_plant_sfun_registry.obj
 0002:0000144c       $unwind$_ssGetCurrentOutputPortWidth 000000018001c44c     feedback_plant_sfun_registry.obj
 0002:00001454       $unwind$_ssGetCallSystemNumFcnCallDestinations 000000018001c454     feedback_plant_sfun_registry.obj
 0002:0000145c       $unwind$ssGetParameterTuningCompliance 000000018001c45c     feedback_plant_sfun_registry.obj
 0002:00001464       $unwind$ssWarning          000000018001c464     feedback_plant_sfun_registry.obj
 0002:00001478       $unwind$_ssGetAbsTol       000000018001c478     feedback_plant_sfun_registry.obj
 0002:00001480       $unwind$sf_process_check_sum_call 000000018001c480     feedback_plant_sfun_registry.obj
 0002:00001488       $unwind$sf_process_testpoint_info_call 000000018001c488     feedback_plant_sfun_registry.obj
 0002:00001490       $unwind$sf_process_autoinheritance_call 000000018001c490     feedback_plant_sfun_registry.obj
 0002:000014a0       $unwind$sf_process_get_third_party_uses_info_call 000000018001c4a0     feedback_plant_sfun_registry.obj
 0002:000014b0       $unwind$sf_process_get_jit_fallback_info_call 000000018001c4b0     feedback_plant_sfun_registry.obj
 0002:000014c0       $unwind$sf_process_get_updateBuildInfo_args_info_call 000000018001c4c0     feedback_plant_sfun_registry.obj
 0002:000014d0       $unwind$sf_process_get_eml_resolved_functions_info_call 000000018001c4d0     feedback_plant_sfun_registry.obj
 0002:000014e0       $unwind$sf_mex_unlock_call 000000018001c4e0     feedback_plant_sfun_registry.obj
 0002:000014f0       $unwind$sf_debug_api_wrapper 000000018001c4f0     feedback_plant_sfun_registry.obj
 0002:000014f8       $unwind$ProcessMexSfunctionCmdLineCall 000000018001c4f8     feedback_plant_sfun_registry.obj
 0002:00001500       $unwind$sf_machine_global_initializer_called 000000018001c500     feedback_plant_sfun_registry.obj
 0002:00001508       $unwind$sf_machine_global_method_dispatcher 000000018001c508     feedback_plant_sfun_registry.obj
 0002:00001510       $unwind$sf_machine_global_terminator 000000018001c510     feedback_plant_sfun_registry.obj
 0002:00001518       $unwind$sf_register_machine_exported_symbols 000000018001c518     feedback_plant_sfun_registry.obj
 0002:00001520       $unwind$sf_machine_global_initializer 000000018001c520     feedback_plant_sfun_registry.obj
 0002:00001528       $unwind$mdlGetSimState     000000018001c528     feedback_plant_sfun_registry.obj
 0002:00001530       $unwind$mdlSetSimState     000000018001c530     feedback_plant_sfun_registry.obj
 0002:00001538       $unwind$mdlSetWorkWidths   000000018001c538     feedback_plant_sfun_registry.obj
 0002:00001540       $unwind$mdlProcessParameters 000000018001c540     feedback_plant_sfun_registry.obj
 0002:00001548       $unwind$mdl_start_processing 000000018001c548     feedback_plant_sfun_registry.obj
 0002:00001550       $unwind$mdl_terminate_processing 000000018001c550     feedback_plant_sfun_registry.obj
 0002:00001558       $unwind$mdlStart           000000018001c558     feedback_plant_sfun_registry.obj
 0002:00001560       $unwind$mdlTerminate       000000018001c560     feedback_plant_sfun_registry.obj
 0002:00001568       $unwind$mdlInitializeSizes 000000018001c568     feedback_plant_sfun_registry.obj
 0002:00001570       $unwind$mdlInitializeSampleTimes 000000018001c570     feedback_plant_sfun_registry.obj
 0002:00001578       $unwind$mdl_outputs_continuous_legacy 000000018001c578     feedback_plant_sfun_registry.obj
 0002:00001580       $unwind$mdl_outputs_processing 000000018001c580     feedback_plant_sfun_registry.obj
 0002:00001588       $unwind$mdl_zeroCrossings_processing 000000018001c588     feedback_plant_sfun_registry.obj
 0002:00001590       $unwind$mdlZeroCrossings   000000018001c590     feedback_plant_sfun_registry.obj
 0002:00001598       $unwind$mdl_derivatives_processing 000000018001c598     feedback_plant_sfun_registry.obj
 0002:000015a0       $unwind$mdlDerivatives     000000018001c5a0     feedback_plant_sfun_registry.obj
 0002:000015a8       $unwind$mdl_initialize_conditions_processing 000000018001c5a8     feedback_plant_sfun_registry.obj
 0002:000015b0       $unwind$mdlInitializeConditions 000000018001c5b0     feedback_plant_sfun_registry.obj
 0002:000015b8       $unwind$mdl_ext_mode_exec_processing 000000018001c5b8     feedback_plant_sfun_registry.obj
 0002:000015c0       $unwind$mdlExtModeExec     000000018001c5c0     feedback_plant_sfun_registry.obj
 0002:000015c8       $unwind$mdlRTW             000000018001c5c8     feedback_plant_sfun_registry.obj
 0002:000015d0       $unwind$mdl_enable_processing 000000018001c5d0     feedback_plant_sfun_registry.obj
 0002:000015d8       $unwind$mdlEnable          000000018001c5d8     feedback_plant_sfun_registry.obj
 0002:000015e0       $unwind$mdl_disable_processing 000000018001c5e0     feedback_plant_sfun_registry.obj
 0002:000015e8       $unwind$mdlDisable         000000018001c5e8     feedback_plant_sfun_registry.obj
 0002:000015f0       $unwind$mdlOutputs         000000018001c5f0     feedback_plant_sfun_registry.obj
 0002:000015f8       $unwind$mdl_update_processing 000000018001c5f8     feedback_plant_sfun_registry.obj
 0002:00001600       $unwind$mdlUpdate          000000018001c600     feedback_plant_sfun_registry.obj
 0002:00001608       $unwind$ProcessMexSfunctionEveryCall 000000018001c608     feedback_plant_sfun_registry.obj
 0002:00001610       $unwind$_RegNumInputPortsCB 000000018001c610     feedback_plant_sfun_registry.obj
 0002:00001618       $unwind$_RegNumOutputPortsCB 000000018001c618     feedback_plant_sfun_registry.obj
 0002:00001620       $unwind$_CreateSimStruct   000000018001c620     feedback_plant_sfun_registry.obj
 0002:00001628       $unwind$_ssFatalError      000000018001c628     feedback_plant_sfun_registry.obj
 0002:00001630       $unwind$_ProcessMexSfunctionCmdLineCall 000000018001c630     feedback_plant_sfun_registry.obj
 0002:00001640       $unwind$__report_securityfailure 000000018001c640     MSVCRT:gs_report.obj
 0002:00001648       $unwind$__report_securityfailureEx 000000018001c648     MSVCRT:gs_report.obj
 0002:00001650       $unwind$__report_rangecheckfailure 000000018001c650     MSVCRT:gs_report.obj
 0002:00001658       $unwind$__raise_securityfailure 000000018001c658     MSVCRT:gs_report.obj
 0002:00001660       $unwind$__report_gsfailure 000000018001c660     MSVCRT:gs_report.obj
 0002:00001668       $unwind$__GSHandlerCheckCommon 000000018001c668     MSVCRT:gshandler.obj
 0002:00001670       $unwind$__GSHandlerCheck   000000018001c670     MSVCRT:gshandler.obj
 0002:00001678       $xdatasym                  000000018001c678     MSVCRT:amdsecgs.obj
 0002:00001680       $xdatasym                  000000018001c680     MSVCRT:chkstk.obj
 0002:00001688       $unwind$_CRT_INIT          000000018001c688     MSVCRT:crtdll.obj
 0002:000016a4       $unwind$pre_c_init         000000018001c6a4     MSVCRT:crtdll.obj
 0002:000016ac       $unwind$__DllMainCRTStartup 000000018001c6ac     MSVCRT:crtdll.obj
 0002:000016e8       $unwind$__DllMainCRTStartup$filt$0 000000018001c6e8     MSVCRT:crtdll.obj
 0002:000016f0       $unwind$__DllMainCRTStartup$fin$1 000000018001c6f0     MSVCRT:crtdll.obj
 0002:000016f8       $unwind$_DllMainCRTStartup 000000018001c6f8     MSVCRT:crtdll.obj
 0002:00001708       $unwind$_IsNonwritableInCurrentImage 000000018001c708     MSVCRT:pesect.obj
 0002:0000172c       $unwind$_IsNonwritableInCurrentImage$filt$0 000000018001c72c     MSVCRT:pesect.obj
 0002:00001734       $unwind$atexit             000000018001c734     MSVCRT:atonexit.obj
 0002:0000173c       $unwind$_onexit            000000018001c73c     MSVCRT:atonexit.obj
 0002:0000175c       $unwind$_onexit$fin$0      000000018001c75c     MSVCRT:atonexit.obj
 0002:00001764       $unwind$__atonexitinit     000000018001c764     MSVCRT:atonexit.obj
 0002:0000176c       $unwind$__security_init_cookie 000000018001c76c     MSVCRT:gs_support.obj
 0002:00001778       $unwind$DllMain            000000018001c778     MSVCRT:dllmain.obj
 0002:00001780       $unwind$_RTC_Initialize    000000018001c780     MSVCRT:initsect.obj
 0002:0000178c       $unwind$_RTC_Terminate     000000018001c78c     MSVCRT:initsect.obj
 0002:0000253c       .idata$6                   000000018001d53c     sf_runtime:sf_runtime.dll
 0002:000026b4       .idata$6                   000000018001d6b4     libmx:libmx.dll
 0002:00002736       .idata$6                   000000018001d736     libmex:libmex.dll
 0002:00002758       .idata$6                   000000018001d758     libut:libut.dll
 0002:00002834       .idata$6                   000000018001d834     MSVCRT:MSVCR110.dll
 0002:000029c6       .idata$6                   000000018001d9c6     kernel32:KERNEL32.dll
 0002:000029e0       .edata                     000000018001d9e0     feedback_plant_sfun.exp
 0002:00002a08       rgpv                       000000018001da08     feedback_plant_sfun.exp
 0002:00002a0c       rgszName                   000000018001da0c     feedback_plant_sfun.exp
 0002:00002a10       rgwOrd                     000000018001da10     feedback_plant_sfun.exp
 0002:00002a12       szName                     000000018001da12     feedback_plant_sfun.exp
 0002:00002a2d       $N00001                    000000018001da2d     feedback_plant_sfun.exp
 0003:00000000       $SG16402                   000000018001e000     feedback_plant_sfun.obj
 0003:00000020       $SG16414                   000000018001e020     feedback_plant_sfun.obj
 0003:00000038       $SG16419                   000000018001e038     feedback_plant_sfun.obj
 0003:00000050       $SG16424                   000000018001e050     feedback_plant_sfun.obj
 0003:00000068       $SG16445                   000000018001e068     feedback_plant_sfun.obj
 0003:00000088       $SG16489                   000000018001e088     feedback_plant_sfun.obj
 0003:000000a8       $SG16498                   000000018001e0a8     feedback_plant_sfun.obj
 0003:000000c0       $SG16503                   000000018001e0c0     feedback_plant_sfun.obj
 0003:000000d8       $SG16508                   000000018001e0d8     feedback_plant_sfun.obj
 0003:000000f0       $SG16533                   000000018001e0f0     feedback_plant_sfun.obj
 0003:00000108       $SG16542                   000000018001e108     feedback_plant_sfun.obj
 0003:00000120       $SG16547                   000000018001e120     feedback_plant_sfun.obj
 0003:00000138       $SG16552                   000000018001e138     feedback_plant_sfun.obj
 0003:00000150       $SG16577                   000000018001e150     feedback_plant_sfun.obj
 0003:00000170       $SG16586                   000000018001e170     feedback_plant_sfun.obj
 0003:00000188       $SG16591                   000000018001e188     feedback_plant_sfun.obj
 0003:000001a0       $SG16596                   000000018001e1a0     feedback_plant_sfun.obj
 0003:000001b8       $SG16604                   000000018001e1b8     feedback_plant_sfun.obj
 0003:000001c0       $SG16605                   000000018001e1c0     feedback_plant_sfun.obj
 0003:000001d0       $SG16630                   000000018001e1d0     feedback_plant_sfun.obj
 0003:000001e0       $SG16631                   000000018001e1e0     feedback_plant_sfun.obj
 0003:000001f0       $SG16277                   000000018001e1f0     feedback_plant_sfun.obj
 0003:00000208       $SG16282                   000000018001e208     feedback_plant_sfun.obj
 0003:00000218       $SG16307                   000000018001e218     feedback_plant_sfun.obj
 0003:00000230       $SG16313                   000000018001e230     feedback_plant_sfun.obj
 0003:00000238       $SG16324                   000000018001e238     feedback_plant_sfun.obj
 0003:00000244       $SG16335                   000000018001e244     feedback_plant_sfun.obj
 0003:0000024c       $SG16365                   000000018001e24c     feedback_plant_sfun.obj
 0003:00000260       $SG16397                   000000018001e260     c1_feedback_plant.obj
 0003:00000264       $SG16399                   000000018001e264     c1_feedback_plant.obj
 0003:00000268       $SG16401                   000000018001e268     c1_feedback_plant.obj
 0003:0000026c       $SG16403                   000000018001e26c     c1_feedback_plant.obj
 0003:00000270       $SG16405                   000000018001e270     c1_feedback_plant.obj
 0003:00000274       $SG16412                   000000018001e274     c1_feedback_plant.obj
 0003:0000027c       $SG16413                   000000018001e27c     c1_feedback_plant.obj
 0003:00000284       $SG16414                   000000018001e284     c1_feedback_plant.obj
 0003:0000028c       $SG16415                   000000018001e28c     c1_feedback_plant.obj
 0003:00000294       $SG16416                   000000018001e294     c1_feedback_plant.obj
 0003:0000029c       $SG16417                   000000018001e29c     c1_feedback_plant.obj
 0003:000002a4       $SG16418                   000000018001e2a4     c1_feedback_plant.obj
 0003:000002ac       $SG16419                   000000018001e2ac     c1_feedback_plant.obj
 0003:000002b4       $SG16540                   000000018001e2b4     c1_feedback_plant.obj
 0003:000002b8       $SG16420                   000000018001e2b8     c1_feedback_plant.obj
 0003:000002d4       $SG16597                   000000018001e2d4     c1_feedback_plant.obj
 0003:000002d8       $SG16421                   000000018001e2d8     c1_feedback_plant.obj
 0003:000002f4       $SG16656                   000000018001e2f4     c1_feedback_plant.obj
 0003:000002f8       $SG16640                   000000018001e2f8     c1_feedback_plant.obj
 0003:00000308       $SG16740                   000000018001e308     c1_feedback_plant.obj
 0003:00000314       $SG16742                   000000018001e314     c1_feedback_plant.obj
 0003:0000031c       $SG16913                   000000018001e31c     c1_feedback_plant.obj
 0003:00000320       $SG16741                   000000018001e320     c1_feedback_plant.obj
 0003:0000032c       $SG16743                   000000018001e32c     c1_feedback_plant.obj
 0003:00000334       $SG16967                   000000018001e334     c1_feedback_plant.obj
 0003:00000338       $SG16744                   000000018001e338     c1_feedback_plant.obj
 0003:00000344       $SG16205                   000000018001e344     c1_feedback_plant.obj
 0003:00000348       $SG16745                   000000018001e348     c1_feedback_plant.obj
 0003:00000354       $SG16208                   000000018001e354     c1_feedback_plant.obj
 0003:00000358       $SG16746                   000000018001e358     c1_feedback_plant.obj
 0003:00000360       $SG16747                   000000018001e360     c1_feedback_plant.obj
 0003:00000368       $SG16748                   000000018001e368     c1_feedback_plant.obj
 0003:00000370       $SG16749                   000000018001e370     c1_feedback_plant.obj
 0003:00000378       $SG16750                   000000018001e378     c1_feedback_plant.obj
 0003:00000388       $SG16751                   000000018001e388     c1_feedback_plant.obj
 0003:00000398       $SG16754                   000000018001e398     c1_feedback_plant.obj
 0003:000003b0       $SG16755                   000000018001e3b0     c1_feedback_plant.obj
 0003:000003bc       $SG16757                   000000018001e3bc     c1_feedback_plant.obj
 0003:000003c4       $SG16758                   000000018001e3c4     c1_feedback_plant.obj
 0003:000003cc       $SG16759                   000000018001e3cc     c1_feedback_plant.obj
 0003:000003d4       $SG16760                   000000018001e3d4     c1_feedback_plant.obj
 0003:000003dc       $SG16771                   000000018001e3dc     c1_feedback_plant.obj
 0003:000003e4       $SG16815                   000000018001e3e4     c1_feedback_plant.obj
 0003:000003f0       $SG16761                   000000018001e3f0     c1_feedback_plant.obj
 0003:00000400       $SG16762                   000000018001e400     c1_feedback_plant.obj
 0003:0000040c       $SG16767                   000000018001e40c     c1_feedback_plant.obj
 0003:00000414       $SG16769                   000000018001e414     c1_feedback_plant.obj
 0003:0000041c       $SG16770                   000000018001e41c     c1_feedback_plant.obj
 0003:00000424       $SG16772                   000000018001e424     c1_feedback_plant.obj
 0003:00000430       $SG16773                   000000018001e430     c1_feedback_plant.obj
 0003:00000448       $SG16774                   000000018001e448     c1_feedback_plant.obj
 0003:0000045c       $SG16776                   000000018001e45c     c1_feedback_plant.obj
 0003:00000464       $SG16777                   000000018001e464     c1_feedback_plant.obj
 0003:00000470       $SG16778                   000000018001e470     c1_feedback_plant.obj
 0003:00000484       $SG16779                   000000018001e484     c1_feedback_plant.obj
 0003:00000490       $SG16780                   000000018001e490     c1_feedback_plant.obj
 0003:0000049c       $SG16784                   000000018001e49c     c1_feedback_plant.obj
 0003:000004a4       $SG16786                   000000018001e4a4     c1_feedback_plant.obj
 0003:000004ac       $SG16787                   000000018001e4ac     c1_feedback_plant.obj
 0003:000004b4       $SG16788                   000000018001e4b4     c1_feedback_plant.obj
 0003:000004bc       $SG16789                   000000018001e4bc     c1_feedback_plant.obj
 0003:000004c8       $SG16790                   000000018001e4c8     c1_feedback_plant.obj
 0003:000004e0       $SG16791                   000000018001e4e0     c1_feedback_plant.obj
 0003:000004f4       $SG16793                   000000018001e4f4     c1_feedback_plant.obj
 0003:000004fc       $SG16794                   000000018001e4fc     c1_feedback_plant.obj
 0003:00000508       $SG16795                   000000018001e508     c1_feedback_plant.obj
 0003:0000051c       $SG16796                   000000018001e51c     c1_feedback_plant.obj
 0003:00000528       $SG16797                   000000018001e528     c1_feedback_plant.obj
 0003:00000534       $SG16801                   000000018001e534     c1_feedback_plant.obj
 0003:0000053c       $SG16803                   000000018001e53c     c1_feedback_plant.obj
 0003:00000544       $SG16804                   000000018001e544     c1_feedback_plant.obj
 0003:0000054c       $SG16805                   000000018001e54c     c1_feedback_plant.obj
 0003:00000554       $SG16806                   000000018001e554     c1_feedback_plant.obj
 0003:00000560       $SG16807                   000000018001e560     c1_feedback_plant.obj
 0003:00000578       $SG16808                   000000018001e578     c1_feedback_plant.obj
 0003:0000058c       $SG16810                   000000018001e58c     c1_feedback_plant.obj
 0003:00000594       $SG16811                   000000018001e594     c1_feedback_plant.obj
 0003:000005a0       $SG16812                   000000018001e5a0     c1_feedback_plant.obj
 0003:000005b4       $SG16813                   000000018001e5b4     c1_feedback_plant.obj
 0003:000005c0       $SG16814                   000000018001e5c0     c1_feedback_plant.obj
 0003:000005d0       $SG16816                   000000018001e5d0     c1_feedback_plant.obj
 0003:000005dc       $SG16818                   000000018001e5dc     c1_feedback_plant.obj
 0003:000005e4       $SG16819                   000000018001e5e4     c1_feedback_plant.obj
 0003:000005ec       $SG16820                   000000018001e5ec     c1_feedback_plant.obj
 0003:000005f4       $SG16821                   000000018001e5f4     c1_feedback_plant.obj
 0003:00000600       $SG16822                   000000018001e600     c1_feedback_plant.obj
 0003:00000610       $SG16823                   000000018001e610     c1_feedback_plant.obj
 0003:0000061c       $SG16827                   000000018001e61c     c1_feedback_plant.obj
 0003:00000624       $SG16829                   000000018001e624     c1_feedback_plant.obj
 0003:0000062c       $SG16830                   000000018001e62c     c1_feedback_plant.obj
 0003:00000634       $SG16831                   000000018001e634     c1_feedback_plant.obj
 0003:0000063c       $SG16832                   000000018001e63c     c1_feedback_plant.obj
 0003:00000648       $SG16833                   000000018001e648     c1_feedback_plant.obj
 0003:00000660       $SG16834                   000000018001e660     c1_feedback_plant.obj
 0003:00000674       $SG16836                   000000018001e674     c1_feedback_plant.obj
 0003:0000067c       $SG16837                   000000018001e67c     c1_feedback_plant.obj
 0003:00000688       $SG16838                   000000018001e688     c1_feedback_plant.obj
 0003:0000069c       $SG16839                   000000018001e69c     c1_feedback_plant.obj
 0003:000006a8       $SG16840                   000000018001e6a8     c1_feedback_plant.obj
 0003:000006b4       $SG16843                   000000018001e6b4     c1_feedback_plant.obj
 0003:000006bc       $SG16845                   000000018001e6bc     c1_feedback_plant.obj
 0003:000006c4       $SG16846                   000000018001e6c4     c1_feedback_plant.obj
 0003:000006cc       $SG16847                   000000018001e6cc     c1_feedback_plant.obj
 0003:000006d4       $SG16848                   000000018001e6d4     c1_feedback_plant.obj
 0003:000006e0       $SG16849                   000000018001e6e0     c1_feedback_plant.obj
 0003:000006f8       $SG16850                   000000018001e6f8     c1_feedback_plant.obj
 0003:0000070c       $SG16852                   000000018001e70c     c1_feedback_plant.obj
 0003:00000714       $SG16853                   000000018001e714     c1_feedback_plant.obj
 0003:00000720       $SG16854                   000000018001e720     c1_feedback_plant.obj
 0003:00000734       $SG16855                   000000018001e734     c1_feedback_plant.obj
 0003:00000740       $SG16856                   000000018001e740     c1_feedback_plant.obj
 0003:0000074c       $SG16859                   000000018001e74c     c1_feedback_plant.obj
 0003:00000754       $SG16861                   000000018001e754     c1_feedback_plant.obj
 0003:0000075c       $SG16862                   000000018001e75c     c1_feedback_plant.obj
 0003:00000764       $SG16863                   000000018001e764     c1_feedback_plant.obj
 0003:0000076c       $SG16864                   000000018001e76c     c1_feedback_plant.obj
 0003:00000778       $SG16865                   000000018001e778     c1_feedback_plant.obj
 0003:00000790       $SG16866                   000000018001e790     c1_feedback_plant.obj
 0003:000007a4       $SG16868                   000000018001e7a4     c1_feedback_plant.obj
 0003:000007ac       $SG16869                   000000018001e7ac     c1_feedback_plant.obj
 0003:000007b8       $SG16870                   000000018001e7b8     c1_feedback_plant.obj
 0003:000007cc       $SG16871                   000000018001e7cc     c1_feedback_plant.obj
 0003:000007d8       $SG16872                   000000018001e7d8     c1_feedback_plant.obj
 0003:000007e4       $SG16875                   000000018001e7e4     c1_feedback_plant.obj
 0003:000007ec       $SG16877                   000000018001e7ec     c1_feedback_plant.obj
 0003:000007f4       $SG16878                   000000018001e7f4     c1_feedback_plant.obj
 0003:000007fc       $SG16879                   000000018001e7fc     c1_feedback_plant.obj
 0003:00000804       $SG16880                   000000018001e804     c1_feedback_plant.obj
 0003:00000810       $SG16881                   000000018001e810     c1_feedback_plant.obj
 0003:00000828       $SG16882                   000000018001e828     c1_feedback_plant.obj
 0003:0000083c       $SG16884                   000000018001e83c     c1_feedback_plant.obj
 0003:00000844       $SG16885                   000000018001e844     c1_feedback_plant.obj
 0003:00000850       $SG16886                   000000018001e850     c1_feedback_plant.obj
 0003:00000864       $SG16887                   000000018001e864     c1_feedback_plant.obj
 0003:00000870       $SG16888                   000000018001e870     c1_feedback_plant.obj
 0003:00000880       $SG16889                   000000018001e880     c1_feedback_plant.obj
 0003:00000888       $SG16890                   000000018001e888     c1_feedback_plant.obj
 0003:00000890       $SG16892                   000000018001e890     c1_feedback_plant.obj
 0003:000008a0       $SG16901                   000000018001e8a0     c1_feedback_plant.obj
 0003:000008b0       $SG16902                   000000018001e8b0     c1_feedback_plant.obj
 0003:000008c0       $SG16903                   000000018001e8c0     c1_feedback_plant.obj
 0003:000008d0       $SG16904                   000000018001e8d0     c1_feedback_plant.obj
 0003:000008e0       $SG16905                   000000018001e8e0     c1_feedback_plant.obj
 0003:000008f8       $SG16906                   000000018001e8f8     c1_feedback_plant.obj
 0003:00000910       $SG16907                   000000018001e910     c1_feedback_plant.obj
 0003:00000928       $SG16908                   000000018001e928     c1_feedback_plant.obj
 0003:00000940       $SG16909                   000000018001e940     c1_feedback_plant.obj
 0003:00000958       $SG16910                   000000018001e958     c1_feedback_plant.obj
 0003:00000970       $SG16915                   000000018001e970     c1_feedback_plant.obj
 0003:00000980       $SG16917                   000000018001e980     c1_feedback_plant.obj
 0003:00000988       $SG16929                   000000018001e988     c1_feedback_plant.obj
 0003:000009b0       $SG16930                   000000018001e9b0     c1_feedback_plant.obj
 0003:000009d8       $SG16931                   000000018001e9d8     c1_feedback_plant.obj
 0003:000009f8       $SG16932                   000000018001e9f8     c1_feedback_plant.obj
 0003:00000a18       $SG16939                   000000018001ea18     c1_feedback_plant.obj
 0003:00000a40       $SG16940                   000000018001ea40     c1_feedback_plant.obj
 0003:00000a60       $SG16945                   000000018001ea60     c1_feedback_plant.obj
 0003:00000a70       $SG16946                   000000018001ea70     c1_feedback_plant.obj
 0003:00000a80       $SG16947                   000000018001ea80     c1_feedback_plant.obj
 0003:00000a88       $SG16948                   000000018001ea88     c1_feedback_plant.obj
 0003:00000a90       $SG16951                   000000018001ea90     c1_feedback_plant.obj
 0003:00000b40       $SG16952                   000000018001eb40     c1_feedback_plant.obj
 0003:00000bec       $SG16968                   000000018001ebec     c1_feedback_plant.obj
 0003:00000bf4       $SG16969                   000000018001ebf4     c1_feedback_plant.obj
 0003:00000bfc       $SG16970                   000000018001ebfc     c1_feedback_plant.obj
 0003:00000c04       $SG16971                   000000018001ec04     c1_feedback_plant.obj
 0003:00000c0c       $SG16972                   000000018001ec0c     c1_feedback_plant.obj
 0003:00000c14       $SG16973                   000000018001ec14     c1_feedback_plant.obj
 0003:00000c20       $SG16979                   000000018001ec20     c1_feedback_plant.obj
 0003:00000c30       $SG17029                   000000018001ec30     c1_feedback_plant.obj
 0003:00000c48       $SG17119                   000000018001ec48     c1_feedback_plant.obj
 0003:00000c70       $SG17142                   000000018001ec70     c1_feedback_plant.obj
 0003:00000c80       $SG17143                   000000018001ec80     c1_feedback_plant.obj
 0003:00000c98       $SG17153                   000000018001ec98     c1_feedback_plant.obj
 0003:00000cc8       $SG16206                   000000018001ecc8     c1_feedback_plant.obj
 0003:00000cd0       $SG17181                   000000018001ecd0     c1_feedback_plant.obj
 0003:00000d38       $SG16207                   000000018001ed38     c1_feedback_plant.obj
 0003:00000d40       c1_debug_family_names      000000018001ed40     c1_feedback_plant.obj
 0003:00000d90       $SG16209                   000000018001ed90     c1_feedback_plant.obj
 0003:00000d98       $SG16210                   000000018001ed98     c1_feedback_plant.obj
 0003:00000da0       $SG16211                   000000018001eda0     c1_feedback_plant.obj
 0003:00000da8       $SG16212                   000000018001eda8     c1_feedback_plant.obj
 0003:00000db0       $SG16213                   000000018001edb0     c1_feedback_plant.obj
 0003:00000db8       $SG16214                   000000018001edb8     c1_feedback_plant.obj
 0003:00000dc0       $SG17409                   000000018001edc0     c18_feedback_plant.obj
 0003:00000de8       $SG17410                   000000018001ede8     c18_feedback_plant.obj
 0003:00000e04       $SG17437                   000000018001ee04     c18_feedback_plant.obj
 0003:00000e08       $SG17415                   000000018001ee08     c18_feedback_plant.obj
 0003:00000e18       $SG17416                   000000018001ee18     c18_feedback_plant.obj
 0003:00000e28       $SG17417                   000000018001ee28     c18_feedback_plant.obj
 0003:00000e30       $SG17418                   000000018001ee30     c18_feedback_plant.obj
 0003:00000e38       $SG17439                   000000018001ee38     c18_feedback_plant.obj
 0003:00000e40       $SG17421                   000000018001ee40     c18_feedback_plant.obj
 0003:00000eb0       $SG17422                   000000018001eeb0     c18_feedback_plant.obj
 0003:00000f1c       $SG16481                   000000018001ef1c     c18_feedback_plant.obj
 0003:00000f20       $SG17438                   000000018001ef20     c18_feedback_plant.obj
 0003:00000f2c       $SG16483                   000000018001ef2c     c18_feedback_plant.obj
 0003:00000f30       $SG17445                   000000018001ef30     c18_feedback_plant.obj
 0003:00000f40       $SG17474                   000000018001ef40     c18_feedback_plant.obj
 0003:00000f58       $SG16490                   000000018001ef58     c18_feedback_plant.obj
 0003:00000f60       $SG16491                   000000018001ef60     c18_feedback_plant.obj
 0003:00000f68       $SG16492                   000000018001ef68     c18_feedback_plant.obj
 0003:00000f88       $SG16493                   000000018001ef88     c18_feedback_plant.obj
 0003:00000fa8       $SG17564                   000000018001efa8     c18_feedback_plant.obj
 0003:00000fcc       ?c18_cv2@?1??c18_chartstep_c18_feedback_plant@@9@9 000000018001efcc     c18_feedback_plant.obj
 0003:00000fd0       $SG17587                   000000018001efd0     c18_feedback_plant.obj
 0003:00000fe0       $SG17588                   000000018001efe0     c18_feedback_plant.obj
 0003:00000ff4       $SG16751                   000000018001eff4     c18_feedback_plant.obj
 0003:00000ff8       $SG17598                   000000018001eff8     c18_feedback_plant.obj
 0003:00001028       ?c18_cv0@?1??c18_chartstep_c18_feedback_plant@@9@9 000000018001f028     c18_feedback_plant.obj
 0003:00001040       $SG17626                   000000018001f040     c18_feedback_plant.obj
 0003:000010a8       $SG16745                   000000018001f0a8     c18_feedback_plant.obj
 0003:000010b0       $SG16746                   000000018001f0b0     c18_feedback_plant.obj
 0003:000010b8       $SG16752                   000000018001f0b8     c18_feedback_plant.obj
 0003:000010c0       $SG16790                   000000018001f0c0     c18_feedback_plant.obj
 0003:000010c4       $SG16847                   000000018001f0c4     c18_feedback_plant.obj
 0003:000010c8       $SG16867                   000000018001f0c8     c18_feedback_plant.obj
 0003:000010cc       $SG16892                   000000018001f0cc     c18_feedback_plant.obj
 0003:000010d0       ?c18_bv1@?1??c18_c_emlrt_marshallIn@@9@9 000000018001f0d0     c18_feedback_plant.obj
 0003:000010d4       $SG16975                   000000018001f0d4     c18_feedback_plant.obj
 0003:000010d8       ?c18_bv3@?1??c18_d_emlrt_marshallIn@@9@9 000000018001f0d8     c18_feedback_plant.obj
 0003:000010dc       $SG17058                   000000018001f0dc     c18_feedback_plant.obj
 0003:000010e0       ?c18_bv5@?1??c18_e_emlrt_marshallIn@@9@9 000000018001f0e0     c18_feedback_plant.obj
 0003:000010e4       $SG17136                   000000018001f0e4     c18_feedback_plant.obj
 0003:000010e8       $SG17179                   000000018001f0e8     c18_feedback_plant.obj
 0003:000010f8       $SG17195                   000000018001f0f8     c18_feedback_plant.obj
 0003:00001100       c18_debug_family_names     000000018001f100     c18_feedback_plant.obj
 0003:00001150       $SG16201                   000000018001f150     c18_feedback_plant.obj
 0003:00001158       $SG16202                   000000018001f158     c18_feedback_plant.obj
 0003:0000115c       $SG16203                   000000018001f15c     c18_feedback_plant.obj
 0003:00001160       $SG16204                   000000018001f160     c18_feedback_plant.obj
 0003:00001164       $SG16205                   000000018001f164     c18_feedback_plant.obj
 0003:0000116c       $SG16206                   000000018001f16c     c18_feedback_plant.obj
 0003:00001174       $SG16208                   000000018001f174     c18_feedback_plant.obj
 0003:00001178       $SG16207                   000000018001f178     c18_feedback_plant.obj
 0003:00001180       $SG16209                   000000018001f180     c18_feedback_plant.obj
 0003:0000118c       $SG16210                   000000018001f18c     c18_feedback_plant.obj
 0003:00001194       $SG17277                   000000018001f194     c18_feedback_plant.obj
 0003:000011a0       $SG17275                   000000018001f1a0     c18_feedback_plant.obj
 0003:000011b0       $SG17276                   000000018001f1b0     c18_feedback_plant.obj
 0003:000011bc       $SG17278                   000000018001f1bc     c18_feedback_plant.obj
 0003:000011c8       $SG17279                   000000018001f1c8     c18_feedback_plant.obj
 0003:000011d8       $SG17280                   000000018001f1d8     c18_feedback_plant.obj
 0003:000011e8       $SG17281                   000000018001f1e8     c18_feedback_plant.obj
 0003:000011f0       $SG17282                   000000018001f1f0     c18_feedback_plant.obj
 0003:000011f8       $SG17283                   000000018001f1f8     c18_feedback_plant.obj
 0003:00001200       $SG17284                   000000018001f200     c18_feedback_plant.obj
 0003:00001208       $SG17285                   000000018001f208     c18_feedback_plant.obj
 0003:00001218       $SG17286                   000000018001f218     c18_feedback_plant.obj
 0003:00001228       $SG17289                   000000018001f228     c18_feedback_plant.obj
 0003:00001240       $SG17290                   000000018001f240     c18_feedback_plant.obj
 0003:0000124c       $SG17292                   000000018001f24c     c18_feedback_plant.obj
 0003:00001254       $SG17293                   000000018001f254     c18_feedback_plant.obj
 0003:0000125c       $SG17294                   000000018001f25c     c18_feedback_plant.obj
 0003:00001264       $SG17295                   000000018001f264     c18_feedback_plant.obj
 0003:00001270       $SG17296                   000000018001f270     c18_feedback_plant.obj
 0003:00001280       $SG17297                   000000018001f280     c18_feedback_plant.obj
 0003:0000128c       $SG17302                   000000018001f28c     c18_feedback_plant.obj
 0003:00001294       $SG17304                   000000018001f294     c18_feedback_plant.obj
 0003:0000129c       $SG17305                   000000018001f29c     c18_feedback_plant.obj
 0003:000012a4       $SG17306                   000000018001f2a4     c18_feedback_plant.obj
 0003:000012ac       $SG17307                   000000018001f2ac     c18_feedback_plant.obj
 0003:000012b8       $SG17308                   000000018001f2b8     c18_feedback_plant.obj
 0003:000012d0       $SG17309                   000000018001f2d0     c18_feedback_plant.obj
 0003:000012e4       $SG17311                   000000018001f2e4     c18_feedback_plant.obj
 0003:000012ec       $SG17312                   000000018001f2ec     c18_feedback_plant.obj
 0003:000012f8       $SG17313                   000000018001f2f8     c18_feedback_plant.obj
 0003:0000130c       $SG17314                   000000018001f30c     c18_feedback_plant.obj
 0003:00001318       $SG17315                   000000018001f318     c18_feedback_plant.obj
 0003:00001324       $SG17319                   000000018001f324     c18_feedback_plant.obj
 0003:0000132c       $SG17321                   000000018001f32c     c18_feedback_plant.obj
 0003:00001334       $SG17322                   000000018001f334     c18_feedback_plant.obj
 0003:0000133c       $SG17323                   000000018001f33c     c18_feedback_plant.obj
 0003:00001344       $SG17324                   000000018001f344     c18_feedback_plant.obj
 0003:00001350       $SG17325                   000000018001f350     c18_feedback_plant.obj
 0003:00001368       $SG17326                   000000018001f368     c18_feedback_plant.obj
 0003:0000137c       $SG17328                   000000018001f37c     c18_feedback_plant.obj
 0003:00001384       $SG17329                   000000018001f384     c18_feedback_plant.obj
 0003:00001390       $SG17330                   000000018001f390     c18_feedback_plant.obj
 0003:000013a4       $SG17331                   000000018001f3a4     c18_feedback_plant.obj
 0003:000013b0       $SG17332                   000000018001f3b0     c18_feedback_plant.obj
 0003:000013bc       $SG17333                   000000018001f3bc     c18_feedback_plant.obj
 0003:000013c8       $SG17334                   000000018001f3c8     c18_feedback_plant.obj
 0003:000013d4       $SG17336                   000000018001f3d4     c18_feedback_plant.obj
 0003:000013dc       $SG17337                   000000018001f3dc     c18_feedback_plant.obj
 0003:000013e4       $SG17338                   000000018001f3e4     c18_feedback_plant.obj
 0003:000013ec       $SG17339                   000000018001f3ec     c18_feedback_plant.obj
 0003:000013f8       $SG17340                   000000018001f3f8     c18_feedback_plant.obj
 0003:00001408       $SG17341                   000000018001f408     c18_feedback_plant.obj
 0003:00001414       $SG17345                   000000018001f414     c18_feedback_plant.obj
 0003:0000141c       $SG17347                   000000018001f41c     c18_feedback_plant.obj
 0003:00001424       $SG17348                   000000018001f424     c18_feedback_plant.obj
 0003:0000142c       $SG17349                   000000018001f42c     c18_feedback_plant.obj
 0003:00001434       $SG17350                   000000018001f434     c18_feedback_plant.obj
 0003:00001440       $SG17351                   000000018001f440     c18_feedback_plant.obj
 0003:00001458       $SG17352                   000000018001f458     c18_feedback_plant.obj
 0003:0000146c       $SG17354                   000000018001f46c     c18_feedback_plant.obj
 0003:00001474       $SG17355                   000000018001f474     c18_feedback_plant.obj
 0003:00001480       $SG17356                   000000018001f480     c18_feedback_plant.obj
 0003:00001494       $SG17357                   000000018001f494     c18_feedback_plant.obj
 0003:000014a0       $SG17358                   000000018001f4a0     c18_feedback_plant.obj
 0003:000014b0       $SG17359                   000000018001f4b0     c18_feedback_plant.obj
 0003:000014b8       $SG17360                   000000018001f4b8     c18_feedback_plant.obj
 0003:000014c0       $SG17362                   000000018001f4c0     c18_feedback_plant.obj
 0003:000014d0       $SG17371                   000000018001f4d0     c18_feedback_plant.obj
 0003:000014e0       $SG17372                   000000018001f4e0     c18_feedback_plant.obj
 0003:000014f0       $SG17373                   000000018001f4f0     c18_feedback_plant.obj
 0003:00001500       $SG17374                   000000018001f500     c18_feedback_plant.obj
 0003:00001510       $SG17375                   000000018001f510     c18_feedback_plant.obj
 0003:00001528       $SG17376                   000000018001f528     c18_feedback_plant.obj
 0003:00001540       $SG17377                   000000018001f540     c18_feedback_plant.obj
 0003:00001558       $SG17378                   000000018001f558     c18_feedback_plant.obj
 0003:00001570       $SG17379                   000000018001f570     c18_feedback_plant.obj
 0003:00001588       $SG17380                   000000018001f588     c18_feedback_plant.obj
 0003:0000159c       $SG17383                   000000018001f59c     c18_feedback_plant.obj
 0003:000015a8       $SG17385                   000000018001f5a8     c18_feedback_plant.obj
 0003:000015bc       $SG17391                   000000018001f5bc     c18_feedback_plant.obj
 0003:000015c8       $SG17399                   000000018001f5c8     c18_feedback_plant.obj
 0003:000015f0       $SG17400                   000000018001f5f0     c18_feedback_plant.obj
 0003:00001618       $SG17401                   000000018001f618     c18_feedback_plant.obj
 0003:00001638       $SG17402                   000000018001f638     c18_feedback_plant.obj
 0003:00001660       $SG17413                   000000018001f660     c19_feedback_plant.obj
 0003:00001664       $SG16481                   000000018001f664     c19_feedback_plant.obj
 0003:00001668       $SG17414                   000000018001f668     c19_feedback_plant.obj
 0003:00001674       $SG17415                   000000018001f674     c19_feedback_plant.obj
 0003:0000167c       $SG16483                   000000018001f67c     c19_feedback_plant.obj
 0003:00001680       $SG17421                   000000018001f680     c19_feedback_plant.obj
 0003:00001690       $SG17450                   000000018001f690     c19_feedback_plant.obj
 0003:000016a8       $SG16490                   000000018001f6a8     c19_feedback_plant.obj
 0003:000016b0       $SG16491                   000000018001f6b0     c19_feedback_plant.obj
 0003:000016b8       $SG16492                   000000018001f6b8     c19_feedback_plant.obj
 0003:000016d8       $SG16493                   000000018001f6d8     c19_feedback_plant.obj
 0003:000016f8       $SG17540                   000000018001f6f8     c19_feedback_plant.obj
 0003:0000171c       ?c19_cv2@?1??c19_chartstep_c19_feedback_plant@@9@9 000000018001f71c     c19_feedback_plant.obj
 0003:00001720       $SG17563                   000000018001f720     c19_feedback_plant.obj
 0003:00001730       $SG17564                   000000018001f730     c19_feedback_plant.obj
 0003:00001744       $SG16727                   000000018001f744     c19_feedback_plant.obj
 0003:00001748       $SG17574                   000000018001f748     c19_feedback_plant.obj
 0003:00001778       ?c19_cv0@?1??c19_chartstep_c19_feedback_plant@@9@9 000000018001f778     c19_feedback_plant.obj
 0003:00001788       $SG16721                   000000018001f788     c19_feedback_plant.obj
 0003:00001790       $SG17602                   000000018001f790     c19_feedback_plant.obj
 0003:000017f8       $SG16722                   000000018001f7f8     c19_feedback_plant.obj
 0003:00001800       $SG16728                   000000018001f800     c19_feedback_plant.obj
 0003:00001808       $SG16766                   000000018001f808     c19_feedback_plant.obj
 0003:0000180c       $SG16823                   000000018001f80c     c19_feedback_plant.obj
 0003:00001810       $SG16843                   000000018001f810     c19_feedback_plant.obj
 0003:00001814       $SG16868                   000000018001f814     c19_feedback_plant.obj
 0003:00001818       ?c19_bv1@?1??c19_c_emlrt_marshallIn@@9@9 000000018001f818     c19_feedback_plant.obj
 0003:0000181c       $SG16951                   000000018001f81c     c19_feedback_plant.obj
 0003:00001820       ?c19_bv3@?1??c19_d_emlrt_marshallIn@@9@9 000000018001f820     c19_feedback_plant.obj
 0003:00001824       $SG17034                   000000018001f824     c19_feedback_plant.obj
 0003:00001828       ?c19_bv5@?1??c19_e_emlrt_marshallIn@@9@9 000000018001f828     c19_feedback_plant.obj
 0003:0000182c       $SG17112                   000000018001f82c     c19_feedback_plant.obj
 0003:00001830       $SG17155                   000000018001f830     c19_feedback_plant.obj
 0003:00001840       $SG17171                   000000018001f840     c19_feedback_plant.obj
 0003:00001844       $SG16201                   000000018001f844     c19_feedback_plant.obj
 0003:00001850       c19_debug_family_names     000000018001f850     c19_feedback_plant.obj
 0003:000018a0       $SG16202                   000000018001f8a0     c19_feedback_plant.obj
 0003:000018a4       $SG16203                   000000018001f8a4     c19_feedback_plant.obj
 0003:000018a8       $SG16204                   000000018001f8a8     c19_feedback_plant.obj
 0003:000018ac       $SG16205                   000000018001f8ac     c19_feedback_plant.obj
 0003:000018b4       $SG16206                   000000018001f8b4     c19_feedback_plant.obj
 0003:000018bc       $SG16208                   000000018001f8bc     c19_feedback_plant.obj
 0003:000018c0       $SG16207                   000000018001f8c0     c19_feedback_plant.obj
 0003:000018c8       $SG16209                   000000018001f8c8     c19_feedback_plant.obj
 0003:000018d4       $SG16210                   000000018001f8d4     c19_feedback_plant.obj
 0003:000018dc       $SG17253                   000000018001f8dc     c19_feedback_plant.obj
 0003:000018e8       $SG17251                   000000018001f8e8     c19_feedback_plant.obj
 0003:000018f8       $SG17252                   000000018001f8f8     c19_feedback_plant.obj
 0003:00001904       $SG17254                   000000018001f904     c19_feedback_plant.obj
 0003:00001910       $SG17255                   000000018001f910     c19_feedback_plant.obj
 0003:00001920       $SG17256                   000000018001f920     c19_feedback_plant.obj
 0003:00001930       $SG17257                   000000018001f930     c19_feedback_plant.obj
 0003:00001938       $SG17258                   000000018001f938     c19_feedback_plant.obj
 0003:00001940       $SG17259                   000000018001f940     c19_feedback_plant.obj
 0003:00001948       $SG17260                   000000018001f948     c19_feedback_plant.obj
 0003:00001950       $SG17261                   000000018001f950     c19_feedback_plant.obj
 0003:00001960       $SG17262                   000000018001f960     c19_feedback_plant.obj
 0003:00001970       $SG17265                   000000018001f970     c19_feedback_plant.obj
 0003:00001988       $SG17266                   000000018001f988     c19_feedback_plant.obj
 0003:00001994       $SG17268                   000000018001f994     c19_feedback_plant.obj
 0003:0000199c       $SG17269                   000000018001f99c     c19_feedback_plant.obj
 0003:000019a4       $SG17270                   000000018001f9a4     c19_feedback_plant.obj
 0003:000019ac       $SG17271                   000000018001f9ac     c19_feedback_plant.obj
 0003:000019b8       $SG17272                   000000018001f9b8     c19_feedback_plant.obj
 0003:000019c8       $SG17273                   000000018001f9c8     c19_feedback_plant.obj
 0003:000019d4       $SG17278                   000000018001f9d4     c19_feedback_plant.obj
 0003:000019dc       $SG17280                   000000018001f9dc     c19_feedback_plant.obj
 0003:000019e4       $SG17281                   000000018001f9e4     c19_feedback_plant.obj
 0003:000019ec       $SG17282                   000000018001f9ec     c19_feedback_plant.obj
 0003:000019f4       $SG17283                   000000018001f9f4     c19_feedback_plant.obj
 0003:00001a00       $SG17284                   000000018001fa00     c19_feedback_plant.obj
 0003:00001a18       $SG17285                   000000018001fa18     c19_feedback_plant.obj
 0003:00001a2c       $SG17287                   000000018001fa2c     c19_feedback_plant.obj
 0003:00001a34       $SG17288                   000000018001fa34     c19_feedback_plant.obj
 0003:00001a40       $SG17289                   000000018001fa40     c19_feedback_plant.obj
 0003:00001a54       $SG17290                   000000018001fa54     c19_feedback_plant.obj
 0003:00001a60       $SG17291                   000000018001fa60     c19_feedback_plant.obj
 0003:00001a6c       $SG17295                   000000018001fa6c     c19_feedback_plant.obj
 0003:00001a74       $SG17297                   000000018001fa74     c19_feedback_plant.obj
 0003:00001a7c       $SG17298                   000000018001fa7c     c19_feedback_plant.obj
 0003:00001a84       $SG17299                   000000018001fa84     c19_feedback_plant.obj
 0003:00001a8c       $SG17300                   000000018001fa8c     c19_feedback_plant.obj
 0003:00001a98       $SG17301                   000000018001fa98     c19_feedback_plant.obj
 0003:00001ab0       $SG17302                   000000018001fab0     c19_feedback_plant.obj
 0003:00001ac4       $SG17304                   000000018001fac4     c19_feedback_plant.obj
 0003:00001acc       $SG17305                   000000018001facc     c19_feedback_plant.obj
 0003:00001ad8       $SG17306                   000000018001fad8     c19_feedback_plant.obj
 0003:00001aec       $SG17307                   000000018001faec     c19_feedback_plant.obj
 0003:00001af8       $SG17308                   000000018001faf8     c19_feedback_plant.obj
 0003:00001b04       $SG17309                   000000018001fb04     c19_feedback_plant.obj
 0003:00001b10       $SG17310                   000000018001fb10     c19_feedback_plant.obj
 0003:00001b1c       $SG17312                   000000018001fb1c     c19_feedback_plant.obj
 0003:00001b24       $SG17313                   000000018001fb24     c19_feedback_plant.obj
 0003:00001b2c       $SG17314                   000000018001fb2c     c19_feedback_plant.obj
 0003:00001b34       $SG17315                   000000018001fb34     c19_feedback_plant.obj
 0003:00001b40       $SG17316                   000000018001fb40     c19_feedback_plant.obj
 0003:00001b50       $SG17317                   000000018001fb50     c19_feedback_plant.obj
 0003:00001b5c       $SG17321                   000000018001fb5c     c19_feedback_plant.obj
 0003:00001b64       $SG17323                   000000018001fb64     c19_feedback_plant.obj
 0003:00001b6c       $SG17324                   000000018001fb6c     c19_feedback_plant.obj
 0003:00001b74       $SG17325                   000000018001fb74     c19_feedback_plant.obj
 0003:00001b7c       $SG17326                   000000018001fb7c     c19_feedback_plant.obj
 0003:00001b88       $SG17327                   000000018001fb88     c19_feedback_plant.obj
 0003:00001ba0       $SG17328                   000000018001fba0     c19_feedback_plant.obj
 0003:00001bb4       $SG17330                   000000018001fbb4     c19_feedback_plant.obj
 0003:00001bbc       $SG17331                   000000018001fbbc     c19_feedback_plant.obj
 0003:00001bc8       $SG17332                   000000018001fbc8     c19_feedback_plant.obj
 0003:00001bdc       $SG17333                   000000018001fbdc     c19_feedback_plant.obj
 0003:00001be8       $SG17334                   000000018001fbe8     c19_feedback_plant.obj
 0003:00001bf8       $SG17335                   000000018001fbf8     c19_feedback_plant.obj
 0003:00001c00       $SG17336                   000000018001fc00     c19_feedback_plant.obj
 0003:00001c08       $SG17338                   000000018001fc08     c19_feedback_plant.obj
 0003:00001c18       $SG17347                   000000018001fc18     c19_feedback_plant.obj
 0003:00001c28       $SG17348                   000000018001fc28     c19_feedback_plant.obj
 0003:00001c38       $SG17349                   000000018001fc38     c19_feedback_plant.obj
 0003:00001c48       $SG17350                   000000018001fc48     c19_feedback_plant.obj
 0003:00001c58       $SG17351                   000000018001fc58     c19_feedback_plant.obj
 0003:00001c70       $SG17352                   000000018001fc70     c19_feedback_plant.obj
 0003:00001c88       $SG17353                   000000018001fc88     c19_feedback_plant.obj
 0003:00001ca0       $SG17354                   000000018001fca0     c19_feedback_plant.obj
 0003:00001cb8       $SG17355                   000000018001fcb8     c19_feedback_plant.obj
 0003:00001cd0       $SG17356                   000000018001fcd0     c19_feedback_plant.obj
 0003:00001ce4       $SG17359                   000000018001fce4     c19_feedback_plant.obj
 0003:00001cf0       $SG17361                   000000018001fcf0     c19_feedback_plant.obj
 0003:00001d04       $SG17367                   000000018001fd04     c19_feedback_plant.obj
 0003:00001d10       $SG17375                   000000018001fd10     c19_feedback_plant.obj
 0003:00001d38       $SG17376                   000000018001fd38     c19_feedback_plant.obj
 0003:00001d60       $SG17377                   000000018001fd60     c19_feedback_plant.obj
 0003:00001d80       $SG17378                   000000018001fd80     c19_feedback_plant.obj
 0003:00001da0       $SG17385                   000000018001fda0     c19_feedback_plant.obj
 0003:00001dc8       $SG17386                   000000018001fdc8     c19_feedback_plant.obj
 0003:00001de8       $SG17391                   000000018001fde8     c19_feedback_plant.obj
 0003:00001df8       $SG17392                   000000018001fdf8     c19_feedback_plant.obj
 0003:00001e08       $SG17393                   000000018001fe08     c19_feedback_plant.obj
 0003:00001e10       $SG17394                   000000018001fe10     c19_feedback_plant.obj
 0003:00001e20       $SG17397                   000000018001fe20     c19_feedback_plant.obj
 0003:00001e90       $SG17398                   000000018001fe90     c19_feedback_plant.obj
 0003:00001f00       $SG18433                   000000018001ff00     feedback_plant_sfun_registry.obj
 0003:00001f30       $SG16386                   000000018001ff30     feedback_plant_sfun_registry.obj
 0003:00001f40       $SG18442                   000000018001ff40     feedback_plant_sfun_registry.obj
 0003:00001f70       $SG18451                   000000018001ff70     feedback_plant_sfun_registry.obj
 0003:00001fa4       $SG16565                   000000018001ffa4     feedback_plant_sfun_registry.obj
 0003:00001fac       $SG18206                   000000018001ffac     feedback_plant_sfun_registry.obj
 0003:00001fb0       $SG16407                   000000018001ffb0     feedback_plant_sfun_registry.obj
 0003:00001fc0       $SG18456                   000000018001ffc0     feedback_plant_sfun_registry.obj
 0003:00001ff4       $SG16571                   000000018001fff4     feedback_plant_sfun_registry.obj
 0003:00001ffc       $SG18279                   000000018001fffc     feedback_plant_sfun_registry.obj
 0003:00002000       $SG18464                   0000000180020000     feedback_plant_sfun_registry.obj
 0003:00002038       $SG18472                   0000000180020038     feedback_plant_sfun_registry.obj
 0003:00002070       $SG18480                   0000000180020070     feedback_plant_sfun_registry.obj
 0003:000020a0       $SG18488                   00000001800200a0     feedback_plant_sfun_registry.obj
 0003:000020d0       $SG18495                   00000001800200d0     feedback_plant_sfun_registry.obj
 0003:00002100       $SG16451                   0000000180020100     feedback_plant_sfun_registry.obj
 0003:00002118       $SG18502                   0000000180020118     feedback_plant_sfun_registry.obj
 0003:00002148       $SG18507                   0000000180020148     feedback_plant_sfun_registry.obj
 0003:00002178       $SG18515                   0000000180020178     feedback_plant_sfun_registry.obj
 0003:000021a8       $SG18523                   00000001800201a8     feedback_plant_sfun_registry.obj
 0003:000021e0       $SG18528                   00000001800201e0     feedback_plant_sfun_registry.obj
 0003:00002218       $SG16482                   0000000180020218     feedback_plant_sfun_registry.obj
 0003:00002228       $SG18536                   0000000180020228     feedback_plant_sfun_registry.obj
 0003:00002258       $SG18542                   0000000180020258     feedback_plant_sfun_registry.obj
 0003:00002280       $SG18547                   0000000180020280     feedback_plant_sfun_registry.obj
 0003:000022a0       $SG18552                   00000001800202a0     feedback_plant_sfun_registry.obj
 0003:000022d0       $SG18557                   00000001800202d0     feedback_plant_sfun_registry.obj
 0003:000022f0       $SG18562                   00000001800202f0     feedback_plant_sfun_registry.obj
 0003:00002310       $SG18567                   0000000180020310     feedback_plant_sfun_registry.obj
 0003:00002330       $SG18572                   0000000180020330     feedback_plant_sfun_registry.obj
 0003:00002358       $SG18577                   0000000180020358     feedback_plant_sfun_registry.obj
 0003:00002380       $SG18582                   0000000180020380     feedback_plant_sfun_registry.obj
 0003:000023a8       $SG17561                   00000001800203a8     feedback_plant_sfun_registry.obj
 0003:000023e8       $SG17566                   00000001800203e8     feedback_plant_sfun_registry.obj
 0003:00002418       $SG18591                   0000000180020418     feedback_plant_sfun_registry.obj
 0003:00002438       $SG18596                   0000000180020438     feedback_plant_sfun_registry.obj
 0003:00002460       $SG17571                   0000000180020460     feedback_plant_sfun_registry.obj
 0003:000024a8       $SG18600                   00000001800204a8     feedback_plant_sfun_registry.obj
 0003:000024d0       $SG18608                   00000001800204d0     feedback_plant_sfun_registry.obj
 0003:000024f8       $SG17585                   00000001800204f8     feedback_plant_sfun_registry.obj
 0003:00002530       $SG16566                   0000000180020530     feedback_plant_sfun_registry.obj
 0003:00002548       $SG18615                   0000000180020548     feedback_plant_sfun_registry.obj
 0003:00002570       $SG16572                   0000000180020570     feedback_plant_sfun_registry.obj
 0003:00002590       $SG16712                   0000000180020590     feedback_plant_sfun_registry.obj
 0003:000025b8       _sfcnName                  00000001800205b8     feedback_plant_sfun_registry.obj
 0003:000025e0       $SG16729                   00000001800205e0     feedback_plant_sfun_registry.obj
 0003:00002658       $SG17857                   0000000180020658     feedback_plant_sfun_registry.obj
 0003:00002698       $SG17865                   0000000180020698     feedback_plant_sfun_registry.obj
 0003:000026d0       $SG17879                   00000001800206d0     feedback_plant_sfun_registry.obj
 0003:000026e8       $SG17024                   00000001800206e8     feedback_plant_sfun_registry.obj
 0003:000026f0       $SG17025                   00000001800206f0     feedback_plant_sfun_registry.obj
 0003:000026f8       $SG17046                   00000001800206f8     feedback_plant_sfun_registry.obj
 0003:00002708       $SG17070                   0000000180020708     feedback_plant_sfun_registry.obj
 0003:00002714       $SG17072                   0000000180020714     feedback_plant_sfun_registry.obj
 0003:00002720       $SG17075                   0000000180020720     feedback_plant_sfun_registry.obj
 0003:00002730       $SG18203                   0000000180020730     feedback_plant_sfun_registry.obj
 0003:00002770       $SG18225                   0000000180020770     feedback_plant_sfun_registry.obj
 0003:00002778       $SG18226                   0000000180020778     feedback_plant_sfun_registry.obj
 0003:00002780       $SG18227                   0000000180020780     feedback_plant_sfun_registry.obj
 0003:00002788       $SG18233                   0000000180020788     feedback_plant_sfun_registry.obj
 0003:00002790       $SG18228                   0000000180020790     feedback_plant_sfun_registry.obj
 0003:000027f8       $SG18231                   00000001800207f8     feedback_plant_sfun_registry.obj
 0003:00002838       $SG18236                   0000000180020838     feedback_plant_sfun_registry.obj
 0003:00002840       $SG18239                   0000000180020840     feedback_plant_sfun_registry.obj
 0003:00002848       $SG18241                   0000000180020848     feedback_plant_sfun_registry.obj
 0003:00002878       $SG18243                   0000000180020878     feedback_plant_sfun_registry.obj
 0003:00002888       $SG18271                   0000000180020888     feedback_plant_sfun_registry.obj
 0003:00002894       $SG18273                   0000000180020894     feedback_plant_sfun_registry.obj
 0003:0000289c       $SG18275                   000000018002089c     feedback_plant_sfun_registry.obj
 0003:000028a8       $SG18277                   00000001800208a8     feedback_plant_sfun_registry.obj
 0003:000028b8       $SG16229                   00000001800208b8     feedback_plant_sfun_registry.obj
 0003:000028d8       $SG16234                   00000001800208d8     feedback_plant_sfun_registry.obj
 0003:000028e8       $SG18304                   00000001800208e8     feedback_plant_sfun_registry.obj
 0003:00002920       $SG18285                   0000000180020920     feedback_plant_sfun_registry.obj
 0003:000029c8       $SG18307                   00000001800209c8     feedback_plant_sfun_registry.obj
 0003:00002a00       $SG18311                   0000000180020a00     feedback_plant_sfun_registry.obj
 0003:00002a48       $SG16267                   0000000180020a48     feedback_plant_sfun_registry.obj
 0003:00002a68       $SG16272                   0000000180020a68     feedback_plant_sfun_registry.obj
 0003:00002a78       $SG18340                   0000000180020a78     feedback_plant_sfun_registry.obj
 0003:00002a80       $SG18317                   0000000180020a80     feedback_plant_sfun_registry.obj
 0003:00002ac8       $SG18320                   0000000180020ac8     feedback_plant_sfun_registry.obj
 0003:00002ae8       $SG18342                   0000000180020ae8     feedback_plant_sfun_registry.obj
 0003:00002b00       $SG18344                   0000000180020b00     feedback_plant_sfun_registry.obj
 0003:00002ba0       $SG16305                   0000000180020ba0     feedback_plant_sfun_registry.obj
 0003:00002bb8       $SG16310                   0000000180020bb8     feedback_plant_sfun_registry.obj
 0003:00002bc8       $SG18417                   0000000180020bc8     feedback_plant_sfun_registry.obj
 0003:00002bf8       $SG18425                   0000000180020bf8     feedback_plant_sfun_registry.obj
 0003:00002c20       $SG17343                   0000000180020c20     feedback_plant_sfun_registry.obj
 0003:00002c90       $SG17353                   0000000180020c90     feedback_plant_sfun_registry.obj
 0003:00002d00       $SG16343                   0000000180020d00     feedback_plant_sfun_registry.obj
 0003:00002d20       $SG16348                   0000000180020d20     feedback_plant_sfun_registry.obj
 0003:00002d30       $SG16381                   0000000180020d30     feedback_plant_sfun_registry.obj
 0003:00002d80       sRtwOptimizationInfoStruct 0000000180020d80     feedback_plant_sfun.obj
 0003:00002d88       sOptimizationInfoFlags     0000000180020d88     feedback_plant_sfun.obj
 0003:00002d90       $SG16919                   0000000180020d90     c1_feedback_plant.obj
 0003:00002d91       $SG16921                   0000000180020d91     c1_feedback_plant.obj
 0003:00002d92       $SG16936                   0000000180020d92     c1_feedback_plant.obj
 0003:00002d98       _sfTime_                   0000000180020d98     c1_feedback_plant.obj
 0003:00002da0       $SG17387                   0000000180020da0     c18_feedback_plant.obj
 0003:00002da1       $SG17389                   0000000180020da1     c18_feedback_plant.obj
 0003:00002da2       $SG17406                   0000000180020da2     c18_feedback_plant.obj
 0003:00002da8       _sfTime_                   0000000180020da8     c18_feedback_plant.obj
 0003:00002db0       $SG17363                   0000000180020db0     c19_feedback_plant.obj
 0003:00002db1       $SG17365                   0000000180020db1     c19_feedback_plant.obj
 0003:00002db2       $SG17382                   0000000180020db2     c19_feedback_plant.obj
 0003:00002db8       _sfTime_                   0000000180020db8     c19_feedback_plant.obj
 0003:00002dc0       sfGlobalMdlStartCallCounts 0000000180020dc0     feedback_plant_sfun_registry.obj
 0003:00002dc4       $SG18220                   0000000180020dc4     feedback_plant_sfun_registry.obj
 0003:00002dd0       ?errmsg@?N@??ssWriteRTWWorkVect@@9@9 0000000180020dd0     feedback_plant_sfun_registry.obj
 0003:00002ea0       GS_ExceptionRecord         0000000180020ea0     MSVCRT:gs_report.obj
 0003:00002f40       GS_ContextRecord           0000000180020f40     MSVCRT:gs_report.obj
 0003:00003410       DebuggerWasPresent         0000000180021410     MSVCRT:gs_report.obj
 0003:00003414       __proc_attached            0000000180021414     MSVCRT:crtdll.obj
 0004:00000000       $pdata$load_feedback_plant_optimization_info 0000000180022000     feedback_plant_sfun.obj
 0004:0000000c       $pdata$unload_feedback_plant_optimization_info 000000018002200c     feedback_plant_sfun.obj
 0004:00000018       $pdata$sf_feedback_plant_method_dispatcher 0000000180022018     feedback_plant_sfun.obj
 0004:00000024       $pdata$sf_feedback_plant_process_testpoint_info_call 0000000180022024     feedback_plant_sfun.obj
 0004:00000030       $pdata$sf_feedback_plant_process_check_sum_call 0000000180022030     feedback_plant_sfun.obj
 0004:0000003c       $pdata$sf_feedback_plant_autoinheritance_info 000000018002203c     feedback_plant_sfun.obj
 0004:00000048       $pdata$sf_feedback_plant_get_eml_resolved_functions_info 0000000180022048     feedback_plant_sfun.obj
 0004:00000054       $pdata$sf_feedback_plant_third_party_uses_info 0000000180022054     feedback_plant_sfun.obj
 0004:00000060       $pdata$sf_feedback_plant_jit_fallback_info 0000000180022060     feedback_plant_sfun.obj
 0004:0000006c       $pdata$sf_feedback_plant_updateBuildInfo_args_info 000000018002206c     feedback_plant_sfun.obj
 0004:00000078       $pdata$feedback_plant_debug_initialize 0000000180022078     feedback_plant_sfun.obj
 0004:00000084       $pdata$sf_c1_feedback_plant_get_eml_resolved_functions_info 0000000180022084     c1_feedback_plant.obj
 0004:00000090       $pdata$sf_c1_feedback_plant_get_check_sum 0000000180022090     c1_feedback_plant.obj
 0004:0000009c       $pdata$c1_feedback_plant_method_dispatcher 000000018002209c     c1_feedback_plant.obj
 0004:000000a8       $pdata$chart_debug_initialization 00000001800220a8     c1_feedback_plant.obj
 0004:000000b4       $pdata$chart_debug_initialize_data_addresses 00000001800220b4     c1_feedback_plant.obj
 0004:000000c0       $pdata$initialize_c1_feedback_plant 00000001800220c0     c1_feedback_plant.obj
 0004:000000cc       $pdata$enable_c1_feedback_plant 00000001800220cc     c1_feedback_plant.obj
 0004:000000d8       $pdata$disable_c1_feedback_plant 00000001800220d8     c1_feedback_plant.obj
 0004:000000e4       $pdata$get_sim_state_c1_feedback_plant 00000001800220e4     c1_feedback_plant.obj
 0004:000000f0       $pdata$set_sim_state_c1_feedback_plant 00000001800220f0     c1_feedback_plant.obj
 0004:000000fc       $pdata$sf_gateway_c1_feedback_plant 00000001800220fc     c1_feedback_plant.obj
 0004:00000108       $pdata$c1_sf_marshallOut   0000000180022108     c1_feedback_plant.obj
 0004:00000114       $pdata$c1_emlrt_marshallIn 0000000180022114     c1_feedback_plant.obj
 0004:00000120       $pdata$c1_b_emlrt_marshallIn 0000000180022120     c1_feedback_plant.obj
 0004:0000012c       $pdata$c1_sf_marshallIn    000000018002212c     c1_feedback_plant.obj
 0004:00000138       $pdata$c1_b_sf_marshallOut 0000000180022138     c1_feedback_plant.obj
 0004:00000144       $pdata$c1_c_emlrt_marshallIn 0000000180022144     c1_feedback_plant.obj
 0004:00000150       $pdata$c1_b_sf_marshallIn  0000000180022150     c1_feedback_plant.obj
 0004:0000015c       $pdata$c1_e_emlrt_marshallIn 000000018002215c     c1_feedback_plant.obj
 0004:00000168       $pdata$c1_f_emlrt_marshallIn 0000000180022168     c1_feedback_plant.obj
 0004:00000174       $pdata$init_simulink_io_address 0000000180022174     c1_feedback_plant.obj
 0004:00000180       $pdata$sf_c1_feedback_plant_get_post_codegen_info 0000000180022180     c1_feedback_plant.obj
 0004:0000018c       $pdata$sf_c1_feedback_plant_get_autoinheritance_info 000000018002218c     c1_feedback_plant.obj
 0004:00000198       $pdata$sf_c1_feedback_plant_third_party_uses_info 0000000180022198     c1_feedback_plant.obj
 0004:000001a4       $pdata$sf_c1_feedback_plant_jit_fallback_info 00000001800221a4     c1_feedback_plant.obj
 0004:000001b0       $pdata$sf_c1_feedback_plant_updateBuildInfo_args_info 00000001800221b0     c1_feedback_plant.obj
 0004:000001bc       $pdata$sf_get_sim_state_info_c1_feedback_plant 00000001800221bc     c1_feedback_plant.obj
 0004:000001c8       $pdata$sf_opaque_initialize_c1_feedback_plant 00000001800221c8     c1_feedback_plant.obj
 0004:000001d4       $pdata$sf_opaque_enable_c1_feedback_plant 00000001800221d4     c1_feedback_plant.obj
 0004:000001e0       $pdata$sf_opaque_disable_c1_feedback_plant 00000001800221e0     c1_feedback_plant.obj
 0004:000001ec       $pdata$sf_opaque_gateway_c1_feedback_plant 00000001800221ec     c1_feedback_plant.obj
 0004:000001f8       $pdata$sf_opaque_get_sim_state_c1_feedback_plant 00000001800221f8     c1_feedback_plant.obj
 0004:00000204       $pdata$sf_opaque_set_sim_state_c1_feedback_plant 0000000180022204     c1_feedback_plant.obj
 0004:00000210       $pdata$sf_opaque_terminate_c1_feedback_plant 0000000180022210     c1_feedback_plant.obj
 0004:0000021c       $pdata$mdlProcessParameters_c1_feedback_plant 000000018002221c     c1_feedback_plant.obj
 0004:00000228       $pdata$mdlSetWorkWidths_c1_feedback_plant 0000000180022228     c1_feedback_plant.obj
 0004:00000234       $pdata$mdlRTW_c1_feedback_plant 0000000180022234     c1_feedback_plant.obj
 0004:00000240       $pdata$mdlStart_c1_feedback_plant 0000000180022240     c1_feedback_plant.obj
 0004:0000024c       $pdata$sf_c18_feedback_plant_get_eml_resolved_functions_info 000000018002224c     c18_feedback_plant.obj
 0004:00000258       $pdata$sf_c18_feedback_plant_get_check_sum 0000000180022258     c18_feedback_plant.obj
 0004:00000264       $pdata$c18_feedback_plant_method_dispatcher 0000000180022264     c18_feedback_plant.obj
 0004:00000270       $pdata$chart_debug_initialization 0000000180022270     c18_feedback_plant.obj
 0004:0000027c       $pdata$chart_debug_initialize_data_addresses 000000018002227c     c18_feedback_plant.obj
 0004:00000288       $pdata$initialize_c18_feedback_plant 0000000180022288     c18_feedback_plant.obj
 0004:00000294       $pdata$enable_c18_feedback_plant 0000000180022294     c18_feedback_plant.obj
 0004:000002a0       $pdata$disable_c18_feedback_plant 00000001800222a0     c18_feedback_plant.obj
 0004:000002ac       $pdata$get_sim_state_c18_feedback_plant 00000001800222ac     c18_feedback_plant.obj
 0004:000002b8       $pdata$set_sim_state_c18_feedback_plant 00000001800222b8     c18_feedback_plant.obj
 0004:000002c4       $pdata$sf_gateway_c18_feedback_plant 00000001800222c4     c18_feedback_plant.obj
 0004:000002d0       $pdata$c18_chartstep_c18_feedback_plant 00000001800222d0     c18_feedback_plant.obj
 0004:000002dc       $pdata$c18_sf_marshallOut  00000001800222dc     c18_feedback_plant.obj
 0004:000002e8       $pdata$c18_emlrt_marshallIn 00000001800222e8     c18_feedback_plant.obj
 0004:000002f4       $pdata$c18_b_emlrt_marshallIn 00000001800222f4     c18_feedback_plant.obj
 0004:00000300       $pdata$c18_sf_marshallIn   0000000180022300     c18_feedback_plant.obj
 0004:0000030c       $pdata$c18_b_sf_marshallOut 000000018002230c     c18_feedback_plant.obj
 0004:00000318       $pdata$c18_c_sf_marshallOut 0000000180022318     c18_feedback_plant.obj
 0004:00000324       $pdata$c18_d_sf_marshallOut 0000000180022324     c18_feedback_plant.obj
 0004:00000330       $pdata$c18_c_emlrt_marshallIn 0000000180022330     c18_feedback_plant.obj
 0004:0000033c       $pdata$c18_b_sf_marshallIn 000000018002233c     c18_feedback_plant.obj
 0004:00000348       $pdata$c18_e_sf_marshallOut 0000000180022348     c18_feedback_plant.obj
 0004:00000354       $pdata$c18_d_emlrt_marshallIn 0000000180022354     c18_feedback_plant.obj
 0004:00000360       $pdata$c18_c_sf_marshallIn 0000000180022360     c18_feedback_plant.obj
 0004:0000036c       $pdata$c18_f_sf_marshallOut 000000018002236c     c18_feedback_plant.obj
 0004:00000378       $pdata$c18_e_emlrt_marshallIn 0000000180022378     c18_feedback_plant.obj
 0004:00000384       $pdata$c18_d_sf_marshallIn 0000000180022384     c18_feedback_plant.obj
 0004:00000390       $pdata$c18_g_sf_marshallOut 0000000180022390     c18_feedback_plant.obj
 0004:0000039c       $pdata$c18_f_emlrt_marshallIn 000000018002239c     c18_feedback_plant.obj
 0004:000003a8       $pdata$c18_e_sf_marshallIn 00000001800223a8     c18_feedback_plant.obj
 0004:000003b4       $pdata$c18_h_emlrt_marshallIn 00000001800223b4     c18_feedback_plant.obj
 0004:000003c0       $pdata$c18_i_emlrt_marshallIn 00000001800223c0     c18_feedback_plant.obj
 0004:000003cc       $pdata$init_simulink_io_address 00000001800223cc     c18_feedback_plant.obj
 0004:000003d8       $pdata$sf_c18_feedback_plant_get_post_codegen_info 00000001800223d8     c18_feedback_plant.obj
 0004:000003e4       $pdata$sf_c18_feedback_plant_get_autoinheritance_info 00000001800223e4     c18_feedback_plant.obj
 0004:000003f0       $pdata$sf_c18_feedback_plant_third_party_uses_info 00000001800223f0     c18_feedback_plant.obj
 0004:000003fc       $pdata$sf_c18_feedback_plant_jit_fallback_info 00000001800223fc     c18_feedback_plant.obj
 0004:00000408       $pdata$sf_c18_feedback_plant_updateBuildInfo_args_info 0000000180022408     c18_feedback_plant.obj
 0004:00000414       $pdata$sf_get_sim_state_info_c18_feedback_plant 0000000180022414     c18_feedback_plant.obj
 0004:00000420       $pdata$sf_opaque_initialize_c18_feedback_plant 0000000180022420     c18_feedback_plant.obj
 0004:0000042c       $pdata$sf_opaque_enable_c18_feedback_plant 000000018002242c     c18_feedback_plant.obj
 0004:00000438       $pdata$sf_opaque_disable_c18_feedback_plant 0000000180022438     c18_feedback_plant.obj
 0004:00000444       $pdata$sf_opaque_gateway_c18_feedback_plant 0000000180022444     c18_feedback_plant.obj
 0004:00000450       $pdata$sf_opaque_get_sim_state_c18_feedback_plant 0000000180022450     c18_feedback_plant.obj
 0004:0000045c       $pdata$sf_opaque_set_sim_state_c18_feedback_plant 000000018002245c     c18_feedback_plant.obj
 0004:00000468       $pdata$sf_opaque_terminate_c18_feedback_plant 0000000180022468     c18_feedback_plant.obj
 0004:00000474       $pdata$mdlProcessParameters_c18_feedback_plant 0000000180022474     c18_feedback_plant.obj
 0004:00000480       $pdata$mdlSetWorkWidths_c18_feedback_plant 0000000180022480     c18_feedback_plant.obj
 0004:0000048c       $pdata$mdlRTW_c18_feedback_plant 000000018002248c     c18_feedback_plant.obj
 0004:00000498       $pdata$mdlStart_c18_feedback_plant 0000000180022498     c18_feedback_plant.obj
 0004:000004a4       $pdata$sf_c19_feedback_plant_get_eml_resolved_functions_info 00000001800224a4     c19_feedback_plant.obj
 0004:000004b0       $pdata$sf_c19_feedback_plant_get_check_sum 00000001800224b0     c19_feedback_plant.obj
 0004:000004bc       $pdata$c19_feedback_plant_method_dispatcher 00000001800224bc     c19_feedback_plant.obj
 0004:000004c8       $pdata$chart_debug_initialization 00000001800224c8     c19_feedback_plant.obj
 0004:000004d4       $pdata$chart_debug_initialize_data_addresses 00000001800224d4     c19_feedback_plant.obj
 0004:000004e0       $pdata$initialize_c19_feedback_plant 00000001800224e0     c19_feedback_plant.obj
 0004:000004ec       $pdata$enable_c19_feedback_plant 00000001800224ec     c19_feedback_plant.obj
 0004:000004f8       $pdata$disable_c19_feedback_plant 00000001800224f8     c19_feedback_plant.obj
 0004:00000504       $pdata$get_sim_state_c19_feedback_plant 0000000180022504     c19_feedback_plant.obj
 0004:00000510       $pdata$set_sim_state_c19_feedback_plant 0000000180022510     c19_feedback_plant.obj
 0004:0000051c       $pdata$sf_gateway_c19_feedback_plant 000000018002251c     c19_feedback_plant.obj
 0004:00000528       $pdata$c19_chartstep_c19_feedback_plant 0000000180022528     c19_feedback_plant.obj
 0004:00000534       $pdata$c19_sf_marshallOut  0000000180022534     c19_feedback_plant.obj
 0004:00000540       $pdata$c19_emlrt_marshallIn 0000000180022540     c19_feedback_plant.obj
 0004:0000054c       $pdata$c19_b_emlrt_marshallIn 000000018002254c     c19_feedback_plant.obj
 0004:00000558       $pdata$c19_sf_marshallIn   0000000180022558     c19_feedback_plant.obj
 0004:00000564       $pdata$c19_b_sf_marshallOut 0000000180022564     c19_feedback_plant.obj
 0004:00000570       $pdata$c19_c_sf_marshallOut 0000000180022570     c19_feedback_plant.obj
 0004:0000057c       $pdata$c19_d_sf_marshallOut 000000018002257c     c19_feedback_plant.obj
 0004:00000588       $pdata$c19_c_emlrt_marshallIn 0000000180022588     c19_feedback_plant.obj
 0004:00000594       $pdata$c19_b_sf_marshallIn 0000000180022594     c19_feedback_plant.obj
 0004:000005a0       $pdata$c19_e_sf_marshallOut 00000001800225a0     c19_feedback_plant.obj
 0004:000005ac       $pdata$c19_d_emlrt_marshallIn 00000001800225ac     c19_feedback_plant.obj
 0004:000005b8       $pdata$c19_c_sf_marshallIn 00000001800225b8     c19_feedback_plant.obj
 0004:000005c4       $pdata$c19_f_sf_marshallOut 00000001800225c4     c19_feedback_plant.obj
 0004:000005d0       $pdata$c19_e_emlrt_marshallIn 00000001800225d0     c19_feedback_plant.obj
 0004:000005dc       $pdata$c19_d_sf_marshallIn 00000001800225dc     c19_feedback_plant.obj
 0004:000005e8       $pdata$c19_g_sf_marshallOut 00000001800225e8     c19_feedback_plant.obj
 0004:000005f4       $pdata$c19_f_emlrt_marshallIn 00000001800225f4     c19_feedback_plant.obj
 0004:00000600       $pdata$c19_e_sf_marshallIn 0000000180022600     c19_feedback_plant.obj
 0004:0000060c       $pdata$c19_h_emlrt_marshallIn 000000018002260c     c19_feedback_plant.obj
 0004:00000618       $pdata$c19_i_emlrt_marshallIn 0000000180022618     c19_feedback_plant.obj
 0004:00000624       $pdata$init_simulink_io_address 0000000180022624     c19_feedback_plant.obj
 0004:00000630       $pdata$sf_c19_feedback_plant_get_post_codegen_info 0000000180022630     c19_feedback_plant.obj
 0004:0000063c       $pdata$sf_c19_feedback_plant_get_autoinheritance_info 000000018002263c     c19_feedback_plant.obj
 0004:00000648       $pdata$sf_c19_feedback_plant_third_party_uses_info 0000000180022648     c19_feedback_plant.obj
 0004:00000654       $pdata$sf_c19_feedback_plant_jit_fallback_info 0000000180022654     c19_feedback_plant.obj
 0004:00000660       $pdata$sf_c19_feedback_plant_updateBuildInfo_args_info 0000000180022660     c19_feedback_plant.obj
 0004:0000066c       $pdata$sf_get_sim_state_info_c19_feedback_plant 000000018002266c     c19_feedback_plant.obj
 0004:00000678       $pdata$sf_opaque_initialize_c19_feedback_plant 0000000180022678     c19_feedback_plant.obj
 0004:00000684       $pdata$sf_opaque_enable_c19_feedback_plant 0000000180022684     c19_feedback_plant.obj
 0004:00000690       $pdata$sf_opaque_disable_c19_feedback_plant 0000000180022690     c19_feedback_plant.obj
 0004:0000069c       $pdata$sf_opaque_gateway_c19_feedback_plant 000000018002269c     c19_feedback_plant.obj
 0004:000006a8       $pdata$sf_opaque_get_sim_state_c19_feedback_plant 00000001800226a8     c19_feedback_plant.obj
 0004:000006b4       $pdata$sf_opaque_set_sim_state_c19_feedback_plant 00000001800226b4     c19_feedback_plant.obj
 0004:000006c0       $pdata$sf_opaque_terminate_c19_feedback_plant 00000001800226c0     c19_feedback_plant.obj
 0004:000006cc       $pdata$mdlProcessParameters_c19_feedback_plant 00000001800226cc     c19_feedback_plant.obj
 0004:000006d8       $pdata$mdlSetWorkWidths_c19_feedback_plant 00000001800226d8     c19_feedback_plant.obj
 0004:000006e4       $pdata$mdlRTW_c19_feedback_plant 00000001800226e4     c19_feedback_plant.obj
 0004:000006f0       $pdata$mdlStart_c19_feedback_plant 00000001800226f0     c19_feedback_plant.obj
 0004:000006fc       $pdata$mexFunction         00000001800226fc     feedback_plant_sfun_registry.obj
 0004:00000708       $pdata$_ssSetInputPortDirectFeedThroughFcn 0000000180022708     feedback_plant_sfun_registry.obj
 0004:00000714       $pdata$_ssGetInputPortSignalPtrsFcn 0000000180022714     feedback_plant_sfun_registry.obj
 0004:00000720       $pdata$_ssGetInputPortSignalFcn 0000000180022720     feedback_plant_sfun_registry.obj
 0004:0000072c       $pdata$_ssSetInputPortReusableFcn 000000018002272c     feedback_plant_sfun_registry.obj
 0004:00000738       $pdata$_ssSetOutputPortReusableFcn 0000000180022738     feedback_plant_sfun_registry.obj
 0004:00000744       $pdata$_ssSetSymbolicDimsSupport 0000000180022744     feedback_plant_sfun_registry.obj
 0004:00000750       $pdata$_ssRegisterSymbolicDimsExpr 0000000180022750     feedback_plant_sfun_registry.obj
 0004:0000075c       $pdata$_ssRegisterSymbolicDims 000000018002275c     feedback_plant_sfun_registry.obj
 0004:00000768       $pdata$_ssRegisterSymbolicDimsString 0000000180022768     feedback_plant_sfun_registry.obj
 0004:00000774       $pdata$_ssRegisterSymbolicDimsIntValue 0000000180022774     feedback_plant_sfun_registry.obj
 0004:00000780       $pdata$_ssRegisterSymbolicDimsPlus 0000000180022780     feedback_plant_sfun_registry.obj
 0004:0000078c       $pdata$_ssRegisterSymbolicDimsMinus 000000018002278c     feedback_plant_sfun_registry.obj
 0004:00000798       $pdata$_ssRegisterSymbolicDimsMultiply 0000000180022798     feedback_plant_sfun_registry.obj
 0004:000007a4       $pdata$_ssRegisterSymbolicDimsDivide 00000001800227a4     feedback_plant_sfun_registry.obj
 0004:000007b0       $pdata$_ssGetNumSymbolicDims 00000001800227b0     feedback_plant_sfun_registry.obj
 0004:000007bc       $pdata$_ssGetSymbolicDim   00000001800227bc     feedback_plant_sfun_registry.obj
 0004:000007c8       $pdata$_ssSetInputPortSymbolicDimsId 00000001800227c8     feedback_plant_sfun_registry.obj
 0004:000007d4       $pdata$_ssGetCompInputPortSymbolicDimsId 00000001800227d4     feedback_plant_sfun_registry.obj
 0004:000007e0       $pdata$_ssSetCompInputPortSymbolicDimsId 00000001800227e0     feedback_plant_sfun_registry.obj
 0004:000007ec       $pdata$_ssSetOutputPortSymbolicDimsId 00000001800227ec     feedback_plant_sfun_registry.obj
 0004:000007f8       $pdata$_ssGetCompOutputPortSymbolicDimsId 00000001800227f8     feedback_plant_sfun_registry.obj
 0004:00000804       $pdata$_ssSetCompOutputPortSymbolicDimsId 0000000180022804     feedback_plant_sfun_registry.obj
 0004:00000810       $pdata$_ssSetCompDWorkSymbolicDimsId 0000000180022810     feedback_plant_sfun_registry.obj
 0004:0000081c       $pdata$ssGetIsZeroCrossControlDisabled 000000018002281c     feedback_plant_sfun_registry.obj
 0004:00000828       $pdata$ssSetIsInputPortUsedForContZcSignal 0000000180022828     feedback_plant_sfun_registry.obj
 0004:00000834       $pdata$ssSetZcSignalIsZcElementDisc 0000000180022834     feedback_plant_sfun_registry.obj
 0004:00000840       $pdata$ssSetZcSignalName   0000000180022840     feedback_plant_sfun_registry.obj
 0004:0000084c       $pdata$ssSetZcSignalWidth  000000018002284c     feedback_plant_sfun_registry.obj
 0004:00000858       $pdata$ssSetZcSignalZcEventType 0000000180022858     feedback_plant_sfun_registry.obj
 0004:00000864       $pdata$ssSetZcSignalType   0000000180022864     feedback_plant_sfun_registry.obj
 0004:00000870       $pdata$ssSetZcSignalZcTol  0000000180022870     feedback_plant_sfun_registry.obj
 0004:0000087c       $pdata$ssSetZcSignalNeedsEventNotification 000000018002287c     feedback_plant_sfun_registry.obj
 0004:00000888       $pdata$ssCreateAndAddZcSignalInfo 0000000180022888     feedback_plant_sfun_registry.obj
 0004:00000894       $pdata$ssCloneAndAddZcSignalInfo 0000000180022894     feedback_plant_sfun_registry.obj
 0004:000008a0       $pdata$ssGetNumZcSignals   00000001800228a0     feedback_plant_sfun_registry.obj
 0004:000008ac       $pdata$ssGetZcSignalVector 00000001800228ac     feedback_plant_sfun_registry.obj
 0004:000008b8       $pdata$ssGetZcSignalName   00000001800228b8     feedback_plant_sfun_registry.obj
 0004:000008c4       $pdata$ssGetZcSignalWidth  00000001800228c4     feedback_plant_sfun_registry.obj
 0004:000008d0       $pdata$ssGetZcSignalZcEventType 00000001800228d0     feedback_plant_sfun_registry.obj
 0004:000008dc       $pdata$ssGetZcSignalZcEvents 00000001800228dc     feedback_plant_sfun_registry.obj
 0004:000008e8       $pdata$ssGetZcSignalType   00000001800228e8     feedback_plant_sfun_registry.obj
 0004:000008f4       $pdata$ssGetZcSignalZcTol  00000001800228f4     feedback_plant_sfun_registry.obj
 0004:00000900       $pdata$ssGetZcSignalNeedsEventNotification 0000000180022900     feedback_plant_sfun_registry.obj
 0004:0000090c       $pdata$ssGetZcSignalIsZcElementDisc 000000018002290c     feedback_plant_sfun_registry.obj
 0004:00000918       $pdata$ssGetIsInputPortElementContinuous 0000000180022918     feedback_plant_sfun_registry.obj
 0004:00000924       $pdata$ssGetDTypeIdFromMxArray 0000000180022924     feedback_plant_sfun_registry.obj
 0004:00000930       $pdata$ssWriteRTWStr       0000000180022930     feedback_plant_sfun_registry.obj
 0004:0000093c       $pdata$ssWriteRTWNameValuePair 000000018002293c     feedback_plant_sfun_registry.obj
 0004:00000948       $pdata$ssWriteRTWParamSettings 0000000180022948     feedback_plant_sfun_registry.obj
 0004:00000954       $pdata$ssWriteRTWParameters 0000000180022954     feedback_plant_sfun_registry.obj
 0004:00000960       $pdata$ssWriteRTWWorkVect  0000000180022960     feedback_plant_sfun_registry.obj
 0004:0000096c       $pdata$ssWriteRTWMxVectParam 000000018002296c     feedback_plant_sfun_registry.obj
 0004:00000978       $pdata$ssWriteRTWMx2dMatParam 0000000180022978     feedback_plant_sfun_registry.obj
 0004:00000984       $pdata$_ssSetInputPortMatrixDimensions 0000000180022984     feedback_plant_sfun_registry.obj
 0004:00000990       $pdata$_ssSetOutputPortMatrixDimensions 0000000180022990     feedback_plant_sfun_registry.obj
 0004:0000099c       $pdata$_ssSetInputPortVectorDimension 000000018002299c     feedback_plant_sfun_registry.obj
 0004:000009a8       $pdata$_ssSetOutputPortVectorDimension 00000001800229a8     feedback_plant_sfun_registry.obj
 0004:000009b4       $pdata$ssIsRunTimeParamTunable 00000001800229b4     feedback_plant_sfun_registry.obj
 0004:000009c0       $pdata$ssGetSFuncBlockHandle 00000001800229c0     feedback_plant_sfun_registry.obj
 0004:000009cc       $pdata$_ssGetCurrentInputPortWidth 00000001800229cc     feedback_plant_sfun_registry.obj
 0004:000009d8       $pdata$_ssGetCurrentOutputPortWidth 00000001800229d8     feedback_plant_sfun_registry.obj
 0004:000009e4       $pdata$_ssGetCallSystemNumFcnCallDestinations 00000001800229e4     feedback_plant_sfun_registry.obj
 0004:000009f0       $pdata$ssGetParameterTuningCompliance 00000001800229f0     feedback_plant_sfun_registry.obj
 0004:000009fc       $pdata$ssWarning           00000001800229fc     feedback_plant_sfun_registry.obj
 0004:00000a08       $pdata$_ssGetAbsTol        0000000180022a08     feedback_plant_sfun_registry.obj
 0004:00000a14       $pdata$sf_process_check_sum_call 0000000180022a14     feedback_plant_sfun_registry.obj
 0004:00000a20       $pdata$sf_process_testpoint_info_call 0000000180022a20     feedback_plant_sfun_registry.obj
 0004:00000a2c       $pdata$sf_process_autoinheritance_call 0000000180022a2c     feedback_plant_sfun_registry.obj
 0004:00000a38       $pdata$sf_process_get_third_party_uses_info_call 0000000180022a38     feedback_plant_sfun_registry.obj
 0004:00000a44       $pdata$sf_process_get_jit_fallback_info_call 0000000180022a44     feedback_plant_sfun_registry.obj
 0004:00000a50       $pdata$sf_process_get_updateBuildInfo_args_info_call 0000000180022a50     feedback_plant_sfun_registry.obj
 0004:00000a5c       $pdata$sf_process_get_eml_resolved_functions_info_call 0000000180022a5c     feedback_plant_sfun_registry.obj
 0004:00000a68       $pdata$sf_mex_unlock_call  0000000180022a68     feedback_plant_sfun_registry.obj
 0004:00000a74       $pdata$sf_debug_api_wrapper 0000000180022a74     feedback_plant_sfun_registry.obj
 0004:00000a80       $pdata$ProcessMexSfunctionCmdLineCall 0000000180022a80     feedback_plant_sfun_registry.obj
 0004:00000a8c       $pdata$sf_machine_global_initializer_called 0000000180022a8c     feedback_plant_sfun_registry.obj
 0004:00000a98       $pdata$sf_machine_global_method_dispatcher 0000000180022a98     feedback_plant_sfun_registry.obj
 0004:00000aa4       $pdata$sf_machine_global_terminator 0000000180022aa4     feedback_plant_sfun_registry.obj
 0004:00000ab0       $pdata$sf_register_machine_exported_symbols 0000000180022ab0     feedback_plant_sfun_registry.obj
 0004:00000abc       $pdata$sf_machine_global_initializer 0000000180022abc     feedback_plant_sfun_registry.obj
 0004:00000ac8       $pdata$mdlGetSimState      0000000180022ac8     feedback_plant_sfun_registry.obj
 0004:00000ad4       $pdata$mdlSetSimState      0000000180022ad4     feedback_plant_sfun_registry.obj
 0004:00000ae0       $pdata$mdlSetWorkWidths    0000000180022ae0     feedback_plant_sfun_registry.obj
 0004:00000aec       $pdata$mdlProcessParameters 0000000180022aec     feedback_plant_sfun_registry.obj
 0004:00000af8       $pdata$mdl_start_processing 0000000180022af8     feedback_plant_sfun_registry.obj
 0004:00000b04       $pdata$mdl_terminate_processing 0000000180022b04     feedback_plant_sfun_registry.obj
 0004:00000b10       $pdata$mdlStart            0000000180022b10     feedback_plant_sfun_registry.obj
 0004:00000b1c       $pdata$mdlTerminate        0000000180022b1c     feedback_plant_sfun_registry.obj
 0004:00000b28       $pdata$mdlInitializeSizes  0000000180022b28     feedback_plant_sfun_registry.obj
 0004:00000b34       $pdata$mdlInitializeSampleTimes 0000000180022b34     feedback_plant_sfun_registry.obj
 0004:00000b40       $pdata$mdl_outputs_continuous_legacy 0000000180022b40     feedback_plant_sfun_registry.obj
 0004:00000b4c       $pdata$mdl_outputs_processing 0000000180022b4c     feedback_plant_sfun_registry.obj
 0004:00000b58       $pdata$mdl_zeroCrossings_processing 0000000180022b58     feedback_plant_sfun_registry.obj
 0004:00000b64       $pdata$mdlZeroCrossings    0000000180022b64     feedback_plant_sfun_registry.obj
 0004:00000b70       $pdata$mdl_derivatives_processing 0000000180022b70     feedback_plant_sfun_registry.obj
 0004:00000b7c       $pdata$mdlDerivatives      0000000180022b7c     feedback_plant_sfun_registry.obj
 0004:00000b88       $pdata$mdl_initialize_conditions_processing 0000000180022b88     feedback_plant_sfun_registry.obj
 0004:00000b94       $pdata$mdlInitializeConditions 0000000180022b94     feedback_plant_sfun_registry.obj
 0004:00000ba0       $pdata$mdl_ext_mode_exec_processing 0000000180022ba0     feedback_plant_sfun_registry.obj
 0004:00000bac       $pdata$mdlExtModeExec      0000000180022bac     feedback_plant_sfun_registry.obj
 0004:00000bb8       $pdata$mdlRTW              0000000180022bb8     feedback_plant_sfun_registry.obj
 0004:00000bc4       $pdata$mdl_enable_processing 0000000180022bc4     feedback_plant_sfun_registry.obj
 0004:00000bd0       $pdata$mdlEnable           0000000180022bd0     feedback_plant_sfun_registry.obj
 0004:00000bdc       $pdata$mdl_disable_processing 0000000180022bdc     feedback_plant_sfun_registry.obj
 0004:00000be8       $pdata$mdlDisable          0000000180022be8     feedback_plant_sfun_registry.obj
 0004:00000bf4       $pdata$mdlOutputs          0000000180022bf4     feedback_plant_sfun_registry.obj
 0004:00000c00       $pdata$mdl_update_processing 0000000180022c00     feedback_plant_sfun_registry.obj
 0004:00000c0c       $pdata$mdlUpdate           0000000180022c0c     feedback_plant_sfun_registry.obj
 0004:00000c18       $pdata$ProcessMexSfunctionEveryCall 0000000180022c18     feedback_plant_sfun_registry.obj
 0004:00000c24       $pdata$_RegNumInputPortsCB 0000000180022c24     feedback_plant_sfun_registry.obj
 0004:00000c30       $pdata$_RegNumOutputPortsCB 0000000180022c30     feedback_plant_sfun_registry.obj
 0004:00000c3c       $pdata$_CreateSimStruct    0000000180022c3c     feedback_plant_sfun_registry.obj
 0004:00000c48       $pdata$_ssFatalError       0000000180022c48     feedback_plant_sfun_registry.obj
 0004:00000c54       $pdata$_ProcessMexSfunctionCmdLineCall 0000000180022c54     feedback_plant_sfun_registry.obj
 0004:00000c60       $pdata$__raise_securityfailure 0000000180022c60     MSVCRT:gs_report.obj
 0004:00000c6c       $pdata$__report_gsfailure  0000000180022c6c     MSVCRT:gs_report.obj
 0004:00000c78       $pdata$__report_rangecheckfailure 0000000180022c78     MSVCRT:gs_report.obj
 0004:00000c84       $pdata$__report_securityfailure 0000000180022c84     MSVCRT:gs_report.obj
 0004:00000c90       $pdata$__report_securityfailureEx 0000000180022c90     MSVCRT:gs_report.obj
 0004:00000c9c       $pdata$__GSHandlerCheck    0000000180022c9c     MSVCRT:gshandler.obj
 0004:00000ca8       $pdata$__GSHandlerCheckCommon 0000000180022ca8     MSVCRT:gshandler.obj
 0004:00000ccc       $pdata$pre_c_init          0000000180022ccc     MSVCRT:crtdll.obj
 0004:00000cd8       $pdata$_CRT_INIT           0000000180022cd8     MSVCRT:crtdll.obj
 0004:00000ce4       $pdata$_DllMainCRTStartup  0000000180022ce4     MSVCRT:crtdll.obj
 0004:00000cf0       $pdata$__DllMainCRTStartup 0000000180022cf0     MSVCRT:crtdll.obj
 0004:00000cfc       $pdata$_IsNonwritableInCurrentImage 0000000180022cfc     MSVCRT:pesect.obj
 0004:00000d08       $pdata$__atonexitinit      0000000180022d08     MSVCRT:atonexit.obj
 0004:00000d14       $pdata$_onexit             0000000180022d14     MSVCRT:atonexit.obj
 0004:00000d20       $pdata$atexit              0000000180022d20     MSVCRT:atonexit.obj
 0004:00000d2c       $pdata$__security_init_cookie 0000000180022d2c     MSVCRT:gs_support.obj
 0004:00000d38       $pdata$DllMain             0000000180022d38     MSVCRT:dllmain.obj
 0004:00000d44       $pdata$_RTC_Initialize     0000000180022d44     MSVCRT:initsect.obj
 0004:00000d50       $pdata$_RTC_Terminate      0000000180022d50     MSVCRT:initsect.obj
 0004:00000d5c       $pdata$__DllMainCRTStartup$filt$0 0000000180022d5c     MSVCRT:crtdll.obj
 0004:00000d68       $pdata$__DllMainCRTStartup$fin$1 0000000180022d68     MSVCRT:crtdll.obj
 0004:00000d74       $pdata$_IsNonwritableInCurrentImage$filt$0 0000000180022d74     MSVCRT:pesect.obj
 0004:00000d80       $pdata$_onexit$fin$0       0000000180022d80     MSVCRT:atonexit.obj
