 pump_test_model_xpc

 Timestamp is 57bb0412 (Mon Aug 22 15:54:26 2016)

 Preferred load address is 10000000

 Start         Length     Name                   Class
 0001:00000000 0003770bH .text                   CODE
 0002:00000000 00000104H .CRT$XCA                DATA
 0002:00000104 00000104H .CRT$XCZ                DATA
 0002:00000208 00000104H .CRT$XIA                DATA
 0002:0000030c 00000113H .CRT$XIC                DATA
 0002:00000420 00000104H .CRT$XIZ                DATA
 0002:00000524 00000104H .CRT$XPA                DATA
 0002:00000628 00000109H .CRT$XPX                DATA
 0002:00000734 00000104H .CRT$XPXA               DATA
 0002:00000838 00000104H .CRT$XPZ                DATA
 0002:0000093c 00000104H .CRT$XTA                DATA
 0002:00000a40 00000104H .CRT$XTZ                DATA
 0002:00000b50 0000baa0H .rdata                  DATA
 0002:0000c5f0 000001acH .rdata$debug            DATA
 0002:0000c7a0 0000010eH .rdata$sxdata           DATA
 0002:0000c8b0 00000104H .rtc$IAA                DATA
 0002:0000c9b4 00000104H .rtc$IZZ                DATA
 0002:0000cab8 00000104H .rtc$TAA                DATA
 0002:0000cbbc 00000104H .rtc$TZZ                DATA
 0002:0000ccc0 00000991H .xdata$x                DATA
 0002:0000d660 0000021dH .edata                  DATA
 0003:00000000 00001bbfH .data                   DATA
 0003:00001bc0 00013d20H .bss                    DATA
 0004:00000000 00000014H .idata$2                DATA
 0004:00000014 00000014H .idata$3                DATA
 0004:00000028 000001bcH .idata$4                DATA
 0004:000001e4 000001bcH .idata$5                DATA
 0004:000003a0 000007c3H .idata$6                DATA

  Address         Publics by Value              Rva+Base       Lib:Object

 0000:00000000       __except_list              00000000     <absolute>
 0000:00000003       ___safe_se_handler_count   00000003     <absolute>
 0000:00000000       ___ImageBase               10000000     <linker-defined>
 0001:00000300       _MdlInitialize             10001300 f   pump_test_model.obj
 0001:00000310       _MdlInitializeSampleTimes  10001310 f   pump_test_model.obj
 0001:00000320       _MdlInitializeSizes        10001320 f   pump_test_model.obj
 0001:00000330       _MdlOutputs                10001330 f   pump_test_model.obj
 0001:00000340       _MdlStart                  10001340 f   pump_test_model.obj
 0001:00000370       _MdlTerminate              10001370 f   pump_test_model.obj
 0001:00000380       _MdlUpdate                 10001380 f   pump_test_model.obj
 0001:00000390       _pump_test_model           10001390 f   pump_test_model.obj
 0001:000007a0       _pump_test_model_derivatives 100017a0 f   pump_test_model.obj
 0001:000007c0       _pump_test_model_initialize 100017c0 f   pump_test_model.obj
 0001:000007f0       _pump_test_model_output    100017f0 f   pump_test_model.obj
 0001:00001350       _pump_test_model_terminate 10002350 f   pump_test_model.obj
 0001:00001360       _pump_test_model_update    10002360 f   pump_test_model.obj
 0001:00001440       _rt_ODECreateIntegrationData 10002440 f   pump_test_model.obj
 0001:00001450       _rt_ODEDestroyIntegrationData 10002450 f   pump_test_model.obj
 0001:00001460       _rt_ODEUpdateContinuousStates 10002460 f   pump_test_model.obj
 0001:00001690       _rt_powd_snf               10002690 f   pump_test_model.obj
 0001:00001920       _pump_test_model_GetCAPIStaticMap 10002920 f   pump_test_model_capi.obj
 0001:00001930       _pump_test_model_InitializeDataMapInfo 10002930 f   pump_test_model_capi.obj
 0001:000019c0       _TgtConnBackgroundTask     100029c0 f   pump_test_model_tgtconn.obj
 0001:000019d0       _TgtConnInit               100029d0 f   pump_test_model_tgtconn.obj
 0001:000019f0       _TgtConnPostStep           100029f0 f   pump_test_model_tgtconn.obj
 0001:00001a00       _TgtConnPreStep            10002a00 f   pump_test_model_tgtconn.obj
 0001:00001a10       _TgtConnTerm               10002a10 f   pump_test_model_tgtconn.obj
 0001:00001a20       _rtGetInf                  10002a20 f   rtGetInf.obj
 0001:00001a50       _rtGetInfF                 10002a50 f   rtGetInf.obj
 0001:00001a70       _rtGetMinusInf             10002a70 f   rtGetInf.obj
 0001:00001aa0       _rtGetMinusInfF            10002aa0 f   rtGetInf.obj
 0001:00001ac0       _rtGetNaN                  10002ac0 f   rtGetNaN.obj
 0001:00001af0       _rtGetNaNF                 10002af0 f   rtGetNaN.obj
 0001:000023d0       _rt_CreateLogVar           100033d0 f   rt_logging.obj
 0001:00002460       _rt_CreateLogVarWithConvert 10003460 f   rt_logging.obj
 0001:00002e30       _rt_CreateStructLogVar     10003e30 f   rt_logging.obj
 0001:00003c40       _rt_GetMxIdFromDTypeId     10004c40 f   rt_logging.obj
 0001:00003c70       _rt_GetMxIdFromDTypeIdForRSim 10004c70 f   rt_logging.obj
 0001:00006560       _rt_StartDataLogging       10007560 f   rt_logging.obj
 0001:00006a20       _rt_StartDataLoggingWithStartTime 10007a20 f   rt_logging.obj
 0001:000073a0       _rt_StopDataLogging        100083a0 f   rt_logging.obj
 0001:000073c0       _rt_StopDataLoggingImpl    100083c0 f   rt_logging.obj
 0001:000076e0       _rt_UpdateLogVar           100086e0 f   rt_logging.obj
 0001:00008ae0       _rt_UpdateStructLogVar     10009ae0 f   rt_logging.obj
 0001:00008b70       _rt_UpdateTXXFYLogVars     10009b70 f   rt_logging.obj
 0001:00008eb0       _rt_UpdateTXYLogVars       10009eb0 f   rt_logging.obj
 0001:00009110       _rt_CleanUpForStateLogWithMMI 1000a110 f   rt_logging_mmi.obj
 0001:00009220       _rt_FillStateSigInfoFromMMI 1000a220 f   rt_logging_mmi.obj
 0001:000095d0       _rtIsInf                   1000a5d0 f   rt_nonfinite.obj
 0001:00009610       _rtIsInfF                  1000a610 f   rt_nonfinite.obj
 0001:00009650       _rtIsNaN                   1000a650 f   rt_nonfinite.obj
 0001:00009670       _rtIsNaNF                  1000a670 f   rt_nonfinite.obj
 0001:00009690       _rt_InitInfAndNaN          1000a690 f   rt_nonfinite.obj
 0001:000096f0       _rtwCAPI_CountSysRan       1000a6f0 f   rtw_modelmap_utils.obj
 0001:00009790       _rtwCAPI_EncodePath        1000a790 f   rtw_modelmap_utils.obj
 0001:00009880       _rtwCAPI_FillSysRan        1000a880 f   rtw_modelmap_utils.obj
 0001:00009970       _rtwCAPI_FreeFullPaths     1000a970 f   rtw_modelmap_utils.obj
 0001:00009a00       _rtwCAPI_GetFullStateBlockPath 1000aa00 f   rtw_modelmap_utils.obj
 0001:00009bb0       _rtwCAPI_GetNumContStateRecords 1000abb0 f   rtw_modelmap_utils.obj
 0001:00009c70       _rtwCAPI_GetNumSigLogRecords 1000ac70 f   rtw_modelmap_utils.obj
 0001:00009cc0       _rtwCAPI_GetNumSigLogRecordsForRTWLogging 1000acc0 f   rtw_modelmap_utils.obj
 0001:00009d50       _rtwCAPI_GetNumStateRecords 1000ad50 f   rtw_modelmap_utils.obj
 0001:00009da0       _rtwCAPI_GetNumStateRecordsForRTWLogging 1000ada0 f   rtw_modelmap_utils.obj
 0001:00009e30       _rtwCAPI_GetSigAddrFromMap 1000ae30 f   rtw_modelmap_utils.obj
 0001:00009ef0       _rtwCAPI_GetSigLogRecordInfo 1000aef0 f   rtw_modelmap_utils.obj
 0001:0000a320       _rtwCAPI_GetStateRecordInfo 1000b320 f   rtw_modelmap_utils.obj
 0001:0000a7d0       _rtwCAPI_GetStateWidth     1000b7d0 f   rtw_modelmap_utils.obj
 0001:0000a830       _rtwCAPI_HasStates         1000b830 f   rtw_modelmap_utils.obj
 0001:0000a8a0       _rtwCAPI_UpdateFullPaths   1000b8a0 f   rtw_modelmap_utils.obj
 0001:0000aa80       _DllMain@12                1000ba80 f   xpctarget.obj
 0001:0000aa90       _SLRTSetErrorStatus        1000ba90 f   xpctarget.obj
 0001:0000aab0       _changeStepSize            1000bab0 f   xpctarget.obj
 0001:0000ab30       _getDLMVersion             1000bb30 f   xpctarget.obj
 0001:0000ab40       _getRefMdlPath             1000bb40 f   xpctarget.obj
 0001:0000abc0       _getRefMdlSignalNumber     1000bbc0 f   xpctarget.obj
 0001:0000ac70       _getrlmdlinfo              1000bc70 f   xpctarget.obj
 0001:0000ae50       _pump_test_model_ChangeStepSize 1000be50 f   xpctarget.obj
 0001:0000aec0       _updateDiscreteEvents      1000bec0 f   xpctarget.obj
 0001:0000aed0       _getNumRef                 1000bed0 f   appmappingData.obj
 0001:0000aee0       _GetPCIDeviceFull          1000bee0 f   xpcruntime:xpcimports.obj
 0001:0000af10       _ShowPCIDevice             1000bf10 f   xpcruntime:xpcimports.obj
 0001:0000b580       _xpcGetPciConfigAtSlot     1000c580 f   xpcruntime:xpcimports.obj
 0001:0000b810       _xpcInitProcs              1000c810 f   xpcruntime:xpcimports.obj
 0001:0000c370       _xpceuploadevent           1000d370 f   xpcruntime:xpcimports.obj
 0001:0000c371       __heap_alloc               1000d371 f i LIBCMT:malloc.obj
 0001:0000c3ae       _malloc                    1000d3ae f   LIBCMT:malloc.obj
 0001:0000c440       @__security_check_cookie@4 1000d440 f   LIBCMT:secchk.obj
 0001:0000c44f       ___libm_sse2_pow           1000d44f f   LIBCMT:pow_sse2.obj
 0001:0000ced0       _memset                    1000ded0 f   LIBCMT:memset.obj
 0001:0000cf60       __fpmath                   1000df60 f   LIBCMT:fpinit.obj
 0001:0000cf77       ___setfflag                1000df77 f   LIBCMT:fpinit.obj
 0001:0000cf8a       __cfltcvt_init             1000df8a f   LIBCMT:fpinit.obj
 0001:0000cfea       ___raise_securityfailure   1000dfea f   LIBCMT:gs_report.obj
 0001:0000d027       ___report_gsfailure        1000e027 f   LIBCMT:gs_report.obj
 0001:0000d120       ___report_rangecheckfailure 1000e120 f   LIBCMT:gs_report.obj
 0001:0000d12c       ___report_securityfailure  1000e12c f   LIBCMT:gs_report.obj
 0001:0000d1fa       ___report_securityfailureEx 1000e1fa f   LIBCMT:gs_report.obj
 0001:0000d30e       ___copy_path_to_wide_string 1000e30e f   LIBCMT:crt0dat.obj
 0001:0000d3be       ___crtCorExitProcess       1000e3be f   LIBCMT:crt0dat.obj
 0001:0000d3f0       ___crtExitProcess          1000e3f0 f   LIBCMT:crt0dat.obj
 0001:0000d406       ___freeCrtMemory           1000e406 f   LIBCMT:crt0dat.obj
 0001:0000d50d       __amsg_exit                1000e50d f   LIBCMT:crt0dat.obj
 0001:0000d529       __c_exit                   1000e529 f   LIBCMT:crt0dat.obj
 0001:0000d538       __cexit                    1000e538 f   LIBCMT:crt0dat.obj
 0001:0000d547       __cinit                    1000e547 f   LIBCMT:crt0dat.obj
 0001:0000d5d8       __exit                     1000e5d8 f   LIBCMT:crt0dat.obj
 0001:0000d5ec       __get_pgmptr               1000e5ec f   LIBCMT:crt0dat.obj
 0001:0000d61b       __get_wpgmptr              1000e61b f   LIBCMT:crt0dat.obj
 0001:0000d64a       __init_pointers            1000e64a f   LIBCMT:crt0dat.obj
 0001:0000d69a       __initterm_e               1000e69a f   LIBCMT:crt0dat.obj
 0001:0000d6bc       __lockexit                 1000e6bc f   LIBCMT:crt0dat.obj
 0001:0000d6c5       __unlockexit               1000e6c5 f   LIBCMT:crt0dat.obj
 0001:0000d7fd       _exit                      1000e7fd f   LIBCMT:crt0dat.obj
 0001:0000d811       _calloc                    1000e811 f   LIBCMT:calloc.obj
 0001:0000d84f       _free                      1000e84f f   LIBCMT:free.obj
 0001:0000d887       _realloc                   1000e887 f   LIBCMT:realloc.obj
 0001:0000d940       _memmove                   1000e940 f   LIBCMT:memmove.obj
 0001:0000df90       _strchr                    1000ef90 f   LIBCMT:strchr.obj
 0001:0000dffe       ___from_strstr_to_strchr   1000effe     LIBCMT:strchr.obj
 0001:0000e0c0       _strncat                   1000f0c0 f   LIBCMT:strncat.obj
 0001:0000e200       _strncpy                   1000f200 f   LIBCMT:strncpy.obj
 0001:0000e324       ___initstdio               1000f324 f   LIBCMT:_file.obj
 0001:0000e397       ___endstdio                1000f397 f   LIBCMT:_file.obj
 0001:0000e3be       ___iob_func                1000f3be f   LIBCMT:_file.obj
 0001:0000e3c4       __lock_file                1000f3c4 f   LIBCMT:_file.obj
 0001:0000e403       __lock_file2               1000f403 f   LIBCMT:_file.obj
 0001:0000e433       __unlock_file              1000f433 f   LIBCMT:_file.obj
 0001:0000e46d       __unlock_file2             1000f46d f   LIBCMT:_file.obj
 0001:0000e49a       __fclose_nolock            1000f49a f   LIBCMT:fclose.obj
 0001:0000e506       _fclose                    1000f506 f   LIBCMT:fclose.obj
 0001:0000e57d       __fsopen                   1000f57d f   LIBCMT:fopen.obj
 0001:0000e641       _fopen                     1000f641 f   LIBCMT:fopen.obj
 0001:0000e656       _fopen_s                   1000f656 f   LIBCMT:fopen.obj
 0001:0000e69b       __fprintf_l                1000f69b f   LIBCMT:fprintf.obj
 0001:0000e6b5       __fprintf_p                1000f6b5 f   LIBCMT:fprintf.obj
 0001:0000e6ce       __fprintf_p_l              1000f6ce f   LIBCMT:fprintf.obj
 0001:0000e6e8       __fprintf_s_l              1000f6e8 f   LIBCMT:fprintf.obj
 0001:0000e702       _fprintf                   1000f702 f   LIBCMT:fprintf.obj
 0001:0000e81d       _fprintf_s                 1000f81d f   LIBCMT:fprintf.obj
 0001:0000e836       __fread_nolock             1000f836 f   LIBCMT:fread.obj
 0001:0000e851       __fread_nolock_s           1000f851 f   LIBCMT:fread.obj
 0001:0000ea14       _fread                     1000fa14 f   LIBCMT:fread.obj
 0001:0000ea2f       _fread_s                   1000fa2f f   LIBCMT:fread.obj
 0001:0000eac0       __fwrite_nolock            1000fac0 f   LIBCMT:fwrite.obj
 0001:0000ec17       _fwrite                    1000fc17 f   LIBCMT:fwrite.obj
 0001:0000ec95       __get_printf_count_output  1000fc95 f   LIBCMT:printf.obj
 0001:0000ecaa       __printf_l                 1000fcaa f   LIBCMT:printf.obj
 0001:0000ecc1       __printf_p                 1000fcc1 f   LIBCMT:printf.obj
 0001:0000ecd7       __printf_p_l               1000fcd7 f   LIBCMT:printf.obj
 0001:0000ecee       __printf_s_l               1000fcee f   LIBCMT:printf.obj
 0001:0000ed05       __set_printf_count_output  1000fd05 f   LIBCMT:printf.obj
 0001:0000ed2d       _printf                    1000fd2d f   LIBCMT:printf.obj
 0001:0000edd9       _printf_s                  1000fdd9 f   LIBCMT:printf.obj
 0001:0000edef       __unlink                   1000fdef f   LIBCMT:unlink.obj
 0001:0000edf8       _remove                    1000fdf8 f   LIBCMT:unlink.obj
 0001:0000ee38       _rewind                    1000fe38 f   LIBCMT:rewind.obj
 0001:0000ef00       __scprintf                 1000ff00 f   LIBCMT:sprintf.obj
 0001:0000ef13       __scprintf_l               1000ff13 f   LIBCMT:sprintf.obj
 0001:0000ef2a       __scprintf_p               1000ff2a f   LIBCMT:sprintf.obj
 0001:0000ef3d       __scprintf_p_l             1000ff3d f   LIBCMT:sprintf.obj
 0001:0000ef54       __snprintf_s               1000ff54 f   LIBCMT:sprintf.obj
 0001:0000ef73       __snprintf_s_l             1000ff73 f   LIBCMT:sprintf.obj
 0001:0000ef93       __sprintf_l                1000ff93 f   LIBCMT:sprintf.obj
 0001:0000efad       __sprintf_p                1000ffad f   LIBCMT:sprintf.obj
 0001:0000efc9       __sprintf_p_l              1000ffc9 f   LIBCMT:sprintf.obj
 0001:0000efe6       __sprintf_s_l              1000ffe6 f   LIBCMT:sprintf.obj
 0001:0000f003       _sprintf                   10010003 f   LIBCMT:sprintf.obj
 0001:0000f085       _sprintf_s                 10010085 f   LIBCMT:sprintf.obj
 0001:0000f0a1       _ldexp                     100100a1 f   LIBCMT:ldexp.obj
 0001:0000f290       _memcpy                    10010290 f   LIBCMT:memcpy.obj
 0001:0000f8d4       ___isa_available_init      100108d4 f   LIBCMT:cpu_disp.obj
 0001:0000fa0d       __invoke_watson_if_error   10010a0d f i LIBCMT:wassert.obj
 0001:0000fa2d       __wassert                  10010a2d f   LIBCMT:wassert.obj
 0001:000100cf       __CRT_INIT@12              100110cf f   LIBCMT:dllcrt0.obj
 0001:0001023b       __DllMainCRTStartup@12     1001123b f   LIBCMT:dllcrt0.obj
 0001:0001036c       ___DllXcptFilter           1001136c f   LIBCMT:dllcrt0.obj
 0001:00010391       ?_query_new_handler@@YAP6AHI@ZXZ 10011391 f   LIBCMT:handler.obj
 0001:0001039e       ?_set_new_handler@@YAP6AHI@ZH@Z 1001139e f   LIBCMT:handler.obj
 0001:000103a7       ?_set_new_handler@@YAP6AHI@ZP6AHI@Z@Z 100113a7 f   LIBCMT:handler.obj
 0001:000103dc       __callnewh                 100113dc f   LIBCMT:handler.obj
 0001:00010402       __initp_heap_handler       10011402 f   LIBCMT:handler.obj
 0001:0001040f       __FF_MSGBANNER             1001140f f   LIBCMT:crt0msg.obj
 0001:00010448       __GET_RTERRMSG             10011448 f   LIBCMT:crt0msg.obj
 0001:0001046c       __NMSG_WRITE               1001146c f   LIBCMT:crt0msg.obj
 0001:00010627       ___doserrno                10011627 f   LIBCMT:dosmap.obj
 0001:0001063a       __dosmaperr                1001163a f   LIBCMT:dosmap.obj
 0001:0001065b       __errno                    1001165b f   LIBCMT:dosmap.obj
 0001:0001066e       __get_doserrno             1001166e f   LIBCMT:dosmap.obj
 0001:00010691       __get_errno                10011691 f   LIBCMT:dosmap.obj
 0001:000106b4       __get_errno_from_oserr     100116b4 f   LIBCMT:dosmap.obj
 0001:000106f5       __set_doserrno             100116f5 f   LIBCMT:dosmap.obj
 0001:00010714       __set_errno                10011714 f   LIBCMT:dosmap.obj
 0001:00010733       __get_heap_handle          10011733 f   LIBCMT:heapinit.obj
 0001:00010739       __heap_init                10011739 f   LIBCMT:heapinit.obj
 0001:0001074e       __heap_term                1001174e f   LIBCMT:heapinit.obj
 0001:00010756       __VEC_memset               10011756 f   LIBCMT:p4_memset.obj
 0001:0001081e       ??0_LocaleUpdate@@QAE@PAUlocaleinfo_struct@@@Z 1001181e f i LIBCMT:cvt.obj
 0001:000108a6       ??1_LocaleUpdate@@QAE@XZ   100118a6 f i LIBCMT:cvt.obj
 0001:000108b4       ?GetLocaleT@_LocaleUpdate@@QAEPAUlocaleinfo_struct@@XZ 100118b4 f i LIBCMT:cvt.obj
 0001:000108b7       ?strrchr@@YAPADPADH@Z      100118b7 f i LIBCMT:cvt.obj
 0001:000108c0       __cfltcvt                  100118c0 f   LIBCMT:cvt.obj
 0001:000108e1       __cfltcvt_l                100118e1 f   LIBCMT:cvt.obj
 0001:00010967       __cftoa                    10011967 f   LIBCMT:cvt.obj
 0001:00010985       __cftoa_l                  10011985 f   LIBCMT:cvt.obj
 0001:00010cdf       __cftoe                    10011cdf f   LIBCMT:cvt.obj
 0001:00010e4c       __cftoe_l                  10011e4c f   LIBCMT:cvt.obj
 0001:00010f18       __cftof                    10011f18 f   LIBCMT:cvt.obj
 0001:0001101d       __cftof_l                  1001201d f   LIBCMT:cvt.obj
 0001:000110dc       __cftog                    100120dc f   LIBCMT:cvt.obj
 0001:000110fa       __cftog_l                  100120fa f   LIBCMT:cvt.obj
 0001:000111f7       __cropzeros                100121f7 f   LIBCMT:cvt.obj
 0001:00011208       __cropzeros_l              10012208 f   LIBCMT:cvt.obj
 0001:00011286       __fassign                  10012286 f   LIBCMT:cvt.obj
 0001:0001129e       __fassign_l                1001229e f   LIBCMT:cvt.obj
 0001:000112de       __forcdecpt                100122de f   LIBCMT:cvt.obj
 0001:000112ef       __forcdecpt_l              100122ef f   LIBCMT:cvt.obj
 0001:00011361       __positive                 10012361 f   LIBCMT:cvt.obj
 0001:000113a3       __setdefaultprecision      100123a3 f   LIBCMT:fp8.obj
 0001:000113ca       __initp_misc_cfltcvt_tab   100123ca f   LIBCMT:cmiscdat.obj
 0001:000113e9       __crt_debugger_hook        100123e9 f   LIBCMT:dbghook.obj
 0001:0001142a       ___crtFlsAlloc             1001242a f   LIBCMT:winapisupp.obj
 0001:00011438       ___crtFlsFree              10012438 f   LIBCMT:winapisupp.obj
 0001:00011446       ___crtFlsGetValue          10012446 f   LIBCMT:winapisupp.obj
 0001:00011454       ___crtFlsSetValue          10012454 f   LIBCMT:winapisupp.obj
 0001:00011465       ___crtGetShowWindowMode    10012465 f   LIBCMT:winapisupp.obj
 0001:00011486       ___crtIsPackagedApp        10012486 f   LIBCMT:winapisupp.obj
 0001:000114d2       ___crtSetUnhandledExceptionFilter 100124d2 f   LIBCMT:winapisupp.obj
 0001:000114e0       ___crtTerminateProcess     100124e0 f   LIBCMT:winapisupp.obj
 0001:000114f5       ___crtUnhandledException   100124f5 f   LIBCMT:winapisupp.obj
 0001:0001150b       ?_invalid_parameter@@YAXPBG00II@Z 1001250b f   LIBCMT:invarg.obj
 0001:00011510       ?_invoke_watson@@YAXPBG00II@Z 10012510 f   LIBCMT:invarg.obj
 0001:00011528       __call_reportfault         10012528 f   LIBCMT:invarg.obj
 0001:0001164b       __get_invalid_parameter_handler 1001264b f   LIBCMT:invarg.obj
 0001:00011658       __initp_misc_invarg        10012658 f   LIBCMT:invarg.obj
 0001:00011665       __invalid_parameter        10012665 f   LIBCMT:invarg.obj
 0001:00011690       __invalid_parameter_noinfo 10012690 f   LIBCMT:invarg.obj
 0001:000116a0       __invalid_parameter_noinfo_noreturn 100126a0 f   LIBCMT:invarg.obj
 0001:000116bb       __invoke_watson            100126bb f   LIBCMT:invarg.obj
 0001:000116e6       __set_invalid_parameter_handler 100126e6 f   LIBCMT:invarg.obj
 0001:0001170b       __RTC_Initialize           1001270b f   LIBCMT:initsect.obj
 0001:0001172b       __RTC_Terminate            1001272b f   LIBCMT:initsect.obj
 0001:0001174b       __lock                     1001274b f   LIBCMT:mlock.obj
 0001:0001177f       __lockerr_exit             1001277f f   LIBCMT:mlock.obj
 0001:0001179f       __mtdeletelocks            1001279f f   LIBCMT:mlock.obj
 0001:000117f3       __mtinitlocknum            100127f3 f   LIBCMT:mlock.obj
 0001:0001189a       __mtinitlocks              1001289a f   LIBCMT:mlock.obj
 0001:000118cf       __unlock                   100128cf f   LIBCMT:mlock.obj
 0001:000118f0       __FindPESection            100128f0 f   LIBCMT:pesect.obj
 0001:00011940       __IsNonwritableInCurrentImage 10012940 f   LIBCMT:pesect.obj
 0001:00011a00       __ValidateImageBase        10012a00 f   LIBCMT:pesect.obj
 0001:00011a31       ___onexitinit              10012a31 f   LIBCMT:onexit.obj
 0001:00011a60       __onexit                   10012a60 f   LIBCMT:onexit.obj
 0001:00011b56       _atexit                    10012b56 f   LIBCMT:onexit.obj
 0001:00011b6b       __calloc_crt               10012b6b f   LIBCMT:crtheap.obj
 0001:00011bb5       __malloc_crt               10012bb5 f   LIBCMT:crtheap.obj
 0001:00011bfe       __realloc_crt              10012bfe f   LIBCMT:crtheap.obj
 0001:00011c4a       __recalloc_crt             10012c4a f   LIBCMT:crtheap.obj
 0001:00011c9a       __set_malloc_crt_max_wait  10012c9a f   LIBCMT:crtheap.obj
 0001:00011cad       _wait_a_bit                10012cad f i LIBCMT:crtheap.obj
 0001:00011cd1       ?_inconsistency@@YAXXZ     10012cd1 f   LIBCMT:hooks.obj
 0001:00011d09       ?terminate@@YAXXZ          10012d09 f   LIBCMT:hooks.obj
 0001:00011d3d       ?unexpected@@YAXXZ         10012d3d f   LIBCMT:hooks.obj
 0001:00011d50       __initp_eh_hooks           10012d50 f   LIBCMT:hooks.obj
 0001:00011d61       ___getlocaleinfo           10012d61 f   LIBCMT:inithelp.obj
 0001:00011f38       __initp_misc_purevirt      10012f38 f   LIBCMT:inithelp.obj
 0001:00011f45       __initp_misc_rand_s        10012f45 f   LIBCMT:rand_s.obj
 0001:00011f52       _rand_s                    10012f52 f   LIBCMT:rand_s.obj
 0001:00012060       ___fpecode                 10013060 f   LIBCMT:winsig.obj
 0001:00012069       ___get_sigabrt             10013069 f   LIBCMT:winsig.obj
 0001:00012076       ___pxcptinfoptrs           10013076 f   LIBCMT:winsig.obj
 0001:0001207f       __initp_misc_winsig        1001307f f   LIBCMT:winsig.obj
 0001:00012134       _raise                     10013134 f   LIBCMT:winsig.obj
 0001:00012325       _signal                    10013325 f   LIBCMT:winsig.obj
 0001:00012580       __SEH_prolog4              10013580 f   LIBCMT:sehprolg4.obj
 0001:000125c5       __SEH_epilog4              100135c5 f   LIBCMT:sehprolg4.obj
 0001:00012620       __except_handler4          10013620 f   LIBCMT:chandler4.obj
 0001:000127b5       ___initmbctable            100137b5 f   LIBCMT:mbctype.obj
 0001:00012a70       ___updatetmbcinfo          10013a70 f   LIBCMT:mbctype.obj
 0001:00012b15       __getmbcp                  10013b15 f   LIBCMT:mbctype.obj
 0001:00012b44       __setmbcp                  10013b44 f   LIBCMT:mbctype.obj
 0001:00012cf2       __setmbcp_nolock           10013cf2 f   LIBCMT:mbctype.obj
 0001:00012ee7       __ftbuf                    10013ee7 f   LIBCMT:_sftbuf.obj
 0001:00012f18       __stbuf                    10013f18 f   LIBCMT:_sftbuf.obj
 0001:00012fbe       __calloc_impl              10013fbe f   LIBCMT:calloc_impl.obj
 0001:00013038       __fcloseall                10014038 f   LIBCMT:closeall.obj
 0001:000130d5       __fflush_nolock            100140d5 f   LIBCMT:fflush.obj
 0001:0001311b       __flush                    1001411b f   LIBCMT:fflush.obj
 0001:0001317f       __flushall                 1001417f f   LIBCMT:fflush.obj
 0001:00013188       _fflush                    10014188 f   LIBCMT:fflush.obj
 0001:000132c1       __fileno                   100142c1 f   LIBCMT:fileno.obj
 0001:000132e5       __close                    100142e5 f   LIBCMT:close.obj
 0001:000133bc       __close_nolock             100143bc f   LIBCMT:close.obj
 0001:00013464       __freebuf                  10014464 f   LIBCMT:_freebuf.obj
 0001:00013494       __getstream                10014494 f   LIBCMT:stream.obj
 0001:000135ac       __openfile                 100145ac f   LIBCMT:_open.obj
 0001:00013830       __local_unwind4            10014830 f   LIBCMT:exsup4.obj
 0001:00013906       __seh_longjmp_unwind4@4    10014906 f   LIBCMT:exsup4.obj
 0001:00013922       @_EH4_CallFilterFunc@8     10014922 f   LIBCMT:exsup4.obj
 0001:00013939       @_EH4_TransferToHandler@8  10014939 f   LIBCMT:exsup4.obj
 0001:00013952       @_EH4_GlobalUnwind2@8      10014952 f   LIBCMT:exsup4.obj
 0001:0001396b       @_EH4_LocalUnwind@16       1001496b f   LIBCMT:exsup4.obj
 0001:00013982       __vfprintf_l               10014982 f   LIBCMT:vfprintf.obj
 0001:000139a0       __vfprintf_p               100149a0 f   LIBCMT:vfprintf.obj
 0001:000139bd       __vfprintf_p_l             100149bd f   LIBCMT:vfprintf.obj
 0001:000139db       __vfprintf_s_l             100149db f   LIBCMT:vfprintf.obj
 0001:000139f9       _vfprintf                  100149f9 f   LIBCMT:vfprintf.obj
 0001:00013a16       _vfprintf_helper           10014a16 f   LIBCMT:vfprintf.obj
 0001:00013b30       _vfprintf_s                10014b30 f   LIBCMT:vfprintf.obj
 0001:00013b4d       __output_l                 10014b4d f   LIBCMT:output.obj
 0001:000146f1       _get_int64_arg             100156f1 f i LIBCMT:output.obj
 0001:00014704       _get_int_arg               10015704 f i LIBCMT:output.obj
 0001:00014714       _get_short_arg             10015714 f i LIBCMT:output.obj
 0001:0001480f       __ioinit                   1001580f f   LIBCMT:ioinit.obj
 0001:0001482b       __ioinit0                  1001582b f   LIBCMT:ioinit.obj
 0001:0001484a       __ioinitCallback@12        1001584a f   LIBCMT:ioinit.obj
 0001:00014b17       __ioterm                   10015b17 f   LIBCMT:ioinit.obj
 0001:00014b69       __filbuf                   10015b69 f   LIBCMT:_filbuf.obj
 0001:00014c97       _memcpy_s                  10015c97 f   LIBCMT:memcpy_s.obj
 0001:00014d16       __read                     10015d16 f   LIBCMT:read.obj
 0001:00014e2b       __read_nolock              10015e2b f   LIBCMT:read.obj
 0001:000155c5       __flsbuf                   100165c5 f   LIBCMT:_flsbuf.obj
 0001:00015721       __write                    10016721 f   LIBCMT:write.obj
 0001:00015810       __write_nolock             10016810 f   LIBCMT:write.obj
 0001:0001608c       __vprintf_l                1001708c f   LIBCMT:vprintf.obj
 0001:000160a7       __vprintf_p                100170a7 f   LIBCMT:vprintf.obj
 0001:000160c1       __vprintf_p_l              100170c1 f   LIBCMT:vprintf.obj
 0001:000160dc       __vprintf_s_l              100170dc f   LIBCMT:vprintf.obj
 0001:000160f7       _vprintf                   100170f7 f   LIBCMT:vprintf.obj
 0001:00016111       _vprintf_helper            10017111 f   LIBCMT:vprintf.obj
 0001:0001619a       _vprintf_s                 1001719a f   LIBCMT:vprintf.obj
 0001:000161b4       __wremove                  100171b4 f   LIBCMT:wunlink.obj
 0001:000161e2       __wunlink                  100171e2 f   LIBCMT:wunlink.obj
 0001:000161eb       __lseek                    100171eb f   LIBCMT:lseek.obj
 0001:000162da       __lseek_nolock             100172da f   LIBCMT:lseek.obj
 0001:0001634c       __vscprintf                1001734c f   LIBCMT:vsprintf.obj
 0001:00016366       __vscprintf_helper         10017366 f   LIBCMT:vsprintf.obj
 0001:000163c0       __vscprintf_l              100173c0 f   LIBCMT:vsprintf.obj
 0001:000163db       __vscprintf_p              100173db f   LIBCMT:vsprintf.obj
 0001:000163f5       __vscprintf_p_l            100173f5 f   LIBCMT:vsprintf.obj
 0001:00016410       __vsprintf_l               10017410 f   LIBCMT:vsprintf.obj
 0001:00016492       _vsprintf                  10017492 f   LIBCMT:vsprintf.obj
 0001:000164aa       __vsnprintf_c              100174aa f   LIBCMT:vsnprnc.obj
 0001:000164d1       __vsnprintf_c_l            100174d1 f   LIBCMT:vsnprnc.obj
 0001:000164f9       __vsnprintf_helper         100174f9 f   LIBCMT:vsnprnc.obj
 0001:000165c1       __vsnprintf_s              100175c1 f   LIBCMT:vsnprnc.obj
 0001:000165df       __vsnprintf_s_l            100175df f   LIBCMT:vsnprnc.obj
 0001:000166da       __vsprintf_p               100176da f   LIBCMT:vsnprnc.obj
 0001:00016701       __vsprintf_p_l             10017701 f   LIBCMT:vsnprnc.obj
 0001:00016729       __vsprintf_s_l             10017729 f   LIBCMT:vsnprnc.obj
 0001:0001679e       _vsprintf_s                1001779e f   LIBCMT:vsnprnc.obj
 0001:000167b9       __chgsign                  100177b9 f   LIBCMT:ieeemisc.obj
 0001:000167e4       __copysign                 100177e4 f   LIBCMT:ieeemisc.obj
 0001:0001680a       __finite                   1001780a f   LIBCMT:ieeemisc.obj
 0001:00016822       __fpclass                  10017822 f   LIBCMT:ieeemisc.obj
 0001:000168be       __isnan                    100178be f   LIBCMT:ieeemisc.obj
 0001:000168f2       __logb                     100178f2 f   LIBCMT:ieeemisc.obj
 0001:000169cf       __nextafter                100179cf f   LIBCMT:ieeemisc.obj
 0001:00016c6d       __scalb                    10017c6d f   LIBCMT:ieeemisc.obj
 0001:00016c85       __add_exp                  10017c85 f   LIBCMT:util.obj
 0001:00016cb2       __decomp                   10017cb2 f   LIBCMT:util.obj
 0001:00016d84       __get_exp                  10017d84 f   LIBCMT:util.obj
 0001:00016d9b       __set_bexp                 10017d9b f   LIBCMT:util.obj
 0001:00016dc0       __set_exp                  10017dc0 f   LIBCMT:util.obj
 0001:00016deb       __sptype                   10017deb f   LIBCMT:util.obj
 0001:00016e47       __errcode                  10017e47 f   LIBCMT:fpexcept.obj
 0001:00016e79       __except1                  10017e79 f   LIBCMT:fpexcept.obj
 0001:00016f41       __except2                  10017f41 f   LIBCMT:fpexcept.obj
 0001:00017041       __handle_exc               10018041 f   LIBCMT:fpexcept.obj
 0001:0001721d       __handle_qnan1             1001821d f   LIBCMT:fpexcept.obj
 0001:0001726d       __handle_qnan2             1001826d f   LIBCMT:fpexcept.obj
 0001:000172cd       __raise_exc                100182cd f   LIBCMT:fpexcept.obj
 0001:000172ee       __raise_exc_ex             100182ee f   LIBCMT:fpexcept.obj
 0001:000175d3       __raise_excf               100185d3 f   LIBCMT:fpexcept.obj
 0001:000175f4       __set_errno_from_matherr   100185f4 f   LIBCMT:fpexcept.obj
 0001:00017621       __umatherr                 10018621 f   LIBCMT:fpexcept.obj
 0001:000176bf       ___clrfp_sse2              100186bf f   LIBCMT:fpctrl.obj
 0001:000176e0       ___ctrlfp_sse2             100186e0 f   LIBCMT:fpctrl.obj
 0001:00017719       ___fclrf_sse2              10018719 f   LIBCMT:fpctrl.obj
 0001:00017734       ___get_fpsr_sse2           10018734 f   LIBCMT:fpctrl.obj
 0001:0001774e       ___set_fpsr_sse2           1001874e f   LIBCMT:fpctrl.obj
 0001:000177c4       ___set_statfp_sse2         100187c4 f   LIBCMT:fpctrl.obj
 0001:000177dd       ___statfp_sse2             100187dd f   LIBCMT:fpctrl.obj
 0001:000177f2       __clrfp                    100187f2 f   LIBCMT:fpctrl.obj
 0001:00017801       __ctrlfp                   10018801 f   LIBCMT:fpctrl.obj
 0001:0001782a       __set_statfp               1001882a f   LIBCMT:fpctrl.obj
 0001:00017880       __statfp                   10018880 f   LIBCMT:fpctrl.obj
 0001:0001788e       _wcscat_s                  1001888e f   LIBCMT:wcscat_s.obj
 0001:000178fa       _wcscpy_s                  100188fa f   LIBCMT:wcscpy_s.obj
 0001:00017956       _wcslen                    10018956 f   LIBCMT:wcslen.obj
 0001:0001796f       _wcsncat_s                 1001896f f   LIBCMT:wcsncat_s.obj
 0001:00017a3d       __set_abort_behavior       10018a3d f   LIBCMT:abort.obj
 0001:00017a5c       _abort                     10018a5c f   LIBCMT:abort.obj
 0001:00017a9f       ___set_app_type            10018a9f f   LIBCMT:errmode.obj
 0001:00017aac       __set_error_mode           10018aac f   LIBCMT:errmode.obj
 0001:00017c06       __i64tow_s                 10018c06 f   LIBCMT:xtows.obj
 0001:00017c37       __itow_s                   10018c37 f   LIBCMT:xtows.obj
 0001:00017c60       __ltow_s                   10018c60 f   LIBCMT:xtows.obj
 0001:00017c8a       __ui64tow_s                10018c8a f   LIBCMT:xtows.obj
 0001:00017ca5       __ultow_s                  10018ca5 f   LIBCMT:xtows.obj
 0001:00017db0       _setvbuf                   10018db0 f   LIBCMT:setvbuf.obj
 0001:00017eb6       __fwprintf_l               10018eb6 f   LIBCMT:fwprintf.obj
 0001:00017ed0       __fwprintf_p               10018ed0 f   LIBCMT:fwprintf.obj
 0001:00017ee9       __fwprintf_p_l             10018ee9 f   LIBCMT:fwprintf.obj
 0001:00017f03       __fwprintf_s_l             10018f03 f   LIBCMT:fwprintf.obj
 0001:00017f1d       _fwprintf                  10018f1d f   LIBCMT:fwprintf.obj
 0001:00017fae       _fwprintf_s                10018fae f   LIBCMT:fwprintf.obj
 0001:00017fc7       __vsnwprintf_s             10018fc7 f   LIBCMT:vswprnc.obj
 0001:00017fe5       __vsnwprintf_s_l           10018fe5 f   LIBCMT:vswprnc.obj
 0001:000180e4       __vswprintf_c              100190e4 f   LIBCMT:vswprnc.obj
 0001:0001810b       __vswprintf_c_l            1001910b f   LIBCMT:vswprnc.obj
 0001:00018133       __vswprintf_helper         10019133 f   LIBCMT:vswprnc.obj
 0001:0001822c       __vswprintf_p              1001922c f   LIBCMT:vswprnc.obj
 0001:00018253       __vswprintf_p_l            10019253 f   LIBCMT:vswprnc.obj
 0001:0001827b       __vswprintf_s_l            1001927b f   LIBCMT:vswprnc.obj
 0001:000182f2       _vswprintf_s               100192f2 f   LIBCMT:vswprnc.obj
 0001:0001830d       ___crtMessageBoxW          1001930d f   LIBCMT:crtmboxw.obj
 0001:000184ef       ___crtMessageBoxWaitThreadW@4 100194ef f   LIBCMT:crtmboxw.obj
 0001:0001850d       __XcptFilter               1001950d f   LIBCMT:winxfltr.obj
 0001:00018668       ___CppXcptFilter           10019668 f   LIBCMT:winxfltr.obj
 0001:000186ba       ___get_flsindex            100196ba f   LIBCMT:tidtable.obj
 0001:000186c0       ___threadhandle            100196c0 f   LIBCMT:tidtable.obj
 0001:000186c6       ___threadid                100196c6 f   LIBCMT:tidtable.obj
 0001:000186cc       __freefls@4                100196cc f   LIBCMT:tidtable.obj
 0001:00018803       __freeptd                  10019803 f   LIBCMT:tidtable.obj
 0001:00018839       __getptd                   10019839 f   LIBCMT:tidtable.obj
 0001:00018851       __getptd_noexit            10019851 f   LIBCMT:tidtable.obj
 0001:000188c0       __initptd                  100198c0 f   LIBCMT:tidtable.obj
 0001:0001896c       __mtinit                   1001996c f   LIBCMT:tidtable.obj
 0001:000189e2       __mtterm                   100199e2 f   LIBCMT:tidtable.obj
 0001:000189ff       __set_pgmptr               100199ff f i LIBCMT:stdargv.obj
 0001:00018a0c       __setargv                  10019a0c f   LIBCMT:stdargv.obj
 0001:00018c39       __setenvp                  10019c39 f   LIBCMT:stdenvp.obj
 0001:00018d1a       ___security_init_cookie    10019d1a f   LIBCMT:gs_support.obj
 0001:00018db4       ___crtGetEnvironmentStringsA 10019db4 f   LIBCMT:a_env.obj
 0001:00018e40       _strlen                    10019e40 f   LIBCMT:strlen.obj
 0001:00018ecb       _wcsncpy_s                 10019ecb f   LIBCMT:wcsncpy_s.obj
 0001:00018f89       ___addlocaleref            10019f89 f   LIBCMT:localref.obj
 0001:00019019       ___freetlocinfo            1001a019 f   LIBCMT:localref.obj
 0001:00019173       ___removelocaleref         1001a173 f   LIBCMT:localref.obj
 0001:0001920e       ___updatetlocinfo          1001a20e f   LIBCMT:localref.obj
 0001:0001928a       __updatetlocinfoEx_nolock  1001a28a f   LIBCMT:localref.obj
 0001:000192d5       ___isascii                 1001a2d5 f i LIBCMT:_ctype.obj
 0001:000192e5       ___iscsym                  1001a2e5 f i LIBCMT:_ctype.obj
 0001:00019305       ___iscsymf                 1001a305 f i LIBCMT:_ctype.obj
 0001:00019322       ___toascii                 1001a322 f i LIBCMT:_ctype.obj
 0001:0001932d       __isalnum_l                1001a32d f i LIBCMT:_ctype.obj
 0001:00019383       __isalpha_l                1001a383 f i LIBCMT:_ctype.obj
 0001:000193d9       __iscntrl_l                1001a3d9 f i LIBCMT:_ctype.obj
 0001:00019429       __iscsym_l                 1001a429 f i LIBCMT:_ctype.obj
 0001:0001944a       __iscsymf_l                1001a44a f i LIBCMT:_ctype.obj
 0001:0001946b       __isdigit_l                1001a46b f i LIBCMT:_ctype.obj
 0001:000194bb       __isgraph_l                1001a4bb f i LIBCMT:_ctype.obj
 0001:00019511       __islower_l                1001a511 f i LIBCMT:_ctype.obj
 0001:00019561       __isprint_l                1001a561 f i LIBCMT:_ctype.obj
 0001:000195b7       __ispunct_l                1001a5b7 f i LIBCMT:_ctype.obj
 0001:00019607       __isspace_l                1001a607 f i LIBCMT:_ctype.obj
 0001:00019657       __isupper_l                1001a657 f i LIBCMT:_ctype.obj
 0001:000196a7       __isxdigit_l               1001a6a7 f i LIBCMT:_ctype.obj
 0001:000196fd       _isalnum                   1001a6fd f i LIBCMT:_ctype.obj
 0001:0001972a       _isalpha                   1001a72a f i LIBCMT:_ctype.obj
 0001:00019757       _iscntrl                   1001a757 f i LIBCMT:_ctype.obj
 0001:00019782       _isdigit                   1001a782 f i LIBCMT:_ctype.obj
 0001:000197ad       _isgraph                   1001a7ad f i LIBCMT:_ctype.obj
 0001:000197da       _islower                   1001a7da f i LIBCMT:_ctype.obj
 0001:00019805       _isprint                   1001a805 f i LIBCMT:_ctype.obj
 0001:00019832       _ispunct                   1001a832 f i LIBCMT:_ctype.obj
 0001:0001985d       _isspace                   1001a85d f i LIBCMT:_ctype.obj
 0001:00019888       _isupper                   1001a888 f i LIBCMT:_ctype.obj
 0001:000198b3       _isxdigit                  1001a8b3 f i LIBCMT:_ctype.obj
 0001:000198e0       __tolower                  1001a8e0 f   LIBCMT:tolower.obj
 0001:000198eb       __tolower_l                1001a8eb f   LIBCMT:tolower.obj
 0001:00019a2c       _tolower                   1001aa2c f   LIBCMT:tolower.obj
 0001:00019a58       _strcpy_s                  1001aa58 f   LIBCMT:strcpy_s.obj
 0001:00019ab0       _strrchr                   1001aab0 f   LIBCMT:strrchr.obj
 0001:00019be7       __fptostr                  1001abe7 f   LIBCMT:_fptostr.obj
 0001:00019c97       __atodbl                   1001ac97 f   LIBCMT:atodbl.obj
 0001:00019cac       __atodbl_l                 1001acac f   LIBCMT:atodbl.obj
 0001:00019d38       __atoflt                   1001ad38 f   LIBCMT:atodbl.obj
 0001:00019d4d       __atoflt_l                 1001ad4d f   LIBCMT:atodbl.obj
 0001:00019dd9       __atoldbl                  1001add9 f   LIBCMT:atodbl.obj
 0001:00019dee       __atoldbl_l                1001adee f   LIBCMT:atodbl.obj
 0001:00019e7b       ___dtold                   1001ae7b f   LIBCMT:cfout.obj
 0001:00019f41       __fltout2                  1001af41 f   LIBCMT:cfout.obj
 0001:00019fd0       __alldvrm                  1001afd0 f   LIBCMT:lldvrm.obj
 0001:0001a0b0       __aullshr                  1001b0b0 f   LIBCMT:ullshr.obj
 0001:0001a0cf       __get_output_format        1001b0cf f   LIBCMT:outputformat.obj
 0001:0001a0d5       __set_output_format        1001b0d5 f   LIBCMT:outputformat.obj
 0001:0001a107       __controlfp_s              1001b107 f   LIBCMT:contrlfp.obj
 0001:0001a164       __fptrap                   1001b164 f   LIBCMT:crt0fp.obj
 0001:0001a16d       __msize                    1001b16d f   LIBCMT:msize.obj
 0001:0001a19e       __recalloc                 1001b19e f   LIBCMT:recalloc.obj
 0001:0001a207       _strncpy_s                 1001b207 f   LIBCMT:strncpy_s.obj
 0001:0001a383       __MarkAllocaS              1001b383 f i LIBCMT:a_loc.obj
 0001:0001a397       ___crtGetLocaleInfoA       1001b397 f   LIBCMT:a_loc.obj
 0001:0001a3cf       __freea                    1001b3cf f i LIBCMT:a_loc.obj
 0001:0001a3ed       ___crtCompareStringEx      1001b3ed f   LIBCMT:winapinls.obj
 0001:0001a40f       ___crtEnumSystemLocalesEx  1001b40f f   LIBCMT:winapinls.obj
 0001:0001a425       ___crtGetDateFormatEx      1001b425 f   LIBCMT:winapinls.obj
 0001:0001a444       ___crtGetLocaleInfoEx      1001b444 f   LIBCMT:winapinls.obj
 0001:0001a45b       ___crtGetTimeFormatEx      1001b45b f   LIBCMT:winapinls.obj
 0001:0001a478       ___crtGetUserDefaultLocaleName 1001b478 f   LIBCMT:winapinls.obj
 0001:0001a489       ___crtIsValidLocaleName    1001b489 f   LIBCMT:winapinls.obj
 0001:0001a497       ___crtLCMapStringEx        1001b497 f   LIBCMT:winapinls.obj
 0001:0001a6c2       ___crtLCMapStringA         1001b6c2 f   LIBCMT:a_map.obj
 0001:0001a7f2       ___crtGetStringTypeA       1001b7f2 f   LIBCMT:a_str.obj
 0001:0001a830       __isatty                   1001b830 f   LIBCMT:isatty.obj
 0001:0001a894       __commit                   1001b894 f   LIBCMT:commit.obj
 0001:0001a98b       ___lock_fhandle            1001b98b f   LIBCMT:osfinfo.obj
 0001:0001aa17       __alloc_osfhnd             1001ba17 f   LIBCMT:osfinfo.obj
 0001:0001abc6       __free_osfhnd              1001bbc6 f   LIBCMT:osfinfo.obj
 0001:0001ac4c       __get_osfhandle            1001bc4c f   LIBCMT:osfinfo.obj
 0001:0001acbe       __open_osfhandle           1001bcbe f   LIBCMT:osfinfo.obj
 0001:0001add4       __set_osfhnd               1001bdd4 f   LIBCMT:osfinfo.obj
 0001:0001ae56       __unlock_fhandle           1001be56 f   LIBCMT:osfinfo.obj
 0001:0001ae7c       __open                     1001be7c f   LIBCMT:open.obj
 0001:0001af29       __sopen                    1001bf29 f   LIBCMT:open.obj
 0001:0001af5a       __sopen_helper             1001bf5a f   LIBCMT:open.obj
 0001:0001b021       __sopen_nolock             1001c021 f   LIBCMT:open.obj
 0001:0001b06d       __sopen_s                  1001c06d f   LIBCMT:open.obj
 0001:0001b08b       __mbsnbcmp                 1001c08b f   LIBCMT:mbsnbcmp.obj
 0001:0001b0a3       __mbsnbcmp_l               1001c0a3 f   LIBCMT:mbsnbcmp.obj
 0001:0001b1b8       __mbsnbicmp                1001c1b8 f   LIBCMT:mbsnbicm.obj
 0001:0001b1d0       __mbsnbicmp_l              1001c1d0 f   LIBCMT:mbsnbicm.obj
 0001:0001b390       __global_unwind2           1001c390 f   LIBCMT:exsup.obj
 0001:0001b3f5       __local_unwind2            1001c3f5 f   LIBCMT:exsup.obj
 0001:0001b479       __abnormal_termination     1001c479 f   LIBCMT:exsup.obj
 0001:0001b49c       __NLG_Notify1              1001c49c f   LIBCMT:exsup.obj
 0001:0001b4a5       __NLG_Notify               1001c4a5 f   LIBCMT:exsup.obj
 0001:0001b4bc       __NLG_Dispatch2            1001c4bc     LIBCMT:exsup.obj
 0001:0001b4bc       __NLG_Dispatch             1001c4bc     LIBCMT:exsup.obj
 0001:0001b4c4       __NLG_Call                 1001c4c4 f   LIBCMT:exsup.obj
 0001:0001b4c6       __NLG_Return2              1001c4c6     LIBCMT:exsup.obj
 0001:0001b4c7       __output_s_l               1001c4c7 f   LIBCMT:outputs.obj
 0001:0001c16d       __output_p_l               1001d16d f   LIBCMT:outputp.obj
 0001:0001d4e1       __validate_param_reuseA    1001e4e1 f   LIBCMT:outputp.obj
 0001:0001d617       _get_crtdouble_arg         1001e617 f i LIBCMT:outputp.obj
 0001:0001d714       ___iswcsym                 1001e714 f i LIBCMT:_wctype.obj
 0001:0001d738       ___iswcsymf                1001e738 f i LIBCMT:_wctype.obj
 0001:0001d75c       __isleadbyte_l             1001e75c f i LIBCMT:_wctype.obj
 0001:0001d792       __iswalnum_l               1001e792 f i LIBCMT:_wctype.obj
 0001:0001d7a6       __iswalpha_l               1001e7a6 f i LIBCMT:_wctype.obj
 0001:0001d7ba       __iswcntrl_l               1001e7ba f i LIBCMT:_wctype.obj
 0001:0001d7cb       __iswcsym_l                1001e7cb f i LIBCMT:_wctype.obj
 0001:0001d7ef       __iswcsymf_l               1001e7ef f i LIBCMT:_wctype.obj
 0001:0001d813       __iswdigit_l               1001e813 f i LIBCMT:_wctype.obj
 0001:0001d824       __iswgraph_l               1001e824 f i LIBCMT:_wctype.obj
 0001:0001d838       __iswlower_l               1001e838 f i LIBCMT:_wctype.obj
 0001:0001d849       __iswprint_l               1001e849 f i LIBCMT:_wctype.obj
 0001:0001d85d       __iswpunct_l               1001e85d f i LIBCMT:_wctype.obj
 0001:0001d86e       __iswspace_l               1001e86e f i LIBCMT:_wctype.obj
 0001:0001d87f       __iswupper_l               1001e87f f i LIBCMT:_wctype.obj
 0001:0001d890       __iswxdigit_l              1001e890 f i LIBCMT:_wctype.obj
 0001:0001d8a4       _isleadbyte                1001e8a4 f i LIBCMT:_wctype.obj
 0001:0001d8b5       _iswalnum                  1001e8b5 f i LIBCMT:_wctype.obj
 0001:0001d8c9       _iswalpha                  1001e8c9 f i LIBCMT:_wctype.obj
 0001:0001d8dd       _iswascii                  1001e8dd f i LIBCMT:_wctype.obj
 0001:0001d8ef       _iswcntrl                  1001e8ef f i LIBCMT:_wctype.obj
 0001:0001d900       _iswdigit                  1001e900 f i LIBCMT:_wctype.obj
 0001:0001d911       _iswgraph                  1001e911 f i LIBCMT:_wctype.obj
 0001:0001d925       _iswlower                  1001e925 f i LIBCMT:_wctype.obj
 0001:0001d936       _iswprint                  1001e936 f i LIBCMT:_wctype.obj
 0001:0001d94a       _iswpunct                  1001e94a f i LIBCMT:_wctype.obj
 0001:0001d95b       _iswspace                  1001e95b f i LIBCMT:_wctype.obj
 0001:0001d96c       _iswupper                  1001e96c f i LIBCMT:_wctype.obj
 0001:0001d97d       _iswxdigit                 1001e97d f i LIBCMT:_wctype.obj
 0001:0001d991       __wctomb_l                 1001e991 f   LIBCMT:wctomb.obj
 0001:0001d9de       __wctomb_s_l               1001e9de f   LIBCMT:wctomb.obj
 0001:0001db00       _wctomb                    1001eb00 f   LIBCMT:wctomb.obj
 0001:0001db31       _wctomb_s                  1001eb31 f   LIBCMT:wctomb.obj
 0001:0001db50       __aulldvrm                 1001eb50 f   LIBCMT:ulldvrm.obj
 0001:0001dbe5       __getbuf                   1001ebe5 f   LIBCMT:_getbuf.obj
 0001:0001dc2b       __lseeki64                 1001ec2b f   LIBCMT:lseeki64.obj
 0001:0001dd34       __lseeki64_nolock          1001ed34 f   LIBCMT:lseeki64.obj
 0001:0001dda5       __mbtowc_l                 1001eda5 f   LIBCMT:mbtowc.obj
 0001:0001de98       _mbtowc                    1001ee98 f   LIBCMT:mbtowc.obj
 0001:0001deb0       __putwch                   1001eeb0 f   LIBCMT:putwch.obj
 0001:0001def8       __putwch_nolock            1001eef8 f   LIBCMT:putwch.obj
 0001:0001df40       __chkstk                   1001ef40 f   LIBCMT:chkstk.obj
 0001:0001df40       __alloca_probe             1001ef40     LIBCMT:chkstk.obj
 0001:0001df6b       __matherr                  1001ef6b f   LIBCMT:matherr.obj
 0001:0001df6e       __vfwprintf_l              1001ef6e f   LIBCMT:vfwprint.obj
 0001:0001df8c       __vfwprintf_p              1001ef8c f   LIBCMT:vfwprint.obj
 0001:0001dfa9       __vfwprintf_p_l            1001efa9 f   LIBCMT:vfwprint.obj
 0001:0001dfc7       __vfwprintf_s_l            1001efc7 f   LIBCMT:vfwprint.obj
 0001:0001dfe5       _vfwprintf                 1001efe5 f   LIBCMT:vfwprint.obj
 0001:0001e002       _vfwprintf_helper          1001f002 f   LIBCMT:vfwprint.obj
 0001:0001e091       _vfwprintf_s               1001f091 f   LIBCMT:vfwprint.obj
 0001:0001e0ae       __woutput_l                1001f0ae f   LIBCMT:woutput.obj
 0001:0001edb1       __woutput_s_l              1001fdb1 f   LIBCMT:woutputs.obj
 0001:0001fae8       __validate_param_reuseW    10020ae8 f   LIBCMT:woutputp.obj
 0001:0001fc5e       __woutput_p_l              10020c5e f   LIBCMT:woutputp.obj
 0001:00021093       __ismbbalnum               10022093 f   LIBCMT:ismbbyte.obj
 0001:000210ac       __ismbbalnum_l             100220ac f   LIBCMT:ismbbyte.obj
 0001:000210c6       __ismbbalpha               100220c6 f   LIBCMT:ismbbyte.obj
 0001:000210df       __ismbbalpha_l             100220df f   LIBCMT:ismbbyte.obj
 0001:000210f9       __ismbbgraph               100220f9 f   LIBCMT:ismbbyte.obj
 0001:00021112       __ismbbgraph_l             10022112 f   LIBCMT:ismbbyte.obj
 0001:0002112c       __ismbbkalnum              1002212c f   LIBCMT:ismbbyte.obj
 0001:00021142       __ismbbkalnum_l            10022142 f   LIBCMT:ismbbyte.obj
 0001:00021159       __ismbbkana                10022159 f   LIBCMT:ismbbyte.obj
 0001:0002116a       __ismbbkana_l              1002216a f   LIBCMT:ismbbyte.obj
 0001:000211b4       __ismbbkprint              100221b4 f   LIBCMT:ismbbyte.obj
 0001:000211ca       __ismbbkprint_l            100221ca f   LIBCMT:ismbbyte.obj
 0001:000211e1       __ismbbkpunct              100221e1 f   LIBCMT:ismbbyte.obj
 0001:000211f7       __ismbbkpunct_l            100221f7 f   LIBCMT:ismbbyte.obj
 0001:0002120e       __ismbblead                1002220e f   LIBCMT:ismbbyte.obj
 0001:00021224       __ismbblead_l              10022224 f   LIBCMT:ismbbyte.obj
 0001:0002123b       __ismbbprint               1002223b f   LIBCMT:ismbbyte.obj
 0001:00021254       __ismbbprint_l             10022254 f   LIBCMT:ismbbyte.obj
 0001:0002126e       __ismbbpunct               1002226e f   LIBCMT:ismbbyte.obj
 0001:00021284       __ismbbpunct_l             10022284 f   LIBCMT:ismbbyte.obj
 0001:0002129b       __ismbbtrail               1002229b f   LIBCMT:ismbbyte.obj
 0001:000212b1       __ismbbtrail_l             100222b1 f   LIBCMT:ismbbyte.obj
 0001:000212c8       ___free_lconv_mon          100222c8 f   LIBCMT:initmon.obj
 0001:000213c4       ___init_monetary           100223c4 f   LIBCMT:initmon.obj
 0001:0002179e       ___free_lconv_num          1002279e f   LIBCMT:initnum.obj
 0001:00021805       ___init_numeric            10022805 f   LIBCMT:initnum.obj
 0001:00021a45       ___free_lc_time            10022a45 f   LIBCMT:inittime.obj
 0001:00021dc5       ___init_time               10022dc5 f   LIBCMT:inittime.obj
 0001:00022632       _localeconv                10023632 f   LIBCMT:lconv.obj
 0001:00022658       __isctype                  10023658 f   LIBCMT:isctype.obj
 0001:00022687       __isctype_l                10023687 f   LIBCMT:isctype.obj
 0001:00022736       __locterm                  10023736 f   LIBCMT:wsetloca.obj
 0001:00022788       ___init_dummy              10023788 f   LIBCMT:wsetloca.obj
 0001:0002278b       ____setlc_active_func      1002378b f   LIBCMT:wsetloca.obj
 0001:00022791       ____unguarded_readlc_active_add_func 10023791 f   LIBCMT:wsetloca.obj
 0001:00022797       ___copy_locale_name        10023797 f   LIBCMT:wsetloca.obj
 0001:000227fb       ___create_locale           100237fb f   LIBCMT:wsetloca.obj
 0001:00022804       ___free_locale             10023804 f   LIBCMT:wsetloca.obj
 0001:00022809       ___get_current_locale      10023809 f   LIBCMT:wsetloca.obj
 0001:0002280e       ___lc_lctowcs              1002380e f   LIBCMT:wsetloca.obj
 0001:0002287c       ___lc_wcstolc              1002387c f   LIBCMT:wsetloca.obj
 0001:000229a6       __configthreadlocale       100239a6 f   LIBCMT:wsetloca.obj
 0001:00022a2c       __create_locale            10023a2c f   LIBCMT:wsetloca.obj
 0001:00022a8c       __expandlocale             10023a8c f   LIBCMT:wsetloca.obj
 0001:00022d6f       __free_locale              10023d6f f   LIBCMT:wsetloca.obj
 0001:00022e29       __get_current_locale       10023e29 f   LIBCMT:wsetloca.obj
 0001:00022ed8       __wcreate_locale           10023ed8 f   LIBCMT:wsetloca.obj
 0001:00022fc8       __wcscats                  10023fc8 f   LIBCMT:wsetloca.obj
 0001:00023007       __wsetlocale               10024007 f   LIBCMT:wsetloca.obj
 0001:0002393c       __CopyMan                  1002493c f i LIBCMT:intrncvt.obj
 0001:00023959       __FillZeroMan              10024959 f i LIBCMT:intrncvt.obj
 0001:00023968       __IncMan                   10024968 f i LIBCMT:intrncvt.obj
 0001:000239ca       __IsZeroMan                100249ca f i LIBCMT:intrncvt.obj
 0001:000239e7       __RoundMan                 100249e7 f i LIBCMT:intrncvt.obj
 0001:00023ae6       __ShrMan                   10024ae6 f i LIBCMT:intrncvt.obj
 0001:00023b72       __ZeroTail                 10024b72 f i LIBCMT:intrncvt.obj
 0001:00023bba       ___addl                    10024bba f i LIBCMT:intrncvt.obj
 0001:00023bde       __ld12cvt                  10024bde f i LIBCMT:intrncvt.obj
 0001:00024147       __ld12tod                  10025147 f   LIBCMT:intrncvt.obj
 0001:000246b7       __ld12tof                  100256b7 f   LIBCMT:intrncvt.obj
 0001:00024c27       __ld12told                 10025c27 f   LIBCMT:intrncvt.obj
 0001:00024cf4       ___STRINGTOLD_L            10025cf4 f   LIBCMT:strgtold.obj
 0001:00024d4d       ___ld12mul                 10025d4d f i LIBCMT:strgtold.obj
 0001:00025016       ___multtenpow12            10026016 f i LIBCMT:strgtold.obj
 0001:00025374       ___shl_12                  10026374 f i LIBCMT:strgtold.obj
 0001:000253a5       ___shr_12                  100263a5 f i LIBCMT:strgtold.obj
 0001:000253d5       ___strgtold12_l            100263d5 f   LIBCMT:strgtold.obj
 0001:00025b51       _$I10_OUTPUT               10026b51 f   LIBCMT:x10fout.obj
 0001:00026515       ___add_12                  10027515 f i LIBCMT:x10fout.obj
 0001:00026587       ___pctype_func             10027587 f   LIBCMT:ctype.obj
 0001:000265b0       ___pwctype_func            100275b0 f   LIBCMT:ctype.obj
 0001:000266ee       ___control87_2             100276ee f   LIBCMT:ieee87.obj
 0001:00026d5e       __clearfp                  10027d5e f   LIBCMT:ieee87.obj
 0001:00026e3c       __control87                10027e3c f i LIBCMT:ieee87.obj
 0001:0002713c       __controlfp                1002813c f   LIBCMT:ieee87.obj
 0001:00027445       __fpreset                  10028445 f   LIBCMT:ieee87.obj
 0001:00027512       __set_controlfp            10028512 f   LIBCMT:ieee87.obj
 0001:00027583       __statusfp                 10028583 f   LIBCMT:ieee87.obj
 0001:0002761b       __statusfp2                1002861b f   LIBCMT:ieee87.obj
 0001:00027680       __alloca_probe_16          10028680 f   LIBCMT:alloca16.obj
 0001:00027696       __alloca_probe_8           10028696     LIBCMT:alloca16.obj
 0001:0002773d       __wopen                    1002873d f   LIBCMT:wopen.obj
 0001:000277ea       __wsopen                   100287ea f   LIBCMT:wopen.obj
 0001:0002781b       __wsopen_helper            1002881b f   LIBCMT:wopen.obj
 0001:000278e2       __wsopen_nolock            100288e2 f   LIBCMT:wopen.obj
 0001:0002805b       __wsopen_s                 1002905b f   LIBCMT:wopen.obj
 0001:00028080       _strncmp                   10029080 f   LIBCMT:strncmp.obj
 0001:000280f8       __strnicmp                 100290f8 f   LIBCMT:strnicmp.obj
 0001:00028163       __strnicmp_l               10029163 f   LIBCMT:strnicmp.obj
 0001:00028436       __strtol_l                 10029436 f   LIBCMT:strtol.obj
 0001:00028451       __strtoul_l                10029451 f   LIBCMT:strtol.obj
 0001:0002846c       _strtol                    1002946c f   LIBCMT:strtol.obj
 0001:00028496       _strtoul                   10029496 f   LIBCMT:strtol.obj
 0001:000284c0       __iswctype_l               100294c0 f   LIBCMT:iswctype.obj
 0001:000284d2       _is_wctype                 100294d2 f   LIBCMT:iswctype.obj
 0001:000284db       _iswctype                  100294db f   LIBCMT:iswctype.obj
 0001:0002852d       ____lc_codepage_func       1002952d f   LIBCMT:initctyp.obj
 0001:00028553       ____lc_collate_cp_func     10029553 f   LIBCMT:initctyp.obj
 0001:00028579       ____lc_locale_name_func    10029579 f   LIBCMT:initctyp.obj
 0001:000285a1       ____mb_cur_max_func        100295a1 f   LIBCMT:initctyp.obj
 0001:000285c7       ____mb_cur_max_l_func      100295c7 f   LIBCMT:initctyp.obj
 0001:000285de       ___init_ctype              100295de f   LIBCMT:initctyp.obj
 0001:00028976       ___termconout              10029976 f   LIBCMT:initcon.obj
 0001:0002898d       ___initconout              1002998d f   LIBCMT:initcon.obj
 0001:000289ac       __fputwc_nolock            100299ac f   LIBCMT:fputwc.obj
 0001:00028b31       _fputwc                    10029b31 f   LIBCMT:fputwc.obj
 0001:00028bb2       _putwc                     10029bb2 f   LIBCMT:fputwc.obj
 0001:00028d97       __wcstol_l                 10029d97 f   LIBCMT:wcstol.obj
 0001:00028daf       __wcstoul_l                10029daf f   LIBCMT:wcstol.obj
 0001:00028dc7       _wcstol                    10029dc7 f   LIBCMT:wcstol.obj
 0001:00028ddf       _wcstoul                   10029ddf f   LIBCMT:wcstol.obj
 0001:00028df7       ___init_collate            10029df7 f   LIBCMT:initcoll.obj
 0001:00028f17       _memcmp                    10029f17 f   LIBCMT:memcmp.obj
 0001:0002be2b       _wcscmp                    1002ce2b f   LIBCMT:wcscmp.obj
 0001:0002be69       _wcscspn                   1002ce69 f   LIBCMT:wcscspn.obj
 0001:0002beb8       _wcsnlen                   1002ceb8 f   LIBCMT:wcslen_s.obj
 0001:0002bed7       _wcsncmp                   1002ced7 f   LIBCMT:wcsncmp.obj
 0001:0002bf0d       _wcspbrk                   1002cf0d f   LIBCMT:wcspbrk.obj
 0001:0002c509       ___get_qualified_locale    1002d509 f   LIBCMT:getqloc.obj
 0001:0002c6cb       ___mtold12                 1002d6cb f   LIBCMT:mantold.obj
 0001:0002c8ad       __chsize                   1002d8ad f   LIBCMT:chsize.obj
 0001:0002c8c7       __chsize_nolock            1002d8c7 f   LIBCMT:chsize.obj
 0001:0002ca7b       __chsize_s                 1002da7b f   LIBCMT:chsize.obj
 0001:0002cb6f       __get_fmode                1002db6f f   LIBCMT:setmode.obj
 0001:0002cb99       __set_fmode                1002db99 f   LIBCMT:setmode.obj
 0001:0002cbd9       __setmode                  1002dbd9 f   LIBCMT:setmode.obj
 0001:0002cce7       __setmode_nolock           1002dce7 f   LIBCMT:setmode.obj
 0001:0002cdc0       ___ascii_strnicmp          1002ddc0 f   LIBCMT:_strnicm.obj
 0001:0002ce21       __flswbuf                  1002de21 f   LIBCMT:_flswbuf.obj
 0001:0002cf90       __wchartodigit             1002df90 f   LIBCMT:wchtodig.obj
 0001:0002d12f       __wtoi                     1002e12f f   LIBCMT:wtox.obj
 0001:0002d138       __wtoi64                   1002e138 f   LIBCMT:wtox.obj
 0001:0002d14c       __wtoi64_l                 1002e14c f   LIBCMT:wtox.obj
 0001:0002d163       __wtoi_l                   1002e163 f   LIBCMT:wtox.obj
 0001:0002d16c       __wtol                     1002e16c f   LIBCMT:wtox.obj
 0001:0002d180       __wtol_l                   1002e180 f   LIBCMT:wtox.obj
 0001:0002d197       _wcschr                    1002e197 f   LIBCMT:wcschr.obj
 0001:0002d245       __wcsicmp                  1002e245 f   LIBCMT:wcsicmp.obj
 0001:0002d2d8       __wcsicmp_l                1002e2d8 f   LIBCMT:wcsicmp.obj
 0001:0002d3b1       __wcsnicmp                 1002e3b1 f   LIBCMT:wcsnicmp.obj
 0001:0002d465       __wcsnicmp_l               1002e465 f   LIBCMT:wcsnicmp.obj
 0001:0002d82a       __wcstoi64                 1002e82a f   LIBCMT:wcstoq.obj
 0001:0002d854       __wcstoi64_l               1002e854 f   LIBCMT:wcstoq.obj
 0001:0002d86f       __wcstoui64                1002e86f f   LIBCMT:wcstoq.obj
 0001:0002d899       __wcstoui64_l              1002e899 f   LIBCMT:wcstoq.obj
 0001:0002d8b4       __towlower_l               1002e8b4 f   LIBCMT:towlower.obj
 0001:0002d966       _towlower                  1002e966 f   LIBCMT:towlower.obj
 0001:0002d980       __allmul                   1002e980 f   LIBCMT:llmul.obj
 0001:0002d9b4       ___crtLCMapStringW         1002e9b4 f   LIBCMT:w_map.obj
 0001:0002d9e4       _GetModuleHandleA@4        1002e9e4 f   kernel32:KERNEL32.dll
 0001:0002d9ea       _GetProcAddress@8          1002e9ea f   kernel32:KERNEL32.dll
 0001:0002d9f0       _HeapAlloc@12              1002e9f0 f   kernel32:KERNEL32.dll
 0001:0002d9f6       _IsDebuggerPresent@0       1002e9f6 f   kernel32:KERNEL32.dll
 0001:0002d9fc       _IsProcessorFeaturePresent@4 1002e9fc f   kernel32:KERNEL32.dll
 0001:0002da02       _EncodePointer@4           1002ea02 f   kernel32:KERNEL32.dll
 0001:0002da08       _DecodePointer@4           1002ea08 f   kernel32:KERNEL32.dll
 0001:0002da0e       _GetLastError@0            1002ea0e f   kernel32:KERNEL32.dll
 0001:0002da14       _InterlockedDecrement@4    1002ea14 f   kernel32:KERNEL32.dll
 0001:0002da1a       _ExitProcess@4             1002ea1a f   kernel32:KERNEL32.dll
 0001:0002da20       _GetModuleHandleExW@12     1002ea20 f   kernel32:KERNEL32.dll
 0001:0002da26       _AreFileApisANSI@0         1002ea26 f   kernel32:KERNEL32.dll
 0001:0002da2c       _MultiByteToWideChar@24    1002ea2c f   kernel32:KERNEL32.dll
 0001:0002da32       _HeapFree@12               1002ea32 f   kernel32:KERNEL32.dll
 0001:0002da38       _HeapReAlloc@16            1002ea38 f   kernel32:KERNEL32.dll
 0001:0002da3e       _EnterCriticalSection@4    1002ea3e f   kernel32:KERNEL32.dll
 0001:0002da44       _LeaveCriticalSection@4    1002ea44 f   kernel32:KERNEL32.dll
 0001:0002da4a       _GetStdHandle@4            1002ea4a f   kernel32:KERNEL32.dll
 0001:0002da50       _GetFileType@4             1002ea50 f   kernel32:KERNEL32.dll
 0001:0002da56       _GetModuleFileNameW@12     1002ea56 f   kernel32:KERNEL32.dll
 0001:0002da5c       _WriteConsoleW@20          1002ea5c f   kernel32:KERNEL32.dll
 0001:0002da62       _GetCommandLineA@0         1002ea62 f   kernel32:KERNEL32.dll
 0001:0002da68       _GetCurrentThreadId@0      1002ea68 f   kernel32:KERNEL32.dll
 0001:0002da6e       _WriteFile@20              1002ea6e f   kernel32:KERNEL32.dll
 0001:0002da74       _GetProcessHeap@0          1002ea74 f   kernel32:KERNEL32.dll
 0001:0002da7a       _UnhandledExceptionFilter@4 1002ea7a f   kernel32:KERNEL32.dll
 0001:0002da80       _SetUnhandledExceptionFilter@4 1002ea80 f   kernel32:KERNEL32.dll
 0001:0002da86       _FlsAlloc@4                1002ea86 f   kernel32:KERNEL32.dll
 0001:0002da8c       _FlsGetValue@4             1002ea8c f   kernel32:KERNEL32.dll
 0001:0002da92       _FlsSetValue@8             1002ea92 f   kernel32:KERNEL32.dll
 0001:0002da98       _FlsFree@4                 1002ea98 f   kernel32:KERNEL32.dll
 0001:0002da9e       _GetCurrentProcess@0       1002ea9e f   kernel32:KERNEL32.dll
 0001:0002daa4       _TerminateProcess@8        1002eaa4 f   kernel32:KERNEL32.dll
 0001:0002daaa       _GetStartupInfoW@4         1002eaaa f   kernel32:KERNEL32.dll
 0001:0002dab0       _GetModuleHandleW@4        1002eab0 f   kernel32:KERNEL32.dll
 0001:0002dab6       _InitializeCriticalSectionAndSpinCount@8 1002eab6 f   kernel32:KERNEL32.dll
 0001:0002dabc       _DeleteCriticalSection@4   1002eabc f   kernel32:KERNEL32.dll
 0001:0002dac2       _FatalAppExitA@8           1002eac2 f   kernel32:KERNEL32.dll
 0001:0002dac8       _Sleep@4                   1002eac8 f   kernel32:KERNEL32.dll
 0001:0002dace       _InterlockedExchange@8     1002eace f   kernel32:KERNEL32.dll
 0001:0002dad4       _FreeLibrary@4             1002ead4 f   kernel32:KERNEL32.dll
 0001:0002dada       _LoadLibraryExW@12         1002eada f   kernel32:KERNEL32.dll
 0001:0002dae0       _SetConsoleCtrlHandler@8   1002eae0 f   kernel32:KERNEL32.dll
 0001:0002dae6       _InterlockedIncrement@4    1002eae6 f   kernel32:KERNEL32.dll
 0001:0002daec       _IsValidCodePage@4         1002eaec f   kernel32:KERNEL32.dll
 0001:0002daf2       _GetACP@0                  1002eaf2 f   kernel32:KERNEL32.dll
 0001:0002daf8       _GetOEMCP@0                1002eaf8 f   kernel32:KERNEL32.dll
 0001:0002dafe       _GetCPInfo@8               1002eafe f   kernel32:KERNEL32.dll
 0001:0002db04       _CloseHandle@4             1002eb04 f   kernel32:KERNEL32.dll
 0001:0002db0a       _RtlUnwind@16              1002eb0a f   kernel32:KERNEL32.dll
 0001:0002db10       _InitOnceExecuteOnce@16    1002eb10 f   kernel32:KERNEL32.dll
 0001:0002db16       _ReadFile@20               1002eb16 f   kernel32:KERNEL32.dll
 0001:0002db1c       _GetConsoleMode@8          1002eb1c f   kernel32:KERNEL32.dll
 0001:0002db22       _ReadConsoleW@20           1002eb22 f   kernel32:KERNEL32.dll
 0001:0002db28       _WideCharToMultiByte@32    1002eb28 f   kernel32:KERNEL32.dll
 0001:0002db2e       _GetConsoleCP@0            1002eb2e f   kernel32:KERNEL32.dll
 0001:0002db34       _DeleteFileW@4             1002eb34 f   kernel32:KERNEL32.dll
 0001:0002db3a       _SetFilePointer@16         1002eb3a f   kernel32:KERNEL32.dll
 0001:0002db40       _RaiseException@16         1002eb40 f   kernel32:KERNEL32.dll
 0001:0002db46       _OutputDebugStringW@4      1002eb46 f   kernel32:KERNEL32.dll
 0001:0002db4c       _LoadLibraryW@4            1002eb4c f   kernel32:KERNEL32.dll
 0001:0002db52       _SetLastError@4            1002eb52 f   kernel32:KERNEL32.dll
 0001:0002db58       _GetCurrentThread@0        1002eb58 f   kernel32:KERNEL32.dll
 0001:0002db5e       _GetModuleFileNameA@12     1002eb5e f   kernel32:KERNEL32.dll
 0001:0002db64       _QueryPerformanceCounter@4 1002eb64 f   kernel32:KERNEL32.dll
 0001:0002db6a       _GetSystemTimeAsFileTime@4 1002eb6a f   kernel32:KERNEL32.dll
 0001:0002db70       _GetTickCount64@0          1002eb70 f   kernel32:KERNEL32.dll
 0001:0002db76       _GetEnvironmentStringsW@0  1002eb76 f   kernel32:KERNEL32.dll
 0001:0002db7c       _FreeEnvironmentStringsW@4 1002eb7c f   kernel32:KERNEL32.dll
 0001:0002db82       _HeapSize@12               1002eb82 f   kernel32:KERNEL32.dll
 0001:0002db88       _GetTimeFormatEx@24        1002eb88 f   kernel32:KERNEL32.dll
 0001:0002db8e       _GetDateFormatEx@28        1002eb8e f   kernel32:KERNEL32.dll
 0001:0002db94       _CompareStringEx@36        1002eb94 f   kernel32:KERNEL32.dll
 0001:0002db9a       _GetLocaleInfoEx@16        1002eb9a f   kernel32:KERNEL32.dll
 0001:0002dba0       _GetUserDefaultLocaleName@8 1002eba0 f   kernel32:KERNEL32.dll
 0001:0002dba6       _LCMapStringEx@36          1002eba6 f   kernel32:KERNEL32.dll
 0001:0002dbac       _IsValidLocaleName@4       1002ebac f   kernel32:KERNEL32.dll
 0001:0002dbb2       _EnumSystemLocalesEx@16    1002ebb2 f   kernel32:KERNEL32.dll
 0001:0002dbb8       _GetStringTypeW@16         1002ebb8 f   kernel32:KERNEL32.dll
 0001:0002dbbe       _FlushFileBuffers@4        1002ebbe f   kernel32:KERNEL32.dll
 0001:0002dbc4       _SetStdHandle@8            1002ebc4 f   kernel32:KERNEL32.dll
 0001:0002dbca       _SetFilePointerEx@20       1002ebca f   kernel32:KERNEL32.dll
 0001:0002dbd0       _CreateFileW@28            1002ebd0 f   kernel32:KERNEL32.dll
 0001:0002dbd6       _SetEndOfFile@4            1002ebd6 f   kernel32:KERNEL32.dll
 0002:00000000       ___xc_a                    10039000     LIBCMT:crt0init.obj
 0002:00000104       ___xc_z                    10039104     LIBCMT:crt0init.obj
 0002:00000208       ___xi_a                    10039208     LIBCMT:crt0init.obj
 0002:00000420       ___xi_z                    10039420     LIBCMT:crt0init.obj
 0002:00000524       ___xp_a                    10039524     LIBCMT:crt0init.obj
 0002:00000838       ___xp_z                    10039838     LIBCMT:crt0init.obj
 0002:0000093c       ___xt_a                    1003993c     LIBCMT:crt0init.obj
 0002:00000a40       ___xt_z                    10039a40     LIBCMT:crt0init.obj
 0002:00000b88       _pump_test_model_M         10039b88     pump_test_model.obj
 0002:00000c04       ??_C@_00CNPNBAHC@?$AA@     10039c04     pump_test_model.obj
 0002:00000c08       ??_C@_0L@FEEEJHIL@Pump_Input?$AA@ 10039c08     pump_test_model.obj
 0002:00000c18       ??_C@_0BM@DLFEPMPE@pump_test_model?1Pump?5input?6?$AA@ 10039c18     pump_test_model.obj
 0002:00000c3c       ??_C@_0BL@GCEFHLFL@pump_test_model?1Signal?5bus?$AA@ 10039c3c     pump_test_model.obj
 0002:00000c5c       ??_C@_04CMIMOENB@ode3?$AA@ 10039c5c     pump_test_model.obj
 0002:00000c64       ??_C@_04EPKDLPPB@tout?$AA@ 10039c64     pump_test_model.obj
 0002:00000c6c       ??_C@_03HBFGMJOD@rt_?$AA@  10039c6c     pump_test_model.obj
 0002:00000c70       ??_C@_04LHDDHLEA@yout?$AA@ 10039c70     pump_test_model.obj
 0002:00000c78       __real@3f40624dd2f1a9fc    10039c78     pump_test_model.obj
 0002:00000c88       __real@3fcc71c71c71c71c    10039c88     pump_test_model.obj
 0002:00000c98       __real@3fd5555555555555    10039c98     pump_test_model.obj
 0002:00000ca8       __real@3fdc71c71c71c71c    10039ca8     pump_test_model.obj
 0002:00000cb8       __real@3fe0000000000000    10039cb8     pump_test_model.obj
 0002:00000cc8       __real@3fe1015ce0970f6e    10039cc8     pump_test_model.obj
 0002:00000cd8       __real@3fe8000000000000    10039cd8     pump_test_model.obj
 0002:00000ce8       __real@3fec16bd788e34a4    10039ce8     pump_test_model.obj
 0002:00000cf8       __real@3ff0000000000000    10039cf8     pump_test_model.obj
 0002:00000d08       __real@3ff2836ad7a72341    10039d08     pump_test_model.obj
 0002:00000d18       __real@3ff325ac62ef83bc    10039d18     pump_test_model.obj
 0002:00000d28       __real@3ff455d36316eea6    10039d28     pump_test_model.obj
 0002:00000d38       __real@3ff48f53fb3f8fa3    10039d38     pump_test_model.obj
 0002:00000d48       __real@3ff5110e1a6aa77d    10039d48     pump_test_model.obj
 0002:00000d58       __real@3ffcb8829467459c    10039d58     pump_test_model.obj
 0002:00000d68       __real@4000000000000000    10039d68     pump_test_model.obj
 0002:00000d78       __real@4005110e1a6aa77a    10039d78     pump_test_model.obj
 0002:00000d88       __real@4005765aeed3f7b2    10039d88     pump_test_model.obj
 0002:00000d98       __real@4008000000000000    10039d98     pump_test_model.obj
 0002:00000da8       __real@400cb8829467459c    10039da8     pump_test_model.obj
 0002:00000db8       __real@4018881ae4a4c0e8    10039db8     pump_test_model.obj
 0002:00000dc8       __real@405791a2e044dcc7    10039dc8     pump_test_model.obj
 0002:00000dd8       __real@4060000000000000    10039dd8     pump_test_model.obj
 0002:00000de8       __real@4075e00000000000    10039de8     pump_test_model.obj
 0002:00000df8       __real@407d3629a6946dcf    10039df8     pump_test_model.obj
 0002:00000e08       __real@408f400000000000    10039e08     pump_test_model.obj
 0002:00000e18       __real@4097700000000000    10039e18     pump_test_model.obj
 0002:00000e28       __real@40ab580000000000    10039e28     pump_test_model.obj
 0002:00000e38       __real@40e86a0000000000    10039e38     pump_test_model.obj
 0002:00000e48       __real@40f86a0000000000    10039e48     pump_test_model.obj
 0002:00000e58       __real@41024f8000000000    10039e58     pump_test_model.obj
 0002:00000e68       __real@41f0000000000000    10039e68     pump_test_model.obj
 0002:00000e78       __real@4330000000000000    10039e78     pump_test_model.obj
 0002:00000e88       __real@8000000000000000    10039e88     pump_test_model.obj
 0002:00000e98       __real@bff0000000000000    10039e98     pump_test_model.obj
 0002:00000ea8       __real@c060000000000000    10039ea8     pump_test_model.obj
 0002:00000ec0       __xmm@41f00000000000000000000000000000 10039ec0     pump_test_model.obj
 0002:00000ee0       __xmm@7fffffffffffffff7fffffffffffffff 10039ee0     pump_test_model.obj
 0002:000013c4       ??_C@_0BA@NKAHAPKM@MATLAB?5Function?$AA@ 1003a3c4     pump_test_model_capi.obj
 0002:000013d8       ??_C@_0P@DCLOFNPG@pumps_selected?$AA@ 1003a3d8     pump_test_model_capi.obj
 0002:000013ec       ??_C@_0N@NKCNANND@cost_power_1?$AA@ 1003a3ec     pump_test_model_capi.obj
 0002:000013fc       ??_C@_0N@KJCNNHBE@Power_cost_1?$AA@ 1003a3fc     pump_test_model_capi.obj
 0002:0000140c       ??_C@_0N@PBAAFOBA@cost_power_2?$AA@ 1003a40c     pump_test_model_capi.obj
 0002:0000141c       ??_C@_0N@ICAAIENH@Power_cost_2?$AA@ 1003a41c     pump_test_model_capi.obj
 0002:0000142c       ??_C@_0N@OIBLGPFB@cost_power_3?$AA@ 1003a42c     pump_test_model_capi.obj
 0002:0000143c       ??_C@_0N@JLBLLFJG@Power_cost_3?$AA@ 1003a43c     pump_test_model_capi.obj
 0002:0000144c       ??_C@_0BD@HDJELAFF@valve_CV_esti_Test?$AA@ 1003a44c     pump_test_model_capi.obj
 0002:00001464       ??_C@_0BA@OLAGDFLG@Rate?5Transition?$AA@ 1003a464     pump_test_model_capi.obj
 0002:00001478       ??_C@_07CMFNPBFJ@PID_Ref?$AA@ 1003a478     pump_test_model_capi.obj
 0002:00001484       ??_C@_03IFGKDPPO@Sum?$AA@  1003a484     pump_test_model_capi.obj
 0002:00001488       ??_C@_09OMCJCGNK@PID_Error?$AA@ 1003a488     pump_test_model_capi.obj
 0002:00001494       ??_C@_0BN@FPDAFOPD@PID?5Controller?1Integral?5Gain?$AA@ 1003a494     pump_test_model_capi.obj
 0002:000014b8       ??_C@_0CB@GMJOOHBE@PID?5Controller?1Proportional?5Gain@ 1003a4b8     pump_test_model_capi.obj
 0002:000014e0       ??_C@_0BK@CDEALJIB@PID?5Controller?1Integrator?$AA@ 1003a4e0     pump_test_model_capi.obj
 0002:00001500       ??_C@_0BI@EKOCELGI@PID?5Controller?1Saturate?$AA@ 1003a500     pump_test_model_capi.obj
 0002:0000151c       ??_C@_0BD@OOEBONAM@PID?5Controller?1Sum?$AA@ 1003a51c     pump_test_model_capi.obj
 0002:00001534       ??_C@_0BG@FILBKBPL@PID?5Controller?1Switch?$AA@ 1003a534     pump_test_model_capi.obj
 0002:00001550       ??_C@_0CO@BLACBDAK@PID?5Controller?1Clamping?5circuit?1@ 1003a550     pump_test_model_capi.obj
 0002:00001588       ??_C@_0CO@DACPEAMJ@PID?5Controller?1Clamping?5circuit?1@ 1003a588     pump_test_model_capi.obj
 0002:000015c0       ??_C@_0CJ@JLNENLEN@PID?5Controller?1Clamping?5circuit?1@ 1003a5c0     pump_test_model_capi.obj
 0002:000015f4       ??_C@_0CJ@FNDDNPHA@PID?5Controller?1Clamping?5circuit?1@ 1003a5f4     pump_test_model_capi.obj
 0002:00001628       ??_C@_0CE@JLEDGIDG@PID?5Controller?1Clamping?5circuit?1@ 1003a628     pump_test_model_capi.obj
 0002:00001654       ??_C@_0CH@MOMACDBM@PID?5Controller?1Clamping?5circuit?1@ 1003a654     pump_test_model_capi.obj
 0002:00001684       ??_C@_0CG@LKFPJEGF@PID?5Controller?1Clamping?5circuit?1@ 1003a684     pump_test_model_capi.obj
 0002:000016b4       ??_C@_0CJ@DFAHHNHL@PID?5Controller?1Clamping?5circuit?1@ 1003a6b4     pump_test_model_capi.obj
 0002:000016e8       ??_C@_0CL@KBDLFKCN@PID?5Controller?1Clamping?5circuit?1@ 1003a6e8     pump_test_model_capi.obj
 0002:0000171c       ??_C@_0DC@CJIOIAJ@PID?5Controller?1Clamping?5circuit?1@ 1003a71c     pump_test_model_capi.obj
 0002:00001758       ??_C@_0P@DNAGJNE@PID?5Controller?$AA@ 1003a758     pump_test_model_capi.obj
 0002:0000176c       ??_C@_01EJNLAFE@P?$AA@     1003a76c     pump_test_model_capi.obj
 0002:00001770       ??_C@_01JPJNBJEM@I?$AA@    1003a770     pump_test_model_capi.obj
 0002:00001774       ??_C@_0BF@GLIOIDJM@UpperSaturationLimit?$AA@ 1003a774     pump_test_model_capi.obj
 0002:00001790       ??_C@_0BF@EMCFELNH@LowerSaturationLimit?$AA@ 1003a790     pump_test_model_capi.obj
 0002:000017ac       ??_C@_0BI@CLHHMLKA@PID?5Controller?1Constant?$AA@ 1003a7ac     pump_test_model_capi.obj
 0002:000017c8       ??_C@_05LPIJGKJ@Value?$AA@ 1003a7c8     pump_test_model_capi.obj
 0002:000017d0       ??_C@_0BB@CFEOEMDC@InitialCondition?$AA@ 1003a7d0     pump_test_model_capi.obj
 0002:000017e4       ??_C@_04OMOMKKFL@Gain?$AA@ 1003a7e4     pump_test_model_capi.obj
 0002:000017ec       ??_C@_02LNFHGPBG@X0?$AA@   1003a7ec     pump_test_model_capi.obj
 0002:000017f0       ??_C@_06BNJCAIGJ@double?$AA@ 1003a7f0     pump_test_model_capi.obj
 0002:000017f8       ??_C@_06CNMIJIPB@real_T?$AA@ 1003a7f8     pump_test_model_capi.obj
 0002:00001800       ??_C@_0M@MPLPCMBL@signed?5char?$AA@ 1003a800     pump_test_model_capi.obj
 0002:00001810       ??_C@_06MOLJCAAB@int8_T?$AA@ 1003a810     pump_test_model_capi.obj
 0002:00001818       ??_C@_0O@PPAIJIHF@unsigned?5char?$AA@ 1003a818     pump_test_model_capi.obj
 0002:00001828       ??_C@_09JBMFCIMO@boolean_T?$AA@ 1003a828     pump_test_model_capi.obj
 0002:00001834       ??_C@_05KNFBNCOH@float?$AA@ 1003a834     pump_test_model_capi.obj
 0002:0000183c       ??_C@_0CJ@GGPBKPNK@Could?5not?5start?5ToAsyncQueue?5app@ 1003a83c     pump_test_model_tgtconn.obj
 0002:000020d0       ??_C@_0DJ@FHKINPLE@Unexpected?5itemKind?5?$DN?5DATA_ITEM?5@ 1003b0d0     rt_logging.obj
 0002:00002114       ??_C@_0DA@IEHFPFCJ@Unexpected?5itemKind?$DN?$CFd?5in?5rt_Pro@ 1003b114     rt_logging.obj
 0002:00002150       ??_C@_0DA@IFLHJPBO@Unexpected?5itemKind?$DN?$CFd?5in?5rt_Pro@ 1003b150     rt_logging.obj
 0002:0000218c       ??_C@_0DA@IAPIIJJL@Unexpected?5itemKind?$DN?$CFd?5in?5rt_Pro@ 1003b18c     rt_logging.obj
 0002:000021c8       ??_C@_0BE@LCIGPJIG@MATLAB?55?40?5MAT?9file?$AA@ 1003b1c8     rt_logging.obj
 0002:000021e0       ??_C@_0FB@PCJEAJIB@?$CK?$CK?$CK?5Log?5variable?5?$CFs?5has?5wrapped?5@ 1003b1e0     rt_logging.obj
 0002:00002248       ??_C@_0MG@NKMLMOGF@?$CK?$CK?$CK?5To?5avoid?5wrapping?0?5explicitl@ 1003b248     rt_logging.obj
 0002:00002338       ??_C@_0N@IPAEOLLP@_rtw_tmw?4tmw?$AA@ 1003b338     rt_logging.obj
 0002:00002348       ??_C@_04HDOCAJNK@?$CFs?$CFs?$AA@ 1003b348     rt_logging.obj
 0002:00002350       ??_C@_03ELIABIOC@w?$CLb?$AA@ 1003b350     rt_logging.obj
 0002:00002354       ??_C@_0BF@JPILDDFA@?$CK?$CK?$CK?5Error?5opening?5?$CFs?$AA@ 1003b354     rt_logging.obj
 0002:00002370       ??_C@_0BK@EEMDELA@unable?5to?5open?5data?5file?6?$AA@ 1003b370     rt_logging.obj
 0002:00002390       ??_C@_04CGFJFPFD@none?$AA@ 1003b390     rt_logging.obj
 0002:00002398       ??_C@_0EE@LCGFPNON@?$CK?$CK?$CK?5Error?5creating?5signals?5struc@ 1003b398     rt_logging.obj
 0002:000023ec       ??_C@_0CE@NHECEDMK@?$CK?$CK?$CK?5Error?5creating?5log?5variable?5@ 1003b3ec     rt_logging.obj
 0002:00002418       ??_C@_0DB@IOCGKAGH@?$CK?$CK?$CK?5Errors?5occurred?5when?5startin@ 1003b418     rt_logging.obj
 0002:00002454       ??_C@_0BO@BBLOGEBK@?$CK?$CK?$CK?5Memory?5allocation?5error?4?6?$AA@ 1003b454     rt_logging.obj
 0002:00002478       ??_C@_0N@LGFBAGEL@?5?$CIreal?5part?$CJ?$AA@ 1003b478     rt_logging.obj
 0002:00002488       ??_C@_0KH@CGNMHNFE@?5?5?5?5varName?5?5?5?5?5?5?5?5?5?5?$DN?5?$CFs?$CFs?6?5?5?5?5@ 1003b488     rt_logging.obj
 0002:00002550       ??_C@_0LE@OALKKEFM@?5?5?5?5varName?5?5?5?5?5?5?5?5?5?5?$DN?5?$CFs?5?$CIcompl@ 1003b550     rt_logging.obj
 0002:00002628       ??_C@_0KF@JDDLEOKO@?5?5?5?5varName?5?5?5?5?5?5?5?5?5?5?$DN?5?$CFs?6?5?5?5?5nR@ 1003b628     rt_logging.obj
 0002:000026f0       ??_C@_0DP@HPDMIOFM@?$CK?$CK?$CK?5Using?5a?5default?5buffer?5of?5si@ 1003b6f0     rt_logging.obj
 0002:00002740       ??_C@_0KE@JEFOLKNF@?6?$CK?$CK?$CK?5Memory?5required?5to?5log?5vari@ 1003b740     rt_logging.obj
 0002:00002808       ??_C@_0JP@DKLMHCBI@?$CK?$CK?$CK?5Details?3?6?5?5?5?5?5?5?5varName?5?5?5?5?5@ 1003b808     rt_logging.obj
 0002:000028c8       ??_C@_0CM@CAMILBED@?$CK?$CK?$CK?5Error?5allocating?5memory?5for?5@ 1003b8c8     rt_logging.obj
 0002:000028fc       ??_C@_0DF@BBCNMOPM@?$CK?$CK?$CK?5Error?5allocating?5memory?5for?5@ 1003b8fc     rt_logging.obj
 0002:00002940       ??_C@_0JP@DBCLPCCI@?$CK?$CK?$CK?5Details?3?6?5?5?5?5?5?5?5varName?5?5?5?5?5@ 1003b940     rt_logging.obj
 0002:00002a00       ??_C@_0FK@DPGAOBGA@?$CK?$CK?$CK?5Error?5allocating?5memory?5for?5@ 1003ba00     rt_logging.obj
 0002:00002a6c       ??_C@_0BI@GGDNPHLJ@?$CK?$CK?$CK?5Error?5writing?5to?5?$CFs?$AA@ 1003ba6c     rt_logging.obj
 0002:00002a88       ??_C@_0CB@IBGJGELG@?$CK?$CK?$CK?5Error?5writing?5?$CFs?5due?5to?3?5?$CFs?6@ 1003ba88     rt_logging.obj
 0002:00002ab0       ??_C@_0CN@FLMCHCPB@?$CK?$CK?$CK?5Error?5writing?5log?5variable?5?$CF@ 1003bab0     rt_logging.obj
 0002:00002ae8       ??_C@_0DH@GAJCNOJP@?$CK?$CK?$CK?5Error?5writing?5structure?5log?5@ 1003bae8     rt_logging.obj
 0002:00002b2c       ??_C@_0BD@POEALECL@?$CK?$CK?5created?5?$CFs?5?$CK?$CK?6?6?$AA@ 1003bb2c     rt_logging.obj
 0002:00002b48       __real@0000000000000000    1003bb48     rt_logging.obj
 0002:00002b58       __real@4020000000000000    1003bb58     rt_logging.obj
 0002:00002b68       __real@41dfffffffc00000    1003bb68     rt_logging.obj
 0002:00002b78       __real@41efffffffe00000    1003bb78     rt_logging.obj
 0002:00002b88       __real@bfbf9add3afd2773    1003bb88     rt_logging.obj
 0002:00002b98       __real@c000000000000000    1003bb98     rt_logging.obj
 0002:00002bc0       ??_C@_0BI@INNPNFJN@Memory?5Allocation?5Error?$AA@ 1003bbc0     rtw_modelmap_utils.obj
 0002:00002be0       ??_C@_1HC@OAPLBLFC@?$AAC?$AA?3?$AA?2?$AAP?$AAR?$AAO?$AAG?$AAR?$AAA?$AA?$HO?$AA1?$AA?2?$AAM?$AAA?$AAT?$AAL?$AAA?$AAB?$AA?2?$AAR?$AA2?$AA0?$AA1?$AA6?$AAa?$AA?2?$AAr?$AAt?$AAw?$AA?2?$AAc?$AA?2@ 1003bbe0     rtw_modelmap_utils.obj
 0002:00002c68       ??_C@_1CI@OEAJCJND@?$AAj?$AA?5?$AA?$DN?$AA?$DN?$AA?5?$AAe?$AAn?$AAc?$AAo?$AAd?$AAe?$AAd?$AAP?$AAa?$AAt?$AAh?$AAL?$AAe?$AAn?$AA?$AA@ 1003bc68     rtw_modelmap_utils.obj
 0002:00002c98       ??_C@_1DC@NFAOIFKB@?$AAe?$AAn?$AAc?$AAo?$AAd?$AAe?$AAd?$AAP?$AAa?$AAt?$AAh?$AA?$FL?$AAj?$AA?9?$AA1?$AA?$FN?$AA?5?$AA?$DN?$AA?$DN?$AA?5?$AA?8?$AA?2?$AA0?$AA?8?$AA?$AA@ 1003bc98     rtw_modelmap_utils.obj
 0002:00002cd4       ??_C@_1DI@FLNJGPEE@?$AAs?$AAi?$AAg?$AAC?$AAo?$AAm?$AAp?$AAl?$AAe?$AAx?$AAi?$AAt?$AAy?$AA?$FL?$AA?$CK?$AAs?$AAi?$AAg?$AAI?$AAd?$AAx?$AA?$FN?$AA?5?$AA?$CB?$AA?$DN?$AA?5?$AA1?$AA?$AA@ 1003bcd4     rtw_modelmap_utils.obj
 0002:00002d18       ??_C@_1KI@OFELMGBG@?$AA?$CI?$AA?$CI?$AA?$CI?$AAd?$AAa?$AAt?$AAa?$AAT?$AAy?$AAp?$AAe?$AAM?$AAa?$AAp?$AA?$CJ?$AA?$FL?$AA?$CI?$AA?$CI?$AA?$CI?$AAs?$AAt?$AAa?$AAt?$AAe?$AAs?$AA?$CJ?$AA?$FL?$AA?$CI?$AAi?$AA?$CJ?$AA?$FN?$AA?4@ 1003bd18     rtw_modelmap_utils.obj
 0002:00002de4       ??_C@_1DA@ILCMPHNE@?$AAf?$AAu?$AAl?$AAl?$AAP?$AAa?$AAt?$AAh?$AA?5?$AA?$CB?$AA?$DN?$AA?5?$AA?$CI?$AA?$CI?$AAv?$AAo?$AAi?$AAd?$AA?5?$AA?$CK?$AA?$CJ?$AA0?$AA?$CJ?$AA?$AA@ 1003bde4     rtw_modelmap_utils.obj
 0002:00002e20       ??_C@_1CI@OEPPFCCA@?$AAp?$AAa?$AAt?$AAh?$AA?5?$AA?$CB?$AA?$DN?$AA?5?$AA?$CI?$AA?$CI?$AAv?$AAo?$AAi?$AAd?$AA?5?$AA?$CK?$AA?$CJ?$AA0?$AA?$CJ?$AA?$AA@ 1003be20     rtw_modelmap_utils.obj
 0002:00002e50       ??_C@_1FK@GLJIMFHB@?$AA?$CI?$AA?$CI?$AAm?$AAm?$AAi?$AA?$CJ?$AA?9?$AA?$DO?$AAI?$AAn?$AAs?$AAt?$AAa?$AAn?$AAc?$AAe?$AAM?$AAa?$AAp?$AA?4?$AAf?$AAu?$AAl?$AAl?$AAP?$AAa?$AAt?$AAh?$AA?$CJ?$AA?5?$AA?$DN?$AA?$DN@ 1003be50     rtw_modelmap_utils.obj
 0002:00002ebc       ??_C@_1DG@HPCJGNCE@?$AAm?$AAm?$AAi?$AAP?$AAa?$AAt?$AAh?$AA?$FL?$AAp?$AAa?$AAt?$AAh?$AAL?$AAe?$AAn?$AA?9?$AA1?$AA?$FN?$AA?5?$AA?$DN?$AA?$DN?$AA?5?$AA?8?$AA?2?$AA0?$AA?8?$AA?$AA@ 1003bebc     rtw_modelmap_utils.obj
 0002:00002efc       ??_C@_1DM@DBAOGGOO@?$AAm?$AAm?$AAi?$AAP?$AAa?$AAt?$AAh?$AA?$FL?$AAm?$AAm?$AAi?$AAP?$AAa?$AAt?$AAh?$AAL?$AAe?$AAn?$AA?9?$AA1?$AA?$FN?$AA?5?$AA?$DN?$AA?$DN?$AA?5?$AA?8?$AA?2?$AA0?$AA?8?$AA?$AA@ 1003befc     rtw_modelmap_utils.obj
 0002:00002f44       ??_C@_1DC@LHIAKAFE@?$AAb?$AAl?$AAo?$AAc?$AAk?$AAP?$AAa?$AAt?$AAh?$AA?5?$AA?$CB?$AA?$DN?$AA?5?$AA?$CI?$AA?$CI?$AAv?$AAo?$AAi?$AAd?$AA?5?$AA?$CK?$AA?$CJ?$AA0?$AA?$CJ?$AA?$AA@ 1003bf44     rtw_modelmap_utils.obj
 0002:00002f80       ??_C@_1GI@KIEJKPGC@?$AAf?$AAu?$AAl?$AAl?$AAS?$AAt?$AAa?$AAt?$AAe?$AAB?$AAl?$AAo?$AAc?$AAk?$AAP?$AAa?$AAt?$AAh?$AA?$FL?$AAf?$AAu?$AAl?$AAl?$AAS?$AAt?$AAa?$AAt?$AAe?$AAB?$AAl?$AAo?$AAc@ 1003bf80     rtw_modelmap_utils.obj
 0002:00003000       ??_C@_1EE@DNPIBJHC@?$AA?$CI?$AA?$CI?$AAd?$AAi?$AAm?$AAM?$AAa?$AAp?$AA?$CJ?$AA?$FL?$AA?$CI?$AAm?$AAa?$AAp?$AAI?$AAd?$AAx?$AA?$CJ?$AA?$FN?$AA?4?$AAn?$AAu?$AAm?$AAD?$AAi?$AAm?$AAs?$AA?$CJ?$AA?5?$AA?$DN?$AA?$DN?$AA?5@ 1003c000     rtw_modelmap_utils.obj
 0002:00003054       ??_C@_06JFOKFOED@CSTATE?$AA@ 1003c054     rtw_modelmap_utils.obj
 0002:0000305c       ??_C@_06FAENGAMN@DSTATE?$AA@ 1003c05c     rtw_modelmap_utils.obj
 0002:00003064       ??_C@_1BI@LEBJNOGG@?$AAc?$AAs?$AAv?$AAI?$AAd?$AAx?$AA?5?$AA?$DO?$AA?$DN?$AA?5?$AA0?$AA?$AA@ 1003c064     rtw_modelmap_utils.obj
 0002:00003080       ??_C@_1BA@KDMGHCHP@?$AAT?$AAI?$AAD?$AA?$DN?$AA?$DN?$AA?9?$AA1?$AA?$AA@ 1003c080     rtw_modelmap_utils.obj
 0002:00003094       ??_C@_1DM@DHGKBPCE@?$AAs?$AAi?$AAg?$AAP?$AAa?$AAt?$AAh?$AA?$FL?$AAs?$AAi?$AAg?$AAP?$AAa?$AAt?$AAh?$AAL?$AAe?$AAn?$AA?9?$AA1?$AA?$FN?$AA?5?$AA?$DN?$AA?$DN?$AA?5?$AA?8?$AA?2?$AA0?$AA?8?$AA?$AA@ 1003c094     rtw_modelmap_utils.obj
 0002:000030dc       _serialfifoground          1003c0dc     xpc_datatype_ground.obj
 0002:000030e8       _bcmsg1553ground           1003c0e8     xpc_datatype_ground.obj
 0002:000030f8       _bcstatground              1003c0f8     xpc_datatype_ground.obj
 0002:00003110       _bmmsg1553ground           1003c110     xpc_datatype_ground.obj
 0002:00003130       ??_C@_0BA@OHEBIDFC@pump_test_model?$AA@ 1003c130     xpctarget.obj
 0002:00003144       _ptsetfilename             1003c144     xpctarget.obj
 0002:00003148       _xmlfile                   1003c148     xpctarget.obj
 0002:00003150       ??_C@_0L@CHBJKKFC@xpceSetVar?$AA@ 1003c150     xpctarget.obj
 0002:00003160       ??_C@_03ICACBPID@6?44?$AA@ 1003c160     xpctarget.obj
 0002:00003168       __real@3fb999999999999a    1003c168     xpctarget.obj
 0002:00003178       __real@409f400000000000    1003c178     xpctarget.obj
 0002:00003188       _pump_test_model_BIOMAP    1003c188     appmappingData.obj
 0002:000032a8       _pump_test_model_LBLMAP    1003c2a8     appmappingData.obj
 0002:000033c8       _pump_test_model_SIDMAP    1003c3c8     appmappingData.obj
 0002:000034e8       _pump_test_model_SBIO      1003c4e8     appmappingData.obj
 0002:00003548       _pump_test_model_SLBL      1003c548     appmappingData.obj
 0002:000035a8       _pump_test_model_PTIDSMAP  1003c5a8     appmappingData.obj
 0002:000035f0       _pump_test_model_PTNAMESMAP 1003c5f0     appmappingData.obj
 0002:00003638       _pump_test_model_SPTMAP    1003c638     appmappingData.obj
 0002:0000365c       _pump_test_model_dtmap     1003c65c     appmappingData.obj
 0002:00003680       _appInfo                   1003c680     appmappingData.obj
 0002:000037dc       ??_C@_0CC@DMFKNLL@VendorId?5?$DN?50x?$CFx?0?5DeviceId?5?$DN?50x?$CFx@ 1003c7dc     xpcruntime:xpcimports.obj
 0002:00003800       ??_C@_0DH@OHCBLNMG@Subsystem?5Device?5ID?5?$DN?50x?$CFx?6Subsy@ 1003c800     xpcruntime:xpcimports.obj
 0002:00003838       ??_C@_0BD@MMMMEFCM@Class?5Code?5?$DN?50x?$CFx?6?$AA@ 1003c838     xpcruntime:xpcimports.obj
 0002:0000384c       ??_C@_0BE@OLDDDNHM@InterruptLine?5?$DN?5?$CFd?6?$AA@ 1003c84c     xpcruntime:xpcimports.obj
 0002:00003860       ??_C@_0BF@OLKLEKBD@bus?5?$DN?5?$CFd?0?5slot?5?$DN?5?$CFd?6?$AA@ 1003c860     xpcruntime:xpcimports.obj
 0002:00003878       ??_C@_0CE@DGLLGDFH@?5?5?5?5Phys?5?5?5Virtual?5?5?5Length?5IO?1M@ 1003c878     xpcruntime:xpcimports.obj
 0002:0000389c       ??_C@_0BI@FEOPLEMG@?$CF08x?5?$CF08x?5?$CF08x?5?5?5?5?5?5?$CFc?6?$AA@ 1003c89c     xpcruntime:xpcimports.obj
 0002:000038b4       ??_C@_0BB@BNNCEDPC@rl32eScopeExists?$AA@ 1003c8b4     xpcruntime:xpcimports.obj
 0002:000038c8       ??_C@_0BM@FJBFEGFG@rl32eScopeExists?5not?5found?6?$AA@ 1003c8c8     xpcruntime:xpcimports.obj
 0002:000038e4       ??_C@_0O@BNNGKJEA@rl32eDefScope?$AA@ 1003c8e4     xpcruntime:xpcimports.obj
 0002:000038f4       ??_C@_0BJ@CDNOENKA@rl32eDefScope?5not?5found?6?$AA@ 1003c8f4     xpcruntime:xpcimports.obj
 0002:00003910       ??_C@_0P@CKNKILDP@rl32eAddSignal?$AA@ 1003c910     xpcruntime:xpcimports.obj
 0002:00003920       ??_C@_0BK@GMJAJBAI@rl32eAddSignal?5not?5found?6?$AA@ 1003c920     xpcruntime:xpcimports.obj
 0002:0000393c       ??_C@_0BB@LDMIHGCE@rl32eGetSignalNo?$AA@ 1003c93c     xpcruntime:xpcimports.obj
 0002:00003950       ??_C@_0BM@LGAMBAID@rl32eGetSignalNo?5not?5found?6?$AA@ 1003c950     xpcruntime:xpcimports.obj
 0002:0000396c       ??_C@_0O@CFDGALBP@rl32eSetScope?$AA@ 1003c96c     xpcruntime:xpcimports.obj
 0002:0000397c       ??_C@_0BJ@JCLHHIN@rl32eSetScope?5not?5found?6?$AA@ 1003c97c     xpcruntime:xpcimports.obj
 0002:00003998       ??_C@_0P@IKMCBMHH@xpceFSScopeSet?$AA@ 1003c998     xpcruntime:xpcimports.obj
 0002:000039a8       ??_C@_0BK@JODJPNNH@xpceFSScopeSet?5not?5found?6?$AA@ 1003c9a8     xpcruntime:xpcimports.obj
 0002:000039c4       ??_C@_0BE@DLACEEJM@rl32eSetTargetScope?$AA@ 1003c9c4     xpcruntime:xpcimports.obj
 0002:000039d8       ??_C@_0BP@JCHFMKPJ@rl32eSetTargetScope?5not?5found?6?$AA@ 1003c9d8     xpcruntime:xpcimports.obj
 0002:000039f8       ??_C@_0BJ@LIDLNDHC@rl32eSetTargetScopeSigFt?$AA@ 1003c9f8     xpcruntime:xpcimports.obj
 0002:00003a14       ??_C@_0CE@JLGHCFHI@rl32eSetTargetScopeSigFt?5not?5fou@ 1003ca14     xpcruntime:xpcimports.obj
 0002:00003a38       ??_C@_0BI@JAPOIDNG@rl32eRestartAcquisition?$AA@ 1003ca38     xpcruntime:xpcimports.obj
 0002:00003a50       ??_C@_0CD@LLBEFFBO@rl32eRestartAcquisition?5not?5foun@ 1003ca50     xpcruntime:xpcimports.obj
 0002:00003a74       ??_C@_0P@IEIIADJB@xpceScopeAcqOK?$AA@ 1003ca74     xpcruntime:xpcimports.obj
 0002:00003a84       ??_C@_0BK@NJCKNFPN@xpceScopeAcqOK?5not?5found?6?$AA@ 1003ca84     xpcruntime:xpcimports.obj
 0002:00003aa0       ??_C@_0BA@IJINKAHF@xpceRegisterISR?$AA@ 1003caa0     xpcruntime:xpcimports.obj
 0002:00003ab0       ??_C@_0BL@NNDLOEJE@xpceRegisterISR?5not?5found?6?$AA@ 1003cab0     xpcruntime:xpcimports.obj
 0002:00003acc       ??_C@_0BC@NLBADGKF@xpceDeRegisterISR?$AA@ 1003cacc     xpcruntime:xpcimports.obj
 0002:00003ae0       ??_C@_0BN@DCAIKFFD@xpceDeRegisterISR?5not?5found?6?$AA@ 1003cae0     xpcruntime:xpcimports.obj
 0002:00003b00       ??_C@_0P@CPGPNKEB@xpceFTReadTime?$AA@ 1003cb00     xpcruntime:xpcimports.obj
 0002:00003b10       ??_C@_0BK@NMABIODN@xpceFTReadTime?5not?5found?6?$AA@ 1003cb10     xpcruntime:xpcimports.obj
 0002:00003b2c       ??_C@_09PHNHCHFH@xpceFTAdd?$AA@ 1003cb2c     xpcruntime:xpcimports.obj
 0002:00003b38       ??_C@_0BF@FJLEIILA@xpceFTAdd?5not?5found?6?$AA@ 1003cb38     xpcruntime:xpcimports.obj
 0002:00003b50       ??_C@_0P@KEODBLHO@xpceFTSubtract?$AA@ 1003cb50     xpcruntime:xpcimports.obj
 0002:00003b60       ??_C@_0BK@HONODOKP@xpceFTSubtract?5not?5found?6?$AA@ 1003cb60     xpcruntime:xpcimports.obj
 0002:00003b7c       ??_C@_07JPMEPILD@xpcInpB?$AA@ 1003cb7c     xpcruntime:xpcimports.obj
 0002:00003b84       ??_C@_0BD@PGABEJOL@xpcInpB?5not?5found?6?$AA@ 1003cb84     xpcruntime:xpcimports.obj
 0002:00003b98       ??_C@_07KIHBBOKH@xpcInpW?$AA@ 1003cb98     xpcruntime:xpcimports.obj
 0002:00003ba0       ??_C@_0BD@FPCJFMCC@xpcInpW?5not?5found?6?$AA@ 1003cba0     xpcruntime:xpcimports.obj
 0002:00003bb4       ??_C@_08KDIAJBOP@xpcInpDW?$AA@ 1003cbb4     xpcruntime:xpcimports.obj
 0002:00003bc0       ??_C@_0BE@PIELDNIL@xpcInpDW?5not?5found?6?$AA@ 1003cbc0     xpcruntime:xpcimports.obj
 0002:00003bd4       ??_C@_08PJFMOIGO@xpcOutpB?$AA@ 1003cbd4     xpcruntime:xpcimports.obj
 0002:00003be0       ??_C@_0BE@HCKNCEKF@xpcOutpB?5not?5found?6?$AA@ 1003cbe0     xpcruntime:xpcimports.obj
 0002:00003bf4       ??_C@_08MOOJAOHK@xpcOutpW?$AA@ 1003cbf4     xpcruntime:xpcimports.obj
 0002:00003c00       ??_C@_0BE@NLIFDBGM@xpcOutpW?5not?5found?6?$AA@ 1003cc00     xpcruntime:xpcimports.obj
 0002:00003c14       ??_C@_09FLIEKHJG@xpcOutpDW?$AA@ 1003cc14     xpcruntime:xpcimports.obj
 0002:00003c20       ??_C@_0BF@GJKLPNHB@xpcOutpDW?5not?5found?6?$AA@ 1003cc20     xpcruntime:xpcimports.obj
 0002:00003c38       ??_C@_0BH@EHOLELHH@xpcReserveMemoryRegion?$AA@ 1003cc38     xpcruntime:xpcimports.obj
 0002:00003c50       ??_C@_0CC@KAAAGPI@xpcReserveMemoryRegion?5not?5found@ 1003cc50     xpcruntime:xpcimports.obj
 0002:00003c74       ??_C@_0BA@JGPMHGAF@rl32eShowPCIDev?$AA@ 1003cc74     xpcruntime:xpcimports.obj
 0002:00003c84       ??_C@_0BL@DDFFLNHI@rl32eShowPCIDev?5not?5found?6?$AA@ 1003cc84     xpcruntime:xpcimports.obj
 0002:00003ca0       ??_C@_0BB@KBCOJPFB@rl32eShowPCIInfo?$AA@ 1003cca0     xpcruntime:xpcimports.obj
 0002:00003cb4       ??_C@_0BM@IFDMAGLO@rl32eShowPCIInfo?5not?5found?6?$AA@ 1003ccb4     xpcruntime:xpcimports.obj
 0002:00003cd0       ??_C@_0BA@BGPAADB@rl32eGetPCIInfo?$AA@ 1003ccd0     xpcruntime:xpcimports.obj
 0002:00003ce0       ??_C@_0BL@IGOMLDCK@rl32eGetPCIInfo?5not?5found?6?$AA@ 1003cce0     xpcruntime:xpcimports.obj
 0002:00003cfc       ??_C@_0BG@NJPFKFDP@rl32eGetPCIInfoAtSlot?$AA@ 1003ccfc     xpcruntime:xpcimports.obj
 0002:00003d14       ??_C@_0CB@BBKIPMLA@rl32eGetPCIInfoAtSlot?5not?5found?6@ 1003cd14     xpcruntime:xpcimports.obj
 0002:00003d38       ??_C@_0BH@OKBOPNFG@xpceAssignPCIInterrupt?$AA@ 1003cd38     xpcruntime:xpcimports.obj
 0002:00003d50       ??_C@_0CC@CDNDNJBJ@xpceAssignPCIInterrupt?5not?5found@ 1003cd50     xpcruntime:xpcimports.obj
 0002:00003d74       ??_C@_0BB@FCHHFAAH@rl32eInitCOMPort?$AA@ 1003cd74     xpcruntime:xpcimports.obj
 0002:00003d88       ??_C@_0BM@DDJGKAHB@rl32eInitCOMPort?5not?5found?6?$AA@ 1003cd88     xpcruntime:xpcimports.obj
 0002:00003da4       ??_C@_0BC@CHEEFCP@rl32eCloseCOMPort?$AA@ 1003cda4     xpcruntime:xpcimports.obj
 0002:00003db8       ??_C@_0BN@KCOFELEM@rl32eCloseCOMPort?5not?5found?6?$AA@ 1003cdb8     xpcruntime:xpcimports.obj
 0002:00003dd8       ??_C@_0O@LLJGKFOG@rl32eSendChar?$AA@ 1003cdd8     xpcruntime:xpcimports.obj
 0002:00003de8       ??_C@_0BJ@JCJKDACJ@rl32eSendChar?5not?5found?6?$AA@ 1003cde8     xpcruntime:xpcimports.obj
 0002:00003e04       ??_C@_0BB@OMFKCOEK@rl32eReceiveChar?$AA@ 1003ce04     xpcruntime:xpcimports.obj
 0002:00003e18       ??_C@_0BM@HGAIOAND@rl32eReceiveChar?5not?5found?6?$AA@ 1003ce18     xpcruntime:xpcimports.obj
 0002:00003e34       ??_C@_0BI@PKEJFHMJ@rl32eReceiveBufferCount?$AA@ 1003ce34     xpcruntime:xpcimports.obj
 0002:00003e4c       ??_C@_0CD@LNMOFLAH@rl32eReceiveBufferCount?5not?5foun@ 1003ce4c     xpcruntime:xpcimports.obj
 0002:00003e70       ??_C@_0BA@CFIJOJPK@rl32eLineStatus?$AA@ 1003ce70     xpcruntime:xpcimports.obj
 0002:00003e80       ??_C@_0BL@PLIDKKGI@rl32eLineStatus?5not?5found?6?$AA@ 1003ce80     xpcruntime:xpcimports.obj
 0002:00003e9c       ??_C@_0P@MDMKIJF@rl32eSendBlock?$AA@ 1003ce9c     xpcruntime:xpcimports.obj
 0002:00003eac       ??_C@_0BK@KNBNFIKH@rl32eSendBlock?5not?5found?6?$AA@ 1003ceac     xpcruntime:xpcimports.obj
 0002:00003ec8       ??_C@_0BD@PCKOKHO@xpceGetSignalValue?$AA@ 1003cec8     xpcruntime:xpcimports.obj
 0002:00003edc       ??_C@_0BO@GCBDJHMB@xpceGetSignalValue?5not?5found?6?$AA@ 1003cedc     xpcruntime:xpcimports.obj
 0002:00003efc       ??_C@_0BB@BJONJAGA@xpceSetParameter?$AA@ 1003cefc     xpcruntime:xpcimports.obj
 0002:00003f10       ??_C@_0BM@BJIKDLHA@xpceSetParameter?5not?5found?6?$AA@ 1003cf10     xpcruntime:xpcimports.obj
 0002:00003f2c       ??_C@_0BB@GNFDFMCM@xpceGetParameter?$AA@ 1003cf2c     xpcruntime:xpcimports.obj
 0002:00003f40       ??_C@_0BM@POHNKBC@xpceGetParameter?5not?5found?6?$AA@ 1003cf40     xpcruntime:xpcimports.obj
 0002:00003f5c       ??_C@_0BB@CEIJLFCD@xpceGetParamDims?$AA@ 1003cf5c     xpcruntime:xpcimports.obj
 0002:00003f70       ??_C@_0BM@OABDBKAO@xpceGetParamDims?5not?5found?6?$AA@ 1003cf70     xpcruntime:xpcimports.obj
 0002:00003f8c       ??_C@_0L@OCBLLHBM@xpceGetTET?$AA@ 1003cf8c     xpcruntime:xpcimports.obj
 0002:00003f98       ??_C@_0BG@HNOFBOB@xpceGetTET?5not?5found?6?$AA@ 1003cf98     xpcruntime:xpcimports.obj
 0002:00003fb0       ??_C@_0BA@FHMIOKFL@xpceUDPOpenSend?$AA@ 1003cfb0     xpcruntime:xpcimports.obj
 0002:00003fc0       ??_C@_0BL@HNLPFEK@xpceUDPOpenSend?5not?5found?6?$AA@ 1003cfc0     xpcruntime:xpcimports.obj
 0002:00003fdc       ??_C@_0BD@BCELJJJL@xpceUDPOpenReceive?$AA@ 1003cfdc     xpcruntime:xpcimports.obj
 0002:00003ff0       ??_C@_0BO@IFKJBHKC@xpceUDPOpenReceive?5not?5found?6?$AA@ 1003cff0     xpcruntime:xpcimports.obj
 0002:00004010       ??_C@_0M@OFPFLJGN@xpceUDPSend?$AA@ 1003d010     xpcruntime:xpcimports.obj
 0002:0000401c       ??_C@_0BH@NOIKLPAB@xpceUDPSend?5not?5found?6?$AA@ 1003d01c     xpcruntime:xpcimports.obj
 0002:00004034       ??_C@_0P@PLFDECIN@xpceUDPReceive?$AA@ 1003d034     xpcruntime:xpcimports.obj
 0002:00004044       ??_C@_0BK@OPJMLDLH@xpceUDPReceive?5not?5found?6?$AA@ 1003d044     xpcruntime:xpcimports.obj
 0002:00004060       ??_C@_0N@IEHPMFME@xpceUDPClose?$AA@ 1003d060     xpcruntime:xpcimports.obj
 0002:00004070       ??_C@_0BI@FHPFHECO@xpceUDPClose?5not?5found?6?$AA@ 1003d070     xpcruntime:xpcimports.obj
 0002:00004088       ??_C@_0P@OKGNGAGH@xpcIsModelInit?$AA@ 1003d088     xpcruntime:xpcimports.obj
 0002:00004098       ??_C@_0BK@DHEMLBIM@xpcIsModelInit?5not?5found?6?$AA@ 1003d098     xpcruntime:xpcimports.obj
 0002:000040b4       ??_C@_0BH@KJJLCAOJ@xpcAllocPhysicalMemory?$AA@ 1003d0b4     xpcruntime:xpcimports.obj
 0002:000040cc       ??_C@_0CC@MOJPNHKL@xpcAllocPhysicalMemory?5not?5found@ 1003d0cc     xpcruntime:xpcimports.obj
 0002:000040f0       ??_C@_0BG@CBNPGAEL@xpcFreePhysicalMemory?$AA@ 1003d0f0     xpcruntime:xpcimports.obj
 0002:00004108       ??_C@_0CB@PKJEBPOG@xpcFreePhysicalMemory?5not?5found?6@ 1003d108     xpcruntime:xpcimports.obj
 0002:0000412c       ??_C@_0BC@JGKNLICL@xpcGetElapsedTime?$AA@ 1003d12c     xpcruntime:xpcimports.obj
 0002:00004140       ??_C@_0BN@OEOAHCIO@xpcGetElapsedTime?5not?5found?6?$AA@ 1003d140     xpcruntime:xpcimports.obj
 0002:00004160       ??_C@_0M@ICBLMODA@xpcBusyWait?$AA@ 1003d160     xpcruntime:xpcimports.obj
 0002:0000416c       ??_C@_0BH@FBOPECBI@xpcBusyWait?5not?5found?6?$AA@ 1003d16c     xpcruntime:xpcimports.obj
 0002:00004184       ??_C@_0N@LKKJEKKA@TBCreateSpin?$AA@ 1003d184     xpcruntime:xpcimports.obj
 0002:00004194       ??_C@_0BI@FHKMLKOE@TBCreateSpin?5not?5found?6?$AA@ 1003d194     xpcruntime:xpcimports.obj
 0002:000041ac       ??_C@_0N@HOAJHNBD@TBDeleteSpin?$AA@ 1003d1ac     xpcruntime:xpcimports.obj
 0002:000041bc       ??_C@_0BI@BKCPAAG@TBDeleteSpin?5not?5found?6?$AA@ 1003d1bc     xpcruntime:xpcimports.obj
 0002:000041d4       ??_C@_0P@DAHDDBJG@TBTakeSpinFast?$AA@ 1003d1d4     xpcruntime:xpcimports.obj
 0002:000041e4       ??_C@_0BK@NKAIBHGB@TBTakeSpinFast?5not?5found?6?$AA@ 1003d1e4     xpcruntime:xpcimports.obj
 0002:00004200       ??_C@_0P@FKNAAELA@TBGiveSpinFast?$AA@ 1003d200     xpcruntime:xpcimports.obj
 0002:00004210       ??_C@_0BK@KGPJBJND@TBGiveSpinFast?5not?5found?6?$AA@ 1003d210     xpcruntime:xpcimports.obj
 0002:0000422c       ??_C@_0BE@IIGBFDHK@xpceCreateSemaphore?$AA@ 1003d22c     xpcruntime:xpcimports.obj
 0002:00004240       ??_C@_0BP@KFBAFFKJ@xpceCreateSemaphore?5not?5found?6?$AA@ 1003d240     xpcruntime:xpcimports.obj
 0002:00004260       ??_C@_0BC@IFNIONKJ@xpceWaitSemaphore?$AA@ 1003d260     xpcruntime:xpcimports.obj
 0002:00004274       ??_C@_0BN@NMFAADIO@xpceWaitSemaphore?5not?5found?6?$AA@ 1003d274     xpcruntime:xpcimports.obj
 0002:00004294       ??_C@_0BE@NNDIOBKE@xpceSignalSemaphore?$AA@ 1003d294     xpcruntime:xpcimports.obj
 0002:000042a8       ??_C@_0BP@LBANMHJP@xpceSignalSemaphore?5not?5found?6?$AA@ 1003d2a8     xpcruntime:xpcimports.obj
 0002:000042c8       ??_C@_0BE@MEBEKOIM@xpceDeleteSemaphore?$AA@ 1003d2c8     xpcruntime:xpcimports.obj
 0002:000042dc       ??_C@_0BP@OFNCKOJH@xpceDeleteSemaphore?5not?5found?6?$AA@ 1003d2dc     xpcruntime:xpcimports.obj
 0002:000042fc       ??_C@_0BD@MFNDMBOF@FindUsbVideoDevice?$AA@ 1003d2fc     xpcruntime:xpcimports.obj
 0002:00004310       ??_C@_0BO@POKLDHMI@FindUsbVideoDevice?5not?5found?6?$AA@ 1003d310     xpcruntime:xpcimports.obj
 0002:00004330       ??_C@_0BA@PLPAPNAB@GetVideoConfigs?$AA@ 1003d330     xpcruntime:xpcimports.obj
 0002:00004340       ??_C@_0BL@DALDHKHC@GetVideoConfigs?5not?5found?6?$AA@ 1003d340     xpcruntime:xpcimports.obj
 0002:0000435c       ??_C@_0L@GBAEMHMH@StartVideo?$AA@ 1003d35c     xpcruntime:xpcimports.obj
 0002:00004368       ??_C@_0BG@HDCELEBP@StartVideo?5not?5found?6?$AA@ 1003d368     xpcruntime:xpcimports.obj
 0002:00004380       ??_C@_0BA@FDNPOCLN@ReadFrameBuffer?$AA@ 1003d380     xpcruntime:xpcimports.obj
 0002:00004390       ??_C@_0BL@JHGHPNBI@ReadFrameBuffer?5not?5found?6?$AA@ 1003d390     xpcruntime:xpcimports.obj
 0002:000043ac       ??_C@_09FAHCLKAG@StopVideo?$AA@ 1003d3ac     xpcruntime:xpcimports.obj
 0002:000043b8       ??_C@_0BF@NKGKKADL@StopVideo?5not?5found?6?$AA@ 1003d3b8     xpcruntime:xpcimports.obj
 0002:000043d0       ??_C@_0O@MCPKDLLL@ConvertUImage?$AA@ 1003d3d0     xpcruntime:xpcimports.obj
 0002:000043e0       ??_C@_0BJ@PHJKOAFL@ConvertUImage?5not?5found?6?$AA@ 1003d3e0     xpcruntime:xpcimports.obj
 0002:000043fc       ??_C@_0BD@NKCBPBJJ@CreateVideoDisplay?$AA@ 1003d3fc     xpcruntime:xpcimports.obj
 0002:00004410       ??_C@_0BO@HPPLLNFP@CreateVideoDisplay?5not?5found?6?$AA@ 1003d410     xpcruntime:xpcimports.obj
 0002:00004430       ??_C@_0BE@KJCKGPHA@DestroyVideoDisplay?$AA@ 1003d430     xpcruntime:xpcimports.obj
 0002:00004444       ??_C@_0BP@FMGLJAIJ@DestroyVideoDisplay?5not?5found?6?$AA@ 1003d444     xpcruntime:xpcimports.obj
 0002:00004464       ??_C@_0BC@HCMIMIDN@StartVideoDisplay?$AA@ 1003d464     xpcruntime:xpcimports.obj
 0002:00004478       ??_C@_0BN@EFIEBGOO@StartVideoDisplay?5not?5found?6?$AA@ 1003d478     xpcruntime:xpcimports.obj
 0002:00004498       ??_C@_0BB@JBBLMILG@StopVideoDisplay?$AA@ 1003d498     xpcruntime:xpcimports.obj
 0002:000044ac       ??_C@_0BM@DBJBPLEL@StopVideoDisplay?5not?5found?6?$AA@ 1003d4ac     xpcruntime:xpcimports.obj
 0002:000044c8       ??_C@_0M@MFJEGMHC@StreamVideo?$AA@ 1003d4c8     xpcruntime:xpcimports.obj
 0002:000044d4       ??_C@_0BH@OINCDMLA@StreamVideo?5not?5found?6?$AA@ 1003d4d4     xpcruntime:xpcimports.obj
 0002:000044ec       ??_C@_0N@IGGLCIGE@xpceaddEvent?$AA@ 1003d4ec     xpcruntime:xpcimports.obj
 0002:000044fc       ??_C@_0BI@NHJNFMKH@xpceaddEvent?5not?5found?6?$AA@ 1003d4fc     xpcruntime:xpcimports.obj
 0002:00004514       ??_C@_0BB@LCMHHHFN@getMemoryService?$AA@ 1003d514     xpcruntime:xpcimports.obj
 0002:00004528       ??_C@_0BM@MPLCNIIE@getMemoryService?5not?5found?6?$AA@ 1003d528     xpcruntime:xpcimports.obj
 0002:00004544       ??_C@_0P@KIKONDKK@getCommService?$AA@ 1003d544     xpcruntime:xpcimports.obj
 0002:00004554       ??_C@_0BK@NCECBKNM@getCommService?5not?5found?6?$AA@ 1003d554     xpcruntime:xpcimports.obj
 0002:00004570       ??_C@_0P@GDLHFECE@getStatusFlags?$AA@ 1003d570     xpcruntime:xpcimports.obj
 0002:00004580       ??_C@_0BK@NEKDLJHG@getStatusFlags?5not?5found?6?$AA@ 1003d580     xpcruntime:xpcimports.obj
 0002:0000459c       ??_C@_0BL@CDFCLKOL@startToAsyncQueueTgtAppSvc?$AA@ 1003d59c     xpcruntime:xpcimports.obj
 0002:000045b8       ??_C@_0CG@JGOFFKEL@startToAsyncQueueTgtAppSvc?5not?5f@ 1003d5b8     xpcruntime:xpcimports.obj
 0002:000045e0       ??_C@_0BP@IJNGPPPE@terminateToAsyncQueueTgtAppSvc?$AA@ 1003d5e0     xpcruntime:xpcimports.obj
 0002:00004600       ??_C@_0CK@NDEMAMKF@terminateToAsyncQueueTgtAppSvc?5n@ 1003d600     xpcruntime:xpcimports.obj
 0002:0000462c       ??_C@_0BK@IDACEHAO@sendToAsyncQueueTgtAppSvc?$AA@ 1003d62c     xpcruntime:xpcimports.obj
 0002:00004648       ??_C@_0CF@PNCKPEHN@sendToAsyncQueueTgtAppSvc?5not?5fo@ 1003d648     xpcruntime:xpcimports.obj
 0002:00004670       ??_C@_0BN@HJOHIFOM@xpceGetIntTimerGranularityNS?$AA@ 1003d670     xpcruntime:xpcimports.obj
 0002:00004690       ??_C@_0CI@OADDPMKB@xpceGetIntTimerGranularityNS?5not@ 1003d690     xpcruntime:xpcimports.obj
 0002:000046b8       ??_C@_0BG@CCHICKPN@slrteSetStepSizeDelta?$AA@ 1003d6b8     xpcruntime:xpcimports.obj
 0002:000046d0       ??_C@_0CB@MKHINEIJ@slrteSetStepSizeDelta?5not?5found?6@ 1003d6d0     xpcruntime:xpcimports.obj
 0002:000046f4       ??_C@_0BI@CLNBLDKJ@slrteGetCurrentStepSize?$AA@ 1003d6f4     xpcruntime:xpcimports.obj
 0002:0000470c       ??_C@_0CD@GIOJPGJA@slrteGetCurrentStepSize?5not?5foun@ 1003d70c     xpcruntime:xpcimports.obj
 0002:00004730       ??_C@_0BE@FCLCBOC@registerPTPTimeRead?$AA@ 1003d730     xpcruntime:xpcimports.obj
 0002:00004744       ??_C@_0BP@LHPKAJIP@registerPTPTimeRead?5not?5found?6?$AA@ 1003d744     xpcruntime:xpcimports.obj
 0002:00004764       ??_C@_0BG@KIGCDDJI@unRegisterPTPTimeRead?$AA@ 1003d764     xpcruntime:xpcimports.obj
 0002:0000477c       ??_C@_0CB@MLFFBFCM@unRegisterPTPTimeRead?5not?5found?6@ 1003d77c     xpcruntime:xpcimports.obj
 0002:000047a0       ??_C@_0BB@IPMDDBHK@slTestInitialize?$AA@ 1003d7a0     xpcruntime:xpcimports.obj
 0002:000047b4       ??_C@_0BM@LAJFCCJH@slTestInitialize?5not?5found?6?$AA@ 1003d7b4     xpcruntime:xpcimports.obj
 0002:000047d0       ??_C@_0BF@OOMPMEBC@slTestLogAssessments?$AA@ 1003d7d0     xpcruntime:xpcimports.obj
 0002:000047e8       ??_C@_0CA@FGJCEBAG@slTestLogAssessments?5not?5found?6?$AA@ 1003d7e8     xpcruntime:xpcimports.obj
 0002:00004808       ??_C@_0BB@HJHKONHO@slTestEvalOnFail?$AA@ 1003d808     xpcruntime:xpcimports.obj
 0002:0000481c       ??_C@_0BM@JIKCFFNJ@slTestEvalOnFail?5not?5found?6?$AA@ 1003d81c     xpcruntime:xpcimports.obj
 0002:00004838       ??_C@_0BA@LBHLABFP@slTestTerminate?$AA@ 1003d838     xpcruntime:xpcimports.obj
 0002:00004848       ??_C@_0BL@EMFGKAPA@slTestTerminate?5not?5found?6?$AA@ 1003d848     xpcruntime:xpcimports.obj
 0002:00004864       ??_C@_0BE@JPNPBBEO@slTestRegAssessment?$AA@ 1003d864     xpcruntime:xpcimports.obj
 0002:00004878       ??_C@_0BP@FBDEJJJH@slTestRegAssessment?5not?5found?6?$AA@ 1003d878     xpcruntime:xpcimports.obj
 0002:000081c0       __FPinit                   100411c0     LIBCMT:fpinit.obj
 0002:000081cc       ??_C@_1BI@BGOHAHKC@?$AAm?$AAs?$AAc?$AAo?$AAr?$AAe?$AAe?$AA?4?$AAd?$AAl?$AAl?$AA?$AA@ 100411cc     LIBCMT:crt0dat.obj
 0002:000081e4       ??_C@_0P@MIGLKIOC@CorExitProcess?$AA@ 100411e4     LIBCMT:crt0dat.obj
 0002:000081f4       ??_C@_17LGKOMLJ@?$AA?4?$AA?4?$AA?4?$AA?$AA@ 100411f4     LIBCMT:wassert.obj
 0002:000081fc       ??_C@_13LBAGMAIH@?$AA?6?$AA?$AA@ 100411fc     LIBCMT:wassert.obj
 0002:00008200       ??_C@_15IABLJNFO@?$AA?6?$AA?6?$AA?$AA@ 10041200     LIBCMT:wassert.obj
 0002:00008208       ??_C@_1CE@OJBNHDMO@?$AAA?$AAs?$AAs?$AAe?$AAr?$AAt?$AAi?$AAo?$AAn?$AA?5?$AAf?$AAa?$AAi?$AAl?$AAe?$AAd?$AA?$CB?$AA?$AA@ 10041208     LIBCMT:wassert.obj
 0002:0000822c       ??_C@_1BE@PHKBBGE@?$AAP?$AAr?$AAo?$AAg?$AAr?$AAa?$AAm?$AA?3?$AA?5?$AA?$AA@ 1004122c     LIBCMT:wassert.obj
 0002:00008240       ??_C@_1CO@EAEJAADC@?$AA?$DM?$AAp?$AAr?$AAo?$AAg?$AAr?$AAa?$AAm?$AA?5?$AAn?$AAa?$AAm?$AAe?$AA?5?$AAu?$AAn?$AAk?$AAn?$AAo?$AAw?$AAn?$AA?$DO?$AA?$AA@ 10041240     LIBCMT:wassert.obj
 0002:00008270       ??_C@_1O@HEMHKNDC@?$AAF?$AAi?$AAl?$AAe?$AA?3?$AA?5?$AA?$AA@ 10041270     LIBCMT:wassert.obj
 0002:00008280       ??_C@_1O@KCAFKHJE@?$AAL?$AAi?$AAn?$AAe?$AA?3?$AA?5?$AA?$AA@ 10041280     LIBCMT:wassert.obj
 0002:00008290       ??_C@_1BK@PEDCIPMA@?$AAE?$AAx?$AAp?$AAr?$AAe?$AAs?$AAs?$AAi?$AAo?$AAn?$AA?3?$AA?5?$AA?$AA@ 10041290     LIBCMT:wassert.obj
 0002:000082b0       ??_C@_1OA@EGMLFBHJ@?$AAF?$AAo?$AAr?$AA?5?$AAi?$AAn?$AAf?$AAo?$AAr?$AAm?$AAa?$AAt?$AAi?$AAo?$AAn?$AA?5?$AAo?$AAn?$AA?5?$AAh?$AAo?$AAw?$AA?5?$AAy?$AAo?$AAu?$AAr?$AA?5?$AAp?$AAr?$AAo?$AAg@ 100412b0     LIBCMT:wassert.obj
 0002:00008390       ??_C@_1HK@POCJMFGK@?$AA?$CI?$AAP?$AAr?$AAe?$AAs?$AAs?$AA?5?$AAR?$AAe?$AAt?$AAr?$AAy?$AA?5?$AAt?$AAo?$AA?5?$AAd?$AAe?$AAb?$AAu?$AAg?$AA?5?$AAt?$AAh?$AAe?$AA?5?$AAa?$AAp?$AAp?$AAl?$AAi?$AAc@ 10041390     LIBCMT:wassert.obj
 0002:00008410       ??_C@_1EK@MBDPDCGA@?$AAM?$AAi?$AAc?$AAr?$AAo?$AAs?$AAo?$AAf?$AAt?$AA?5?$AAV?$AAi?$AAs?$AAu?$AAa?$AAl?$AA?5?$AAC?$AA?$CL?$AA?$CL?$AA?5?$AAR?$AAu?$AAn?$AAt?$AAi?$AAm?$AAe?$AA?5?$AAL?$AAi?$AAb@ 10041410     LIBCMT:wassert.obj
 0002:0000845c       __pRawDllMain              1004145c     LIBCMT:dllcrt0.obj
 0002:0000845c       __pDefaultRawDllMain       1004145c     LIBCMT:dllcrt0.obj
 0002:00008460       ?ProcessDetach@NativeDll@<CrtImplementationDetails>@@0IB 10041460     LIBCMT:handler.obj
 0002:00008464       ?ProcessAttach@NativeDll@<CrtImplementationDetails>@@0IB 10041464     LIBCMT:handler.obj
 0002:00008468       ?ThreadAttach@NativeDll@<CrtImplementationDetails>@@0IB 10041468     LIBCMT:handler.obj
 0002:0000846c       ?ThreadDetach@NativeDll@<CrtImplementationDetails>@@0IB 1004146c     LIBCMT:handler.obj
 0002:00008470       ?ProcessVerifier@NativeDll@<CrtImplementationDetails>@@0IB 10041470     LIBCMT:handler.obj
 0002:00008530       ??_C@_1FK@PGACCAFB@?$AAR?$AA6?$AA0?$AA0?$AA2?$AA?$AN?$AA?6?$AA?9?$AA?5?$AAf?$AAl?$AAo?$AAa?$AAt?$AAi?$AAn?$AAg?$AA?5?$AAp?$AAo?$AAi?$AAn?$AAt?$AA?5?$AAs?$AAu?$AAp?$AAp?$AAo?$AAr?$AAt?$AA?5@ 10041530     LIBCMT:crt0msg.obj
 0002:00008590       ??_C@_1FE@LLNEDJMD@?$AAR?$AA6?$AA0?$AA0?$AA8?$AA?$AN?$AA?6?$AA?9?$AA?5?$AAn?$AAo?$AAt?$AA?5?$AAe?$AAn?$AAo?$AAu?$AAg?$AAh?$AA?5?$AAs?$AAp?$AAa?$AAc?$AAe?$AA?5?$AAf?$AAo?$AAr?$AA?5?$AAa?$AAr@ 10041590     LIBCMT:crt0msg.obj
 0002:000085e8       ??_C@_1FI@HONFMGBI@?$AAR?$AA6?$AA0?$AA0?$AA9?$AA?$AN?$AA?6?$AA?9?$AA?5?$AAn?$AAo?$AAt?$AA?5?$AAe?$AAn?$AAo?$AAu?$AAg?$AAh?$AA?5?$AAs?$AAp?$AAa?$AAc?$AAe?$AA?5?$AAf?$AAo?$AAr?$AA?5?$AAe?$AAn@ 100415e8     LIBCMT:crt0msg.obj
 0002:00008640       ??_C@_1EG@BEHAGFJD@?$AAR?$AA6?$AA0?$AA1?$AA0?$AA?$AN?$AA?6?$AA?9?$AA?5?$AAa?$AAb?$AAo?$AAr?$AAt?$AA?$CI?$AA?$CJ?$AA?5?$AAh?$AAa?$AAs?$AA?5?$AAb?$AAe?$AAe?$AAn?$AA?5?$AAc?$AAa?$AAl?$AAl?$AAe?$AAd@ 10041640     LIBCMT:crt0msg.obj
 0002:00008688       ??_C@_1FI@LOGNIKDM@?$AAR?$AA6?$AA0?$AA1?$AA6?$AA?$AN?$AA?6?$AA?9?$AA?5?$AAn?$AAo?$AAt?$AA?5?$AAe?$AAn?$AAo?$AAu?$AAg?$AAh?$AA?5?$AAs?$AAp?$AAa?$AAc?$AAe?$AA?5?$AAf?$AAo?$AAr?$AA?5?$AAt?$AAh@ 10041688     LIBCMT:crt0msg.obj
 0002:000086e0       ??_C@_1FK@BEOGODMC@?$AAR?$AA6?$AA0?$AA1?$AA7?$AA?$AN?$AA?6?$AA?9?$AA?5?$AAu?$AAn?$AAe?$AAx?$AAp?$AAe?$AAc?$AAt?$AAe?$AAd?$AA?5?$AAm?$AAu?$AAl?$AAt?$AAi?$AAt?$AAh?$AAr?$AAe?$AAa?$AAd?$AA?5@ 100416e0     LIBCMT:crt0msg.obj
 0002:00008740       ??_C@_1EC@JIBHAOPH@?$AAR?$AA6?$AA0?$AA1?$AA8?$AA?$AN?$AA?6?$AA?9?$AA?5?$AAu?$AAn?$AAe?$AAx?$AAp?$AAe?$AAc?$AAt?$AAe?$AAd?$AA?5?$AAh?$AAe?$AAa?$AAp?$AA?5?$AAe?$AAr?$AAr?$AAo?$AAr?$AA?$AN?$AA?6@ 10041740     LIBCMT:crt0msg.obj
 0002:00008788       ??_C@_1FC@ECHBIFBC@?$AAR?$AA6?$AA0?$AA1?$AA9?$AA?$AN?$AA?6?$AA?9?$AA?5?$AAu?$AAn?$AAa?$AAb?$AAl?$AAe?$AA?5?$AAt?$AAo?$AA?5?$AAo?$AAp?$AAe?$AAn?$AA?5?$AAc?$AAo?$AAn?$AAs?$AAo?$AAl?$AAe?$AA?5@ 10041788     LIBCMT:crt0msg.obj
 0002:000087e0       ??_C@_1GK@FHCKBEFA@?$AAR?$AA6?$AA0?$AA2?$AA4?$AA?$AN?$AA?6?$AA?9?$AA?5?$AAn?$AAo?$AAt?$AA?5?$AAe?$AAn?$AAo?$AAu?$AAg?$AAh?$AA?5?$AAs?$AAp?$AAa?$AAc?$AAe?$AA?5?$AAf?$AAo?$AAr?$AA?5?$AA_?$AAo@ 100417e0     LIBCMT:crt0msg.obj
 0002:00008850       ??_C@_1EM@MAADIHMB@?$AAR?$AA6?$AA0?$AA2?$AA5?$AA?$AN?$AA?6?$AA?9?$AA?5?$AAp?$AAu?$AAr?$AAe?$AA?5?$AAv?$AAi?$AAr?$AAt?$AAu?$AAa?$AAl?$AA?5?$AAf?$AAu?$AAn?$AAc?$AAt?$AAi?$AAo?$AAn?$AA?5?$AAc@ 10041850     LIBCMT:crt0msg.obj
 0002:000088a0       ??_C@_1GK@MCAAGJMO@?$AAR?$AA6?$AA0?$AA2?$AA6?$AA?$AN?$AA?6?$AA?9?$AA?5?$AAn?$AAo?$AAt?$AA?5?$AAe?$AAn?$AAo?$AAu?$AAg?$AAh?$AA?5?$AAs?$AAp?$AAa?$AAc?$AAe?$AA?5?$AAf?$AAo?$AAr?$AA?5?$AAs?$AAt@ 100418a0     LIBCMT:crt0msg.obj
 0002:00008910       ??_C@_1GK@MFGOKLAG@?$AAR?$AA6?$AA0?$AA2?$AA7?$AA?$AN?$AA?6?$AA?9?$AA?5?$AAn?$AAo?$AAt?$AA?5?$AAe?$AAn?$AAo?$AAu?$AAg?$AAh?$AA?5?$AAs?$AAp?$AAa?$AAc?$AAe?$AA?5?$AAf?$AAo?$AAr?$AA?5?$AAl?$AAo@ 10041910     LIBCMT:crt0msg.obj
 0002:00008980       ??_C@_1EK@HHFLMAOL@?$AAR?$AA6?$AA0?$AA2?$AA8?$AA?$AN?$AA?6?$AA?9?$AA?5?$AAu?$AAn?$AAa?$AAb?$AAl?$AAe?$AA?5?$AAt?$AAo?$AA?5?$AAi?$AAn?$AAi?$AAt?$AAi?$AAa?$AAl?$AAi?$AAz?$AAe?$AA?5?$AAh?$AAe@ 10041980     LIBCMT:crt0msg.obj
 0002:000089cc       ??_C@_1DO@BMFCDCD@?$AAR?$AA6?$AA0?$AA3?$AA0?$AA?$AN?$AA?6?$AA?9?$AA?5?$AAC?$AAR?$AAT?$AA?5?$AAn?$AAo?$AAt?$AA?5?$AAi?$AAn?$AAi?$AAt?$AAi?$AAa?$AAl?$AAi?$AAz?$AAe?$AAd?$AA?$AN?$AA?6?$AA?$AA@ 100419cc     LIBCMT:crt0msg.obj
 0002:00008a10       ??_C@_1MG@ENCOOIDF@?$AAR?$AA6?$AA0?$AA3?$AA1?$AA?$AN?$AA?6?$AA?9?$AA?5?$AAA?$AAt?$AAt?$AAe?$AAm?$AAp?$AAt?$AA?5?$AAt?$AAo?$AA?5?$AAi?$AAn?$AAi?$AAt?$AAi?$AAa?$AAl?$AAi?$AAz?$AAe?$AA?5?$AAt@ 10041a10     LIBCMT:crt0msg.obj
 0002:00008ad8       ??_C@_1GG@GOPILAJP@?$AAR?$AA6?$AA0?$AA3?$AA2?$AA?$AN?$AA?6?$AA?9?$AA?5?$AAn?$AAo?$AAt?$AA?5?$AAe?$AAn?$AAo?$AAu?$AAg?$AAh?$AA?5?$AAs?$AAp?$AAa?$AAc?$AAe?$AA?5?$AAf?$AAo?$AAr?$AA?5?$AAl?$AAo@ 10041ad8     LIBCMT:crt0msg.obj
 0002:00008b40       ??_C@_1BOO@KGEDBGAJ@?$AAR?$AA6?$AA0?$AA3?$AA3?$AA?$AN?$AA?6?$AA?9?$AA?5?$AAA?$AAt?$AAt?$AAe?$AAm?$AAp?$AAt?$AA?5?$AAt?$AAo?$AA?5?$AAu?$AAs?$AAe?$AA?5?$AAM?$AAS?$AAI?$AAL?$AA?5?$AAc?$AAo?$AAd@ 10041b40     LIBCMT:crt0msg.obj
 0002:00008d30       ??_C@_1GG@MKFPEKFO@?$AAR?$AA6?$AA0?$AA3?$AA4?$AA?$AN?$AA?6?$AA?9?$AA?5?$AAi?$AAn?$AAc?$AAo?$AAn?$AAs?$AAi?$AAs?$AAt?$AAe?$AAn?$AAt?$AA?5?$AAo?$AAn?$AAe?$AAx?$AAi?$AAt?$AA?5?$AAb?$AAe?$AAg@ 10041d30     LIBCMT:crt0msg.obj
 0002:00008d98       ??_C@_1BO@BFCDCGC@?$AAD?$AAO?$AAM?$AAA?$AAI?$AAN?$AA?5?$AAe?$AAr?$AAr?$AAo?$AAr?$AA?$AN?$AA?6?$AA?$AA@ 10041d98     LIBCMT:crt0msg.obj
 0002:00008db8       ??_C@_1BK@KMOMNAAI@?$AAS?$AAI?$AAN?$AAG?$AA?5?$AAe?$AAr?$AAr?$AAo?$AAr?$AA?$AN?$AA?6?$AA?$AA@ 10041db8     LIBCMT:crt0msg.obj
 0002:00008dd4       ??_C@_1BM@JBBEPPHI@?$AAT?$AAL?$AAO?$AAS?$AAS?$AA?5?$AAe?$AAr?$AAr?$AAo?$AAr?$AA?$AN?$AA?6?$AA?$AA@ 10041dd4     LIBCMT:crt0msg.obj
 0002:00008df0       ??_C@_15JNBOKNOG@?$AA?$AN?$AA?6?$AA?$AA@ 10041df0     LIBCMT:crt0msg.obj
 0002:00008df8       ??_C@_1BO@BKOMIGKJ@?$AAr?$AAu?$AAn?$AAt?$AAi?$AAm?$AAe?$AA?5?$AAe?$AAr?$AAr?$AAo?$AAr?$AA?5?$AA?$AA@ 10041df8     LIBCMT:crt0msg.obj
 0002:00008e18       ??_C@_1DE@JNGNBFGO@?$AAR?$AAu?$AAn?$AAt?$AAi?$AAm?$AAe?$AA?5?$AAE?$AAr?$AAr?$AAo?$AAr?$AA?$CB?$AA?6?$AA?6?$AAP?$AAr?$AAo?$AAg?$AAr?$AAa?$AAm?$AA?3?$AA?5?$AA?$AA@ 10041e18     LIBCMT:crt0msg.obj
 0002:00008e4c       ??_C@_05KLBDPFGC@e?$CL000?$AA@ 10041e4c     LIBCMT:cvt.obj
 0002:00008e54       ??_C@_0BE@JOGNEJCI@GetCurrentPackageId?$AA@ 10041e54     LIBCMT:winapisupp.obj
 0002:00008e68       ??_C@_1BK@MGMFAEKH@?$AAk?$AAe?$AAr?$AAn?$AAe?$AAl?$AA3?$AA2?$AA?4?$AAd?$AAl?$AAl?$AA?$AA@ 10041e68     LIBCMT:winapisupp.obj
 0002:00008e84       ??_C@_1BK@GAEMIDIL@?$AAA?$AAD?$AAV?$AAA?$AAP?$AAI?$AA3?$AA2?$AA?4?$AAD?$AAL?$AAL?$AA?$AA@ 10041e84     LIBCMT:rand_s.obj
 0002:00008ea0       ??_C@_0BC@JEAENNKH@SystemFunction036?$AA@ 10041ea0     LIBCMT:rand_s.obj
 0002:00008ec4       ??_C@_1M@HPNHIDJI@?$AAj?$AAa?$AA?9?$AAJ?$AAP?$AA?$AA@ 10041ec4     LIBCMT:mbctype.obj
 0002:00008ed0       ??_C@_1M@BIBDDEMK@?$AAz?$AAh?$AA?9?$AAC?$AAN?$AA?$AA@ 10041ed0     LIBCMT:mbctype.obj
 0002:00008edc       ??_C@_1M@JLOOOEGK@?$AAk?$AAo?$AA?9?$AAK?$AAR?$AA?$AA@ 10041edc     LIBCMT:mbctype.obj
 0002:00008ee8       ??_C@_1M@CLNBBOPM@?$AAz?$AAh?$AA?9?$AAT?$AAW?$AA?$AA@ 10041ee8     LIBCMT:mbctype.obj
 0002:00008f14       ??_C@_06OJHGLDPL@?$CInull?$CJ?$AA@ 10041f14     LIBCMT:output.obj
 0002:00008f1c       ??_C@_1O@CEDCILHN@?$AA?$CI?$AAn?$AAu?$AAl?$AAl?$AA?$CJ?$AA?$AA@ 10041f1c     LIBCMT:output.obj
 0002:00008f30       ___lookuptable             10041f30     LIBCMT:output.obj
 0002:00008f8c       ??_C@_03KHJOGHMM@exp?$AA@  10041f8c     LIBCMT:fpexcept.obj
 0002:00008f90       ??_C@_03JGHBODFD@pow?$AA@  10041f90     LIBCMT:fpexcept.obj
 0002:00008f94       ??_C@_03MGHMBJCF@log?$AA@  10041f94     LIBCMT:fpexcept.obj
 0002:00008f98       ??_C@_05HGHHAHAP@log10?$AA@ 10041f98     LIBCMT:fpexcept.obj
 0002:00008fa0       ??_C@_04COOMCNPB@sinh?$AA@ 10041fa0     LIBCMT:fpexcept.obj
 0002:00008fa8       ??_C@_04HPJJNFIM@cosh?$AA@ 10041fa8     LIBCMT:fpexcept.obj
 0002:00008fb0       ??_C@_04FJHINJAO@tanh?$AA@ 10041fb0     LIBCMT:fpexcept.obj
 0002:00008fb8       ??_C@_04FIHNOPOL@asin?$AA@ 10041fb8     LIBCMT:fpexcept.obj
 0002:00008fc0       ??_C@_04PDIFKINK@acos?$AA@ 10041fc0     LIBCMT:fpexcept.obj
 0002:00008fc8       ??_C@_04MLLJIGOK@atan?$AA@ 10041fc8     LIBCMT:fpexcept.obj
 0002:00008fd0       ??_C@_05KNGEOGJB@atan2?$AA@ 10041fd0     LIBCMT:fpexcept.obj
 0002:00008fd8       ??_C@_04EIAKFFMI@sqrt?$AA@ 10041fd8     LIBCMT:fpexcept.obj
 0002:00008fe0       ??_C@_03BLEJJJBH@sin?$AA@  10041fe0     LIBCMT:fpexcept.obj
 0002:00008fe4       ??_C@_03LALBNOCG@cos?$AA@  10041fe4     LIBCMT:fpexcept.obj
 0002:00008fe8       ??_C@_03IIINPABG@tan?$AA@  10041fe8     LIBCMT:fpexcept.obj
 0002:00008fec       ??_C@_04GFPJNGEK@ceil?$AA@ 10041fec     LIBCMT:fpexcept.obj
 0002:00008ff4       ??_C@_05PBJFFIGL@floor?$AA@ 10041ff4     LIBCMT:fpexcept.obj
 0002:00008ffc       ??_C@_04ODHECPBC@fabs?$AA@ 10041ffc     LIBCMT:fpexcept.obj
 0002:00009004       ??_C@_04EHEDPDJG@modf?$AA@ 10042004     LIBCMT:fpexcept.obj
 0002:0000900c       ??_C@_05CEJMAHNP@ldexp?$AA@ 1004200c     LIBCMT:fpexcept.obj
 0002:00009014       ??_C@_05KBKMEMPO@_cabs?$AA@ 10042014     LIBCMT:fpexcept.obj
 0002:0000901c       ??_C@_06MEIMCGCF@_hypot?$AA@ 1004201c     LIBCMT:fpexcept.obj
 0002:00009024       ??_C@_04KEPJIHGP@fmod?$AA@ 10042024     LIBCMT:fpexcept.obj
 0002:0000902c       ??_C@_05GKKHEGJL@frexp?$AA@ 1004202c     LIBCMT:fpexcept.obj
 0002:00009034       ??_C@_03MJLDFKDL@_y0?$AA@  10042034     LIBCMT:fpexcept.obj
 0002:00009038       ??_C@_03NAKIGLHK@_y1?$AA@  10042038     LIBCMT:fpexcept.obj
 0002:0000903c       ??_C@_03ONILCKOB@_yn?$AA@  1004203c     LIBCMT:fpexcept.obj
 0002:00009040       ??_C@_05JGDBENOH@_logb?$AA@ 10042040     LIBCMT:fpexcept.obj
 0002:00009048       ??_C@_0L@KDOEJCKC@_nextafter?$AA@ 10042048     LIBCMT:fpexcept.obj
 0002:00009054       ??_C@_1BG@GOEBHBDC@?$AAU?$AAS?$AAE?$AAR?$AA3?$AA2?$AA?4?$AAD?$AAL?$AAL?$AA?$AA@ 10042054     LIBCMT:crtmboxw.obj
 0002:0000906c       ??_C@_0M@DLDCCGNP@MessageBoxW?$AA@ 1004206c     LIBCMT:crtmboxw.obj
 0002:00009078       ??_C@_0BA@HNOPNCHB@GetActiveWindow?$AA@ 10042078     LIBCMT:crtmboxw.obj
 0002:00009088       ??_C@_0BD@HHGDFDBJ@GetLastActivePopup?$AA@ 10042088     LIBCMT:crtmboxw.obj
 0002:0000909c       ??_C@_0BK@DEKFELLI@GetUserObjectInformationW?$AA@ 1004209c     LIBCMT:crtmboxw.obj
 0002:000090b8       ??_C@_0BI@DFKBFLJE@GetProcessWindowStation?$AA@ 100420b8     LIBCMT:crtmboxw.obj
 0002:000090d0       __XcptActTab               100420d0     LIBCMT:winxfltr.obj
 0002:00009160       __XcptActTabCount          10042160     LIBCMT:winxfltr.obj
 0002:00009164       __XcptActTabSize           10042164     LIBCMT:winxfltr.obj
 0002:00009168       __First_FPE_Indx           10042168     LIBCMT:winxfltr.obj
 0002:0000916c       __Num_FPE                  1004216c     LIBCMT:winxfltr.obj
 0002:00009170       ??_C@_03KOEHGMDN@Sun?$AA@  10042170     LIBCMT:nlsdata.obj
 0002:00009174       ??_C@_03PDAGKDH@Mon?$AA@   10042174     LIBCMT:nlsdata.obj
 0002:00009178       ??_C@_03NAGEINEP@Tue?$AA@  10042178     LIBCMT:nlsdata.obj
 0002:0000917c       ??_C@_03MHOMLAJA@Wed?$AA@  1004217c     LIBCMT:nlsdata.obj
 0002:00009180       ??_C@_03IOFIKPDN@Thu?$AA@  10042180     LIBCMT:nlsdata.obj
 0002:00009184       ??_C@_03IDIOELNC@Fri?$AA@  10042184     LIBCMT:nlsdata.obj
 0002:00009188       ??_C@_03FEFJNEK@Sat?$AA@   10042188     LIBCMT:nlsdata.obj
 0002:0000918c       ??_C@_06OOPIFAJ@Sunday?$AA@ 1004218c     LIBCMT:nlsdata.obj
 0002:00009194       ??_C@_06JLEDEDGH@Monday?$AA@ 10042194     LIBCMT:nlsdata.obj
 0002:0000919c       ??_C@_07BAAGCFCM@Tuesday?$AA@ 1004219c     LIBCMT:nlsdata.obj
 0002:000091a4       ??_C@_09DLIGFAKA@Wednesday?$AA@ 100421a4     LIBCMT:nlsdata.obj
 0002:000091b0       ??_C@_08HACCIKIA@Thursday?$AA@ 100421b0     LIBCMT:nlsdata.obj
 0002:000091bc       ??_C@_06JECMNKMI@Friday?$AA@ 100421bc     LIBCMT:nlsdata.obj
 0002:000091c4       ??_C@_08INBOOONO@Saturday?$AA@ 100421c4     LIBCMT:nlsdata.obj
 0002:000091d0       ??_C@_03JIHJHPIE@Jan?$AA@  100421d0     LIBCMT:nlsdata.obj
 0002:000091d4       ??_C@_03HJBDCHOM@Feb?$AA@  100421d4     LIBCMT:nlsdata.obj
 0002:000091d8       ??_C@_03ODNJBKGA@Mar?$AA@  100421d8     LIBCMT:nlsdata.obj
 0002:000091dc       ??_C@_03LEOLGMJP@Apr?$AA@  100421dc     LIBCMT:nlsdata.obj
 0002:000091e0       ??_C@_03CNMDKL@May?$AA@    100421e0     LIBCMT:nlsdata.obj
 0002:000091e4       ??_C@_03IDFGHECI@Jun?$AA@  100421e4     LIBCMT:nlsdata.obj
 0002:000091e8       ??_C@_03LBGABGKK@Jul?$AA@  100421e8     LIBCMT:nlsdata.obj
 0002:000091ec       ??_C@_03IFJFEIGA@Aug?$AA@  100421ec     LIBCMT:nlsdata.obj
 0002:000091f0       ??_C@_03GGCAPAJC@Sep?$AA@  100421f0     LIBCMT:nlsdata.obj
 0002:000091f4       ??_C@_03BMAOKBAD@Oct?$AA@  100421f4     LIBCMT:nlsdata.obj
 0002:000091f8       ??_C@_03JPJOFNIA@Nov?$AA@  100421f8     LIBCMT:nlsdata.obj
 0002:000091fc       ??_C@_03MKABNOCG@Dec?$AA@  100421fc     LIBCMT:nlsdata.obj
 0002:00009200       ??_C@_07CGJPFGJA@January?$AA@ 10042200     LIBCMT:nlsdata.obj
 0002:00009208       ??_C@_08GNJGEPFN@February?$AA@ 10042208     LIBCMT:nlsdata.obj
 0002:00009214       ??_C@_05HPCKOFNC@March?$AA@ 10042214     LIBCMT:nlsdata.obj
 0002:0000921c       ??_C@_05DMJDNLEJ@April?$AA@ 1004221c     LIBCMT:nlsdata.obj
 0002:00009224       ??_C@_04CNLMGBGM@June?$AA@ 10042224     LIBCMT:nlsdata.obj
 0002:0000922c       ??_C@_04MIEPOIFP@July?$AA@ 1004222c     LIBCMT:nlsdata.obj
 0002:00009234       ??_C@_06LBBHFDDG@August?$AA@ 10042234     LIBCMT:nlsdata.obj
 0002:0000923c       ??_C@_09BHHEALKD@September?$AA@ 1004223c     LIBCMT:nlsdata.obj
 0002:00009248       ??_C@_07JJNFCEND@October?$AA@ 10042248     LIBCMT:nlsdata.obj
 0002:00009250       ??_C@_08HCHEGEOA@November?$AA@ 10042250     LIBCMT:nlsdata.obj
 0002:0000925c       ??_C@_08EDHMEBNP@December?$AA@ 1004225c     LIBCMT:nlsdata.obj
 0002:00009268       ??_C@_02DEDBPAFC@AM?$AA@   10042268     LIBCMT:nlsdata.obj
 0002:0000926c       ??_C@_02CJNFDJBF@PM?$AA@   1004226c     LIBCMT:nlsdata.obj
 0002:00009270       ??_C@_08BPBNCDIB@MM?1dd?1yy?$AA@ 10042270     LIBCMT:nlsdata.obj
 0002:0000927c       ??_C@_0BE@CKGJFCPC@dddd?0?5MMMM?5dd?0?5yyyy?$AA@ 1004227c     LIBCMT:nlsdata.obj
 0002:00009290       ??_C@_08JCCMCCIL@HH?3mm?3ss?$AA@ 10042290     LIBCMT:nlsdata.obj
 0002:0000929c       ??_C@_17MBGCMIPB@?$AAS?$AAu?$AAn?$AA?$AA@ 1004229c     LIBCMT:nlsdata.obj
 0002:000092a4       ??_C@_17KBOMKBF@?$AAM?$AAo?$AAn?$AA?$AA@ 100422a4     LIBCMT:nlsdata.obj
 0002:000092ac       ??_C@_17BMKGEGOJ@?$AAT?$AAu?$AAe?$AA?$AA@ 100422ac     LIBCMT:nlsdata.obj
 0002:000092b4       ??_C@_17CJEDCEPE@?$AAW?$AAe?$AAd?$AA?$AA@ 100422b4     LIBCMT:nlsdata.obj
 0002:000092bc       ??_C@_17PDPHAADD@?$AAT?$AAh?$AAu?$AA?$AA@ 100422bc     LIBCMT:nlsdata.obj
 0002:000092c4       ??_C@_17HFOLPPLP@?$AAF?$AAr?$AAi?$AA?$AA@ 100422c4     LIBCMT:nlsdata.obj
 0002:000092cc       ??_C@_17GGIBDPIH@?$AAS?$AAa?$AAt?$AA?$AA@ 100422cc     LIBCMT:nlsdata.obj
 0002:000092d4       ??_C@_1O@IHNHDHPB@?$AAS?$AAu?$AAn?$AAd?$AAa?$AAy?$AA?$AA@ 100422d4     LIBCMT:nlsdata.obj
 0002:000092e4       ??_C@_1O@MMNBFLIA@?$AAM?$AAo?$AAn?$AAd?$AAa?$AAy?$AA?$AA@ 100422e4     LIBCMT:nlsdata.obj
 0002:000092f4       ??_C@_1BA@ENFBFFEK@?$AAT?$AAu?$AAe?$AAs?$AAd?$AAa?$AAy?$AA?$AA@ 100422f4     LIBCMT:nlsdata.obj
 0002:00009304       ??_C@_1BE@EBOGMDOH@?$AAW?$AAe?$AAd?$AAn?$AAe?$AAs?$AAd?$AAa?$AAy?$AA?$AA@ 10042304     LIBCMT:nlsdata.obj
 0002:00009318       ??_C@_1BC@HHMNLIHE@?$AAT?$AAh?$AAu?$AAr?$AAs?$AAd?$AAa?$AAy?$AA?$AA@ 10042318     LIBCMT:nlsdata.obj
 0002:0000932c       ??_C@_1O@PDICJHAG@?$AAF?$AAr?$AAi?$AAd?$AAa?$AAy?$AA?$AA@ 1004232c     LIBCMT:nlsdata.obj
 0002:0000933c       ??_C@_1BC@ENMNNPAJ@?$AAS?$AAa?$AAt?$AAu?$AAr?$AAd?$AAa?$AAy?$AA?$AA@ 1004233c     LIBCMT:nlsdata.obj
 0002:00009350       ??_C@_17DKNBKCHM@?$AAJ?$AAa?$AAn?$AA?$AA@ 10042350     LIBCMT:nlsdata.obj
 0002:00009358       ??_C@_17LMDJEKJN@?$AAF?$AAe?$AAb?$AA?$AA@ 10042358     LIBCMT:nlsdata.obj
 0002:00009360       ??_C@_17CKNLEDEC@?$AAM?$AAa?$AAr?$AA?$AA@ 10042360     LIBCMT:nlsdata.obj
 0002:00009368       ??_C@_17LFPOIHDD@?$AAA?$AAp?$AAr?$AA?$AA@ 10042368     LIBCMT:nlsdata.obj
 0002:00009370       ??_C@_17PNNKMEED@?$AAM?$AAa?$AAy?$AA?$AA@ 10042370     LIBCMT:nlsdata.obj
 0002:00009378       ??_C@_17KCJGOCPB@?$AAJ?$AAu?$AAn?$AA?$AA@ 10042378     LIBCMT:nlsdata.obj
 0002:00009380       ??_C@_17IJPCKHK@?$AAJ?$AAu?$AAl?$AA?$AA@ 10042380     LIBCMT:nlsdata.obj
 0002:00009388       ??_C@_17ICPELBCN@?$AAA?$AAu?$AAg?$AA?$AA@ 10042388     LIBCMT:nlsdata.obj
 0002:00009390       ??_C@_17HCHCOKMG@?$AAS?$AAe?$AAp?$AA?$AA@ 10042390     LIBCMT:nlsdata.obj
 0002:00009398       ??_C@_17FNLKOI@?$AAO?$AAc?$AAt?$AA?$AA@ 10042398     LIBCMT:nlsdata.obj
 0002:000093a0       ??_C@_17BBDMLCIG@?$AAN?$AAo?$AAv?$AA?$AA@ 100423a0     LIBCMT:nlsdata.obj
 0002:000093a8       ??_C@_17EGKACKIF@?$AAD?$AAe?$AAc?$AA?$AA@ 100423a8     LIBCMT:nlsdata.obj
 0002:000093b0       ??_C@_1BA@EFMEIEBA@?$AAJ?$AAa?$AAn?$AAu?$AAa?$AAr?$AAy?$AA?$AA@ 100423b0     LIBCMT:nlsdata.obj
 0002:000093c0       ??_C@_1BC@JGDDFFAM@?$AAF?$AAe?$AAb?$AAr?$AAu?$AAa?$AAr?$AAy?$AA?$AA@ 100423c0     LIBCMT:nlsdata.obj
 0002:000093d4       ??_C@_1M@IKEENEDF@?$AAM?$AAa?$AAr?$AAc?$AAh?$AA?$AA@ 100423d4     LIBCMT:nlsdata.obj
 0002:000093e0       ??_C@_1M@GJNLMHFD@?$AAA?$AAp?$AAr?$AAi?$AAl?$AA?$AA@ 100423e0     LIBCMT:nlsdata.obj
 0002:000093ec       ??_C@_19EPFLPGAP@?$AAJ?$AAu?$AAn?$AAe?$AA?$AA@ 100423ec     LIBCMT:nlsdata.obj
 0002:000093f8       ??_C@_19BIFMLPCD@?$AAJ?$AAu?$AAl?$AAy?$AA?$AA@ 100423f8     LIBCMT:nlsdata.obj
 0002:00009404       ??_C@_1O@PAHLKOAC@?$AAA?$AAu?$AAg?$AAu?$AAs?$AAt?$AA?$AA@ 10042404     LIBCMT:nlsdata.obj
 0002:00009414       ??_C@_1BE@DKAAMBJL@?$AAS?$AAe?$AAp?$AAt?$AAe?$AAm?$AAb?$AAe?$AAr?$AA?$AA@ 10042414     LIBCMT:nlsdata.obj
 0002:00009428       ??_C@_1BA@EPANDLNG@?$AAO?$AAc?$AAt?$AAo?$AAb?$AAe?$AAr?$AA?$AA@ 10042428     LIBCMT:nlsdata.obj
 0002:00009438       ??_C@_1BC@BGLIFPF@?$AAN?$AAo?$AAv?$AAe?$AAm?$AAb?$AAe?$AAr?$AA?$AA@ 10042438     LIBCMT:nlsdata.obj
 0002:0000944c       ??_C@_1BC@FEMKIFH@?$AAD?$AAe?$AAc?$AAe?$AAm?$AAb?$AAe?$AAr?$AA?$AA@ 1004244c     LIBCMT:nlsdata.obj
 0002:00009460       ??_C@_15ODEHAHHF@?$AAA?$AAM?$AA?$AA@ 10042460     LIBCMT:nlsdata.obj
 0002:00009468       ??_C@_15CLMNNGEL@?$AAP?$AAM?$AA?$AA@ 10042468     LIBCMT:nlsdata.obj
 0002:00009470       ??_C@_1BC@IEBCMHCM@?$AAM?$AAM?$AA?1?$AAd?$AAd?$AA?1?$AAy?$AAy?$AA?$AA@ 10042470     LIBCMT:nlsdata.obj
 0002:00009484       ??_C@_1CI@KNAKOEBC@?$AAd?$AAd?$AAd?$AAd?$AA?0?$AA?5?$AAM?$AAM?$AAM?$AAM?$AA?5?$AAd?$AAd?$AA?0?$AA?5?$AAy?$AAy?$AAy?$AAy?$AA?$AA@ 10042484     LIBCMT:nlsdata.obj
 0002:000094ac       ??_C@_1BC@GDGBMEMK@?$AAH?$AAH?$AA?3?$AAm?$AAm?$AA?3?$AAs?$AAs?$AA?$AA@ 100424ac     LIBCMT:nlsdata.obj
 0002:000094c0       ??_C@_1M@BMHNFIME@?$AAe?$AAn?$AA?9?$AAU?$AAS?$AA?$AA@ 100424c0     LIBCMT:nlsdata.obj
 0002:000094d0       ___lookuptable_s           100424d0     LIBCMT:outputs.obj
 0002:00009530       ___lc_category             10042530     LIBCMT:wsetloca.obj
 0002:00009578       ??_C@_1O@GIFLHMA@?$AAL?$AAC?$AA_?$AAA?$AAL?$AAL?$AA?$AA@ 10042578     LIBCMT:wsetloca.obj
 0002:00009588       ??_C@_1BG@PPOMIBNJ@?$AAL?$AAC?$AA_?$AAC?$AAO?$AAL?$AAL?$AAA?$AAT?$AAE?$AA?$AA@ 10042588     LIBCMT:wsetloca.obj
 0002:000095a0       ??_C@_1BC@FFJGAPJM@?$AAL?$AAC?$AA_?$AAC?$AAT?$AAY?$AAP?$AAE?$AA?$AA@ 100425a0     LIBCMT:wsetloca.obj
 0002:000095b4       ??_C@_1BI@PCKFNJFB@?$AAL?$AAC?$AA_?$AAM?$AAO?$AAN?$AAE?$AAT?$AAA?$AAR?$AAY?$AA?$AA@ 100425b4     LIBCMT:wsetloca.obj
 0002:000095cc       ??_C@_1BG@ENIEDKID@?$AAL?$AAC?$AA_?$AAN?$AAU?$AAM?$AAE?$AAR?$AAI?$AAC?$AA?$AA@ 100425cc     LIBCMT:wsetloca.obj
 0002:000095e4       ??_C@_1BA@HAAOMIIG@?$AAL?$AAC?$AA_?$AAT?$AAI?$AAM?$AAE?$AA?$AA@ 100425e4     LIBCMT:wsetloca.obj
 0002:00009678       ??_C@_15NBPDDFIP@?$AA?$DN?$AA?$DL?$AA?$AA@ 10042678     LIBCMT:wsetloca.obj
 0002:00009680       ??_C@_13PJJBFPED@?$AA?$DL?$AA?$AA@ 10042680     LIBCMT:wsetloca.obj
 0002:00009684       ??_C@_13NMPKAAJP@?$AA?$DN?$AA?$AA@ 10042684     LIBCMT:wsetloca.obj
 0002:00009688       ??_C@_13FHBKNHDA@?$AAC?$AA?$AA@ 10042688     LIBCMT:wsetloca.obj
 0002:0000968c       ??_C@_17MBJJLFDM@?$AA_?$AA?4?$AA?0?$AA?$AA@ 1004268c     LIBCMT:wsetloca.obj
 0002:00009694       ??_C@_13ENNFDPBH@?$AA_?$AA?$AA@ 10042694     LIBCMT:wsetloca.obj
 0002:00009698       ??_C@_13JOFGPIOO@?$AA?4?$AA?$AA@ 10042698     LIBCMT:wsetloca.obj
 0002:0000969c       ??_C@_06PGGFOGJG@1?$CDSNAN?$AA@ 1004269c     LIBCMT:x10fout.obj
 0002:000096a4       ??_C@_05PHHOCPM@1?$CDIND?$AA@ 100426a4     LIBCMT:x10fout.obj
 0002:000096ac       ??_C@_05DNEBIAHO@1?$CDINF?$AA@ 100426ac     LIBCMT:x10fout.obj
 0002:000096b4       ??_C@_06IMKFLFPG@1?$CDQNAN?$AA@ 100426b4     LIBCMT:x10fout.obj
 0002:000096c0       ___newctype                100426c0     LIBCMT:ctype.obj
 0002:000099c0       __wctype                   100429c0     LIBCMT:ctype.obj
 0002:00009bc8       ___newclmap                10042bc8     LIBCMT:ctype.obj
 0002:00009d48       ___newcumap                10042d48     LIBCMT:ctype.obj
 0002:00009ec8       ??_C@_0M@HHGEPIBF@CreateFile2?$AA@ 10042ec8     LIBCMT:wopen.obj
 0002:00009ed4       ??_C@_1BA@BALFACEM@?$AAC?$AAO?$AAN?$AAO?$AAU?$AAT?$AA$?$AA?$AA@ 10042ed4     LIBCMT:initcon.obj
 0002:00009ee8       ___rg_language             10042ee8     LIBCMT:getqloc.obj
 0002:0000a1f4       ??_C@_1BC@LLOKLNP@?$AAa?$AAm?$AAe?$AAr?$AAi?$AAc?$AAa?$AAn?$AA?$AA@ 100431f4     LIBCMT:getqloc.obj
 0002:0000a208       ??_C@_1CC@HEIGCDGG@?$AAa?$AAm?$AAe?$AAr?$AAi?$AAc?$AAa?$AAn?$AA?5?$AAe?$AAn?$AAg?$AAl?$AAi?$AAs?$AAh?$AA?$AA@ 10043208     LIBCMT:getqloc.obj
 0002:0000a22c       ??_C@_1CC@IHCNOMIN@?$AAa?$AAm?$AAe?$AAr?$AAi?$AAc?$AAa?$AAn?$AA?9?$AAe?$AAn?$AAg?$AAl?$AAi?$AAs?$AAh?$AA?$AA@ 1004322c     LIBCMT:getqloc.obj
 0002:0000a250       ??_C@_1BG@GKAGPCGG@?$AAa?$AAu?$AAs?$AAt?$AAr?$AAa?$AAl?$AAi?$AAa?$AAn?$AA?$AA@ 10043250     LIBCMT:getqloc.obj
 0002:0000a268       ??_C@_1BA@GMENCENF@?$AAb?$AAe?$AAl?$AAg?$AAi?$AAa?$AAn?$AA?$AA@ 10043268     LIBCMT:getqloc.obj
 0002:0000a278       ??_C@_1BC@PJMIIAAN@?$AAc?$AAa?$AAn?$AAa?$AAd?$AAi?$AAa?$AAn?$AA?$AA@ 10043278     LIBCMT:getqloc.obj
 0002:0000a28c       ??_C@_17NOIMNFBF@?$AAc?$AAh?$AAh?$AA?$AA@ 1004328c     LIBCMT:getqloc.obj
 0002:0000a294       ??_C@_17GGDALCHA@?$AAc?$AAh?$AAi?$AA?$AA@ 10043294     LIBCMT:getqloc.obj
 0002:0000a29c       ??_C@_1BA@NPNJKIBL@?$AAc?$AAh?$AAi?$AAn?$AAe?$AAs?$AAe?$AA?$AA@ 1004329c     LIBCMT:getqloc.obj
 0002:0000a2ac       ??_C@_1CC@DINBAMMJ@?$AAc?$AAh?$AAi?$AAn?$AAe?$AAs?$AAe?$AA?9?$AAh?$AAo?$AAn?$AAg?$AAk?$AAo?$AAn?$AAg?$AA?$AA@ 100432ac     LIBCMT:getqloc.obj
 0002:0000a2d0       ??_C@_1CG@IOBJPACO@?$AAc?$AAh?$AAi?$AAn?$AAe?$AAs?$AAe?$AA?9?$AAs?$AAi?$AAm?$AAp?$AAl?$AAi?$AAf?$AAi?$AAe?$AAd?$AA?$AA@ 100432d0     LIBCMT:getqloc.obj
 0002:0000a2f8       ??_C@_1CE@GAJNDCKG@?$AAc?$AAh?$AAi?$AAn?$AAe?$AAs?$AAe?$AA?9?$AAs?$AAi?$AAn?$AAg?$AAa?$AAp?$AAo?$AAr?$AAe?$AA?$AA@ 100432f8     LIBCMT:getqloc.obj
 0002:0000a31c       ??_C@_1CI@PAJPIOOD@?$AAc?$AAh?$AAi?$AAn?$AAe?$AAs?$AAe?$AA?9?$AAt?$AAr?$AAa?$AAd?$AAi?$AAt?$AAi?$AAo?$AAn?$AAa?$AAl?$AA?$AA@ 1004331c     LIBCMT:getqloc.obj
 0002:0000a344       ??_C@_1BM@NILJBMMD@?$AAd?$AAu?$AAt?$AAc?$AAh?$AA?9?$AAb?$AAe?$AAl?$AAg?$AAi?$AAa?$AAn?$AA?$AA@ 10043344     LIBCMT:getqloc.obj
 0002:0000a360       ??_C@_1CC@OOJPJNEJ@?$AAe?$AAn?$AAg?$AAl?$AAi?$AAs?$AAh?$AA?9?$AAa?$AAm?$AAe?$AAr?$AAi?$AAc?$AAa?$AAn?$AA?$AA@ 10043360     LIBCMT:getqloc.obj
 0002:0000a384       ??_C@_1BI@IOLFEEM@?$AAe?$AAn?$AAg?$AAl?$AAi?$AAs?$AAh?$AA?9?$AAa?$AAu?$AAs?$AA?$AA@ 10043384     LIBCMT:getqloc.obj
 0002:0000a39c       ??_C@_1BO@HFFNLENJ@?$AAe?$AAn?$AAg?$AAl?$AAi?$AAs?$AAh?$AA?9?$AAb?$AAe?$AAl?$AAi?$AAz?$AAe?$AA?$AA@ 1004339c     LIBCMT:getqloc.obj
 0002:0000a3bc       ??_C@_1BI@HAPKJMPO@?$AAe?$AAn?$AAg?$AAl?$AAi?$AAs?$AAh?$AA?9?$AAc?$AAa?$AAn?$AA?$AA@ 100433bc     LIBCMT:getqloc.obj
 0002:0000a3d4       ??_C@_1CE@HLNDMIOJ@?$AAe?$AAn?$AAg?$AAl?$AAi?$AAs?$AAh?$AA?9?$AAc?$AAa?$AAr?$AAi?$AAb?$AAb?$AAe?$AAa?$AAn?$AA?$AA@ 100433d4     LIBCMT:getqloc.obj
 0002:0000a3f8       ??_C@_1BI@LDHJHHAC@?$AAe?$AAn?$AAg?$AAl?$AAi?$AAs?$AAh?$AA?9?$AAi?$AAr?$AAe?$AA?$AA@ 100433f8     LIBCMT:getqloc.obj
 0002:0000a410       ??_C@_1CA@NJMMCFOC@?$AAe?$AAn?$AAg?$AAl?$AAi?$AAs?$AAh?$AA?9?$AAj?$AAa?$AAm?$AAa?$AAi?$AAc?$AAa?$AA?$AA@ 10043410     LIBCMT:getqloc.obj
 0002:0000a430       ??_C@_1BG@BHJEBBGG@?$AAe?$AAn?$AAg?$AAl?$AAi?$AAs?$AAh?$AA?9?$AAn?$AAz?$AA?$AA@ 10043430     LIBCMT:getqloc.obj
 0002:0000a448       ??_C@_1CK@FGOEJJCO@?$AAe?$AAn?$AAg?$AAl?$AAi?$AAs?$AAh?$AA?9?$AAs?$AAo?$AAu?$AAt?$AAh?$AA?5?$AAa?$AAf?$AAr?$AAi?$AAc?$AAa?$AA?$AA@ 10043448     LIBCMT:getqloc.obj
 0002:0000a474       ??_C@_1DE@PDBJPCJ@?$AAe?$AAn?$AAg?$AAl?$AAi?$AAs?$AAh?$AA?9?$AAt?$AAr?$AAi?$AAn?$AAi?$AAd?$AAa?$AAd?$AA?5?$AAy?$AA?5?$AAt?$AAo?$AAb?$AAa?$AAg?$AAo?$AA?$AA@ 10043474     LIBCMT:getqloc.obj
 0002:0000a4a8       ??_C@_1BG@JGCANDME@?$AAe?$AAn?$AAg?$AAl?$AAi?$AAs?$AAh?$AA?9?$AAu?$AAk?$AA?$AA@ 100434a8     LIBCMT:getqloc.obj
 0002:0000a4c0       ??_C@_1BG@DINKMLE@?$AAe?$AAn?$AAg?$AAl?$AAi?$AAs?$AAh?$AA?9?$AAu?$AAs?$AA?$AA@ 100434c0     LIBCMT:getqloc.obj
 0002:0000a4d8       ??_C@_1BI@NMFDBHJE@?$AAe?$AAn?$AAg?$AAl?$AAi?$AAs?$AAh?$AA?9?$AAu?$AAs?$AAa?$AA?$AA@ 100434d8     LIBCMT:getqloc.obj
 0002:0000a4f0       ??_C@_1BO@OIHKJKII@?$AAf?$AAr?$AAe?$AAn?$AAc?$AAh?$AA?9?$AAb?$AAe?$AAl?$AAg?$AAi?$AAa?$AAn?$AA?$AA@ 100434f0     LIBCMT:getqloc.obj
 0002:0000a510       ??_C@_1CA@NKAELJKI@?$AAf?$AAr?$AAe?$AAn?$AAc?$AAh?$AA?9?$AAc?$AAa?$AAn?$AAa?$AAd?$AAi?$AAa?$AAn?$AA?$AA@ 10043510     LIBCMT:getqloc.obj
 0002:0000a530       ??_C@_1CE@MGKCNLGN@?$AAf?$AAr?$AAe?$AAn?$AAc?$AAh?$AA?9?$AAl?$AAu?$AAx?$AAe?$AAm?$AAb?$AAo?$AAu?$AAr?$AAg?$AA?$AA@ 10043530     LIBCMT:getqloc.obj
 0002:0000a554       ??_C@_1BK@CEGEAILM@?$AAf?$AAr?$AAe?$AAn?$AAc?$AAh?$AA?9?$AAs?$AAw?$AAi?$AAs?$AAs?$AA?$AA@ 10043554     LIBCMT:getqloc.obj
 0002:0000a570       ??_C@_1CA@PAFKEOCC@?$AAg?$AAe?$AAr?$AAm?$AAa?$AAn?$AA?9?$AAa?$AAu?$AAs?$AAt?$AAr?$AAi?$AAa?$AAn?$AA?$AA@ 10043570     LIBCMT:getqloc.obj
 0002:0000a590       ??_C@_1CI@HCFHGOFD@?$AAg?$AAe?$AAr?$AAm?$AAa?$AAn?$AA?9?$AAl?$AAi?$AAc?$AAh?$AAt?$AAe?$AAn?$AAs?$AAt?$AAe?$AAi?$AAn?$AA?$AA@ 10043590     LIBCMT:getqloc.obj
 0002:0000a5b8       ??_C@_1CE@FEDDNPDG@?$AAg?$AAe?$AAr?$AAm?$AAa?$AAn?$AA?9?$AAl?$AAu?$AAx?$AAe?$AAm?$AAb?$AAo?$AAu?$AAr?$AAg?$AA?$AA@ 100435b8     LIBCMT:getqloc.obj
 0002:0000a5dc       ??_C@_1BK@LIMINNMN@?$AAg?$AAe?$AAr?$AAm?$AAa?$AAn?$AA?9?$AAs?$AAw?$AAi?$AAs?$AAs?$AA?$AA@ 100435dc     LIBCMT:getqloc.obj
 0002:0000a5f8       ??_C@_1BM@LGMDBEPD@?$AAi?$AAr?$AAi?$AAs?$AAh?$AA?9?$AAe?$AAn?$AAg?$AAl?$AAi?$AAs?$AAh?$AA?$AA@ 100435f8     LIBCMT:getqloc.obj
 0002:0000a614       ??_C@_1BM@NNCFBAEE@?$AAi?$AAt?$AAa?$AAl?$AAi?$AAa?$AAn?$AA?9?$AAs?$AAw?$AAi?$AAs?$AAs?$AA?$AA@ 10043614     LIBCMT:getqloc.obj
 0002:0000a630       ??_C@_1BE@FEDJNPIB@?$AAn?$AAo?$AAr?$AAw?$AAe?$AAg?$AAi?$AAa?$AAn?$AA?$AA@ 10043630     LIBCMT:getqloc.obj
 0002:0000a644       ??_C@_1CC@CILKDEIE@?$AAn?$AAo?$AAr?$AAw?$AAe?$AAg?$AAi?$AAa?$AAn?$AA?9?$AAb?$AAo?$AAk?$AAm?$AAa?$AAl?$AA?$AA@ 10043644     LIBCMT:getqloc.obj
 0002:0000a668       ??_C@_1CE@DHMMHEPL@?$AAn?$AAo?$AAr?$AAw?$AAe?$AAg?$AAi?$AAa?$AAn?$AA?9?$AAn?$AAy?$AAn?$AAo?$AAr?$AAs?$AAk?$AA?$AA@ 10043668     LIBCMT:getqloc.obj
 0002:0000a68c       ??_C@_1CK@OPNMHECD@?$AAp?$AAo?$AAr?$AAt?$AAu?$AAg?$AAu?$AAe?$AAs?$AAe?$AA?9?$AAb?$AAr?$AAa?$AAz?$AAi?$AAl?$AAi?$AAa?$AAn?$AA?$AA@ 1004368c     LIBCMT:getqloc.obj
 0002:0000a6b8       ??_C@_1CE@KEEHCDB@?$AAs?$AAp?$AAa?$AAn?$AAi?$AAs?$AAh?$AA?9?$AAa?$AAr?$AAg?$AAe?$AAn?$AAt?$AAi?$AAn?$AAa?$AA?$AA@ 100436b8     LIBCMT:getqloc.obj
 0002:0000a6dc       ??_C@_1CA@GIAOLHJD@?$AAs?$AAp?$AAa?$AAn?$AAi?$AAs?$AAh?$AA?9?$AAb?$AAo?$AAl?$AAi?$AAv?$AAi?$AAa?$AA?$AA@ 100436dc     LIBCMT:getqloc.obj
 0002:0000a6fc       ??_C@_1BM@OJNDFNPD@?$AAs?$AAp?$AAa?$AAn?$AAi?$AAs?$AAh?$AA?9?$AAc?$AAh?$AAi?$AAl?$AAe?$AA?$AA@ 100436fc     LIBCMT:getqloc.obj
 0002:0000a718       ??_C@_1CC@OCOLPALL@?$AAs?$AAp?$AAa?$AAn?$AAi?$AAs?$AAh?$AA?9?$AAc?$AAo?$AAl?$AAo?$AAm?$AAb?$AAi?$AAa?$AA?$AA@ 10043718     LIBCMT:getqloc.obj
 0002:0000a73c       ??_C@_1CG@BPOFMKBB@?$AAs?$AAp?$AAa?$AAn?$AAi?$AAs?$AAh?$AA?9?$AAc?$AAo?$AAs?$AAt?$AAa?$AA?5?$AAr?$AAi?$AAc?$AAa?$AA?$AA@ 1004373c     LIBCMT:getqloc.obj
 0002:0000a764       ??_C@_1DG@IGOBAPBB@?$AAs?$AAp?$AAa?$AAn?$AAi?$AAs?$AAh?$AA?9?$AAd?$AAo?$AAm?$AAi?$AAn?$AAi?$AAc?$AAa?$AAn?$AA?5?$AAr?$AAe?$AAp?$AAu?$AAb?$AAl?$AAi?$AAc?$AA?$AA@ 10043764     LIBCMT:getqloc.obj
 0002:0000a79c       ??_C@_1CA@JHAPGEGI@?$AAs?$AAp?$AAa?$AAn?$AAi?$AAs?$AAh?$AA?9?$AAe?$AAc?$AAu?$AAa?$AAd?$AAo?$AAr?$AA?$AA@ 1004379c     LIBCMT:getqloc.obj
 0002:0000a7bc       ??_C@_1CI@LAPALJPP@?$AAs?$AAp?$AAa?$AAn?$AAi?$AAs?$AAh?$AA?9?$AAe?$AAl?$AA?5?$AAs?$AAa?$AAl?$AAv?$AAa?$AAd?$AAo?$AAr?$AA?$AA@ 100437bc     LIBCMT:getqloc.obj
 0002:0000a7e4       ??_C@_1CE@PDGBOFOM@?$AAs?$AAp?$AAa?$AAn?$AAi?$AAs?$AAh?$AA?9?$AAg?$AAu?$AAa?$AAt?$AAe?$AAm?$AAa?$AAl?$AAa?$AA?$AA@ 100437e4     LIBCMT:getqloc.obj
 0002:0000a808       ??_C@_1CC@NBEBAODI@?$AAs?$AAp?$AAa?$AAn?$AAi?$AAs?$AAh?$AA?9?$AAh?$AAo?$AAn?$AAd?$AAu?$AAr?$AAa?$AAs?$AA?$AA@ 10043808     LIBCMT:getqloc.obj
 0002:0000a82c       ??_C@_1CA@LLKGHBMF@?$AAs?$AAp?$AAa?$AAn?$AAi?$AAs?$AAh?$AA?9?$AAm?$AAe?$AAx?$AAi?$AAc?$AAa?$AAn?$AA?$AA@ 1004382c     LIBCMT:getqloc.obj
 0002:0000a84c       ??_C@_1BO@LKNDOIGD@?$AAs?$AAp?$AAa?$AAn?$AAi?$AAs?$AAh?$AA?9?$AAm?$AAo?$AAd?$AAe?$AAr?$AAn?$AA?$AA@ 1004384c     LIBCMT:getqloc.obj
 0002:0000a86c       ??_C@_1CE@NMDMOEEB@?$AAs?$AAp?$AAa?$AAn?$AAi?$AAs?$AAh?$AA?9?$AAn?$AAi?$AAc?$AAa?$AAr?$AAa?$AAg?$AAu?$AAa?$AA?$AA@ 1004386c     LIBCMT:getqloc.obj
 0002:0000a890       ??_C@_1BO@LLCBEJGB@?$AAs?$AAp?$AAa?$AAn?$AAi?$AAs?$AAh?$AA?9?$AAp?$AAa?$AAn?$AAa?$AAm?$AAa?$AA?$AA@ 10043890     LIBCMT:getqloc.obj
 0002:0000a8b0       ??_C@_1CC@FKPGGIHO@?$AAs?$AAp?$AAa?$AAn?$AAi?$AAs?$AAh?$AA?9?$AAp?$AAa?$AAr?$AAa?$AAg?$AAu?$AAa?$AAy?$AA?$AA@ 100438b0     LIBCMT:getqloc.obj
 0002:0000a8d4       ??_C@_1BK@CDEIHOOP@?$AAs?$AAp?$AAa?$AAn?$AAi?$AAs?$AAh?$AA?9?$AAp?$AAe?$AAr?$AAu?$AA?$AA@ 100438d4     LIBCMT:getqloc.obj
 0002:0000a8f0       ??_C@_1CI@GAHAKKGP@?$AAs?$AAp?$AAa?$AAn?$AAi?$AAs?$AAh?$AA?9?$AAp?$AAu?$AAe?$AAr?$AAt?$AAo?$AA?5?$AAr?$AAi?$AAc?$AAo?$AA?$AA@ 100438f0     LIBCMT:getqloc.obj
 0002:0000a918       ??_C@_1CA@NKJBCAGP@?$AAs?$AAp?$AAa?$AAn?$AAi?$AAs?$AAh?$AA?9?$AAu?$AAr?$AAu?$AAg?$AAu?$AAa?$AAy?$AA?$AA@ 10043918     LIBCMT:getqloc.obj
 0002:0000a938       ??_C@_1CE@ODILCONM@?$AAs?$AAp?$AAa?$AAn?$AAi?$AAs?$AAh?$AA?9?$AAv?$AAe?$AAn?$AAe?$AAz?$AAu?$AAe?$AAl?$AAa?$AA?$AA@ 10043938     LIBCMT:getqloc.obj
 0002:0000a95c       ??_C@_1CA@OBNMCGFO@?$AAs?$AAw?$AAe?$AAd?$AAi?$AAs?$AAh?$AA?9?$AAf?$AAi?$AAn?$AAl?$AAa?$AAn?$AAd?$AA?$AA@ 1004395c     LIBCMT:getqloc.obj
 0002:0000a97c       ??_C@_1M@PIPDDPPI@?$AAs?$AAw?$AAi?$AAs?$AAs?$AA?$AA@ 1004397c     LIBCMT:getqloc.obj
 0002:0000a988       ??_C@_15PJPFLCCM@?$AAu?$AAk?$AA?$AA@ 10043988     LIBCMT:getqloc.obj
 0002:0000a990       ??_C@_15GMFIMNFM@?$AAu?$AAs?$AA?$AA@ 10043990     LIBCMT:getqloc.obj
 0002:0000a998       ??_C@_17HAEBFAGL@?$AAu?$AAs?$AAa?$AA?$AA@ 10043998     LIBCMT:getqloc.obj
 0002:0000a9a0       ___rg_country              100439a0     LIBCMT:getqloc.obj
 0002:0000aab4       ??_C@_1BA@DPFJEPHB@?$AAa?$AAm?$AAe?$AAr?$AAi?$AAc?$AAa?$AA?$AA@ 10043ab4     LIBCMT:getqloc.obj
 0002:0000aac4       ??_C@_1BA@ELOGGFK@?$AAb?$AAr?$AAi?$AAt?$AAa?$AAi?$AAn?$AA?$AA@ 10043ac4     LIBCMT:getqloc.obj
 0002:0000aad4       ??_C@_1M@GHBGIGDA@?$AAc?$AAh?$AAi?$AAn?$AAa?$AA?$AA@ 10043ad4     LIBCMT:getqloc.obj
 0002:0000aae0       ??_C@_1M@NCHEJOPO@?$AAc?$AAz?$AAe?$AAc?$AAh?$AA?$AA@ 10043ae0     LIBCMT:getqloc.obj
 0002:0000aaec       ??_C@_1BA@BKPAPBLA@?$AAe?$AAn?$AAg?$AAl?$AAa?$AAn?$AAd?$AA?$AA@ 10043aec     LIBCMT:getqloc.obj
 0002:0000aafc       ??_C@_1BM@HKBCKIPC@?$AAg?$AAr?$AAe?$AAa?$AAt?$AA?5?$AAb?$AAr?$AAi?$AAt?$AAa?$AAi?$AAn?$AA?$AA@ 10043afc     LIBCMT:getqloc.obj
 0002:0000ab18       ??_C@_1BA@PPCHPGJB@?$AAh?$AAo?$AAl?$AAl?$AAa?$AAn?$AAd?$AA?$AA@ 10043b18     LIBCMT:getqloc.obj
 0002:0000ab28       ??_C@_1BE@JBMPEGDG@?$AAh?$AAo?$AAn?$AAg?$AA?9?$AAk?$AAo?$AAn?$AAg?$AA?$AA@ 10043b28     LIBCMT:getqloc.obj
 0002:0000ab3c       ??_C@_1BI@KOELBBPJ@?$AAn?$AAe?$AAw?$AA?9?$AAz?$AAe?$AAa?$AAl?$AAa?$AAn?$AAd?$AA?$AA@ 10043b3c     LIBCMT:getqloc.obj
 0002:0000ab54       ??_C@_15HIEBHAIO@?$AAn?$AAz?$AA?$AA@ 10043b54     LIBCMT:getqloc.obj
 0002:0000ab5c       ??_C@_1BC@CHBCPFPI@?$AAp?$AAr?$AA?5?$AAc?$AAh?$AAi?$AAn?$AAa?$AA?$AA@ 10043b5c     LIBCMT:getqloc.obj
 0002:0000ab70       ??_C@_1BC@JAOIIFKD@?$AAp?$AAr?$AA?9?$AAc?$AAh?$AAi?$AAn?$AAa?$AA?$AA@ 10043b70     LIBCMT:getqloc.obj
 0002:0000ab84       ??_C@_1BI@BEHPPHKC@?$AAp?$AAu?$AAe?$AAr?$AAt?$AAo?$AA?9?$AAr?$AAi?$AAc?$AAo?$AA?$AA@ 10043b84     LIBCMT:getqloc.obj
 0002:0000ab9c       ??_C@_1O@PAEOFKDI@?$AAs?$AAl?$AAo?$AAv?$AAa?$AAk?$AA?$AA@ 10043b9c     LIBCMT:getqloc.obj
 0002:0000abac       ??_C@_1BK@FIHMCKAM@?$AAs?$AAo?$AAu?$AAt?$AAh?$AA?5?$AAa?$AAf?$AAr?$AAi?$AAc?$AAa?$AA?$AA@ 10043bac     LIBCMT:getqloc.obj
 0002:0000abc8       ??_C@_1BI@NAEOODKB@?$AAs?$AAo?$AAu?$AAt?$AAh?$AA?5?$AAk?$AAo?$AAr?$AAe?$AAa?$AA?$AA@ 10043bc8     LIBCMT:getqloc.obj
 0002:0000abe0       ??_C@_1BK@FBDGGIFF@?$AAs?$AAo?$AAu?$AAt?$AAh?$AA?9?$AAa?$AAf?$AAr?$AAi?$AAc?$AAa?$AA?$AA@ 10043be0     LIBCMT:getqloc.obj
 0002:0000abfc       ??_C@_1BI@GHLEJDPK@?$AAs?$AAo?$AAu?$AAt?$AAh?$AA?9?$AAk?$AAo?$AAr?$AAe?$AAa?$AA?$AA@ 10043bfc     LIBCMT:getqloc.obj
 0002:0000ac14       ??_C@_1CE@PLHLOMJF@?$AAt?$AAr?$AAi?$AAn?$AAi?$AAd?$AAa?$AAd?$AA?5?$AA?$CG?$AA?5?$AAt?$AAo?$AAb?$AAa?$AAg?$AAo?$AA?$AA@ 10043c14     LIBCMT:getqloc.obj
 0002:0000ac38       ??_C@_1BO@MODIMHHI@?$AAu?$AAn?$AAi?$AAt?$AAe?$AAd?$AA?9?$AAk?$AAi?$AAn?$AAg?$AAd?$AAo?$AAm?$AA?$AA@ 10043c38     LIBCMT:getqloc.obj
 0002:0000ac58       ??_C@_1BM@FFHJONBJ@?$AAu?$AAn?$AAi?$AAt?$AAe?$AAd?$AA?9?$AAs?$AAt?$AAa?$AAt?$AAe?$AAs?$AA?$AA@ 10043c58     LIBCMT:getqloc.obj
 0002:0000ac74       ??_C@_17DNCLJFIF@?$AAA?$AAC?$AAP?$AA?$AA@ 10043c74     LIBCMT:getqloc.obj
 0002:0000ac7c       ??_C@_17CIKBIHLH@?$AAO?$AAC?$AAP?$AA?$AA@ 10043c7c     LIBCMT:getqloc.obj
 0002:0000ac88       __load_config_used         10043c88     LIBCMT:loadcfg.obj
 0002:0000c7a0       ___safe_se_handler_table   100457a0     <linker-defined>
 0002:0000c8b0       ___rtc_iaa                 100458b0     LIBCMT:initsect.obj
 0002:0000c9b4       ___rtc_izz                 100459b4     LIBCMT:initsect.obj
 0002:0000cab8       ___rtc_taa                 10045ab8     LIBCMT:initsect.obj
 0002:0000cbbc       ___rtc_tzz                 10045bbc     LIBCMT:initsect.obj
 0003:00000228       _pump_test_model_P         10047228     pump_test_model_data.obj
 0003:00000360       _pci20041digout            10047360     xpctarget.obj
 0003:00000364       _nipcdio24cnfg             10047364     xpctarget.obj
 0003:00000368       _rtddm6604cnfg             10047368     xpctarget.obj
 0003:0000039c       _DefaultCOMIOBase          1004739c     xpcruntime:xpcimports.obj
 0003:000003ac       _DefaultCOMIRQ             100473ac     xpcruntime:xpcimports.obj
 0003:000003c0       ___security_cookie         100473c0     LIBCMT:gs_cookie.obj
 0003:000003c4       ___security_cookie_complement 100473c4     LIBCMT:gs_cookie.obj
 0003:000003c8       __fltused                  100473c8     LIBCMT:fpinit.obj
 0003:000003cc       __ldused                   100473cc     LIBCMT:fpinit.obj
 0003:000003d0       __iob                      100473d0     LIBCMT:_file.obj
 0003:00000650       ___isa_enabled             10047650     LIBCMT:cpu_disp.obj
 0003:00000828       __cfltcvt_tab              10047828     LIBCMT:cmiscdat.obj
 0003:00000984       ___ptmbcinfo               10047984     LIBCMT:mbctype.obj
 0003:00000a78       __mbctype                  10047a78     LIBCMT:mbctype.obj
 0003:00000b80       __mbcasemap                10047b80     LIBCMT:mbctype.obj
 0003:00000c80       ___initialmbcinfo          10047c80     LIBCMT:mbctype.obj
 0003:00000ea0       ___nullstring              10047ea0     LIBCMT:output.obj
 0003:00000ea4       ___wnullstring             10047ea4     LIBCMT:output.obj
 0003:00000ea8       ___badioinfo               10047ea8     LIBCMT:ioinit.obj
 0003:00000ee8       __lookuptrailbytes         10047ee8     LIBCMT:read.obj
 0003:00000fe8       __d_inf                    10047fe8     LIBCMT:util.obj
 0003:00000ff0       __d_ind                    10047ff0     LIBCMT:util.obj
 0003:00000ff8       __d_max                    10047ff8     LIBCMT:util.obj
 0003:00001000       __d_min                    10048000     LIBCMT:util.obj
 0003:00001008       __d_mzero                  10048008     LIBCMT:util.obj
 0003:00001114       ___abort_behavior          10048114     LIBCMT:abort.obj
 0003:00001118       ___flsindex                10048118     LIBCMT:tidtable.obj
 0003:00001120       ___wclocalestr             10048120     LIBCMT:nlsdata.obj
 0003:00001128       ___lc_time_c               10048128     LIBCMT:nlsdata.obj
 0003:0000128c       ___ptlocinfo               1004828c     LIBCMT:nlsdata.obj
 0003:00001290       ___initiallocinfo          10048290     LIBCMT:nlsdata.obj
 0003:00001348       ___initiallocalestructinfo 10048348     LIBCMT:nlsdata.obj
 0003:00001350       ___mb_cur_max              10048350     LIBCMT:nlsdata.obj
 0003:00001354       ___globallocalestatus      10048354     LIBCMT:glstatus.obj
 0003:00001360       __NLG_Destination          10048360     LIBCMT:exsup.obj
 0003:00001370       __matherr_flag             10048370     LIBCMT:matherr.obj
 0003:00001378       ___lconv                   10048378     LIBCMT:lconv.obj
 0003:0000137c       ___lconv_static_decimal    1004837c     LIBCMT:lconv.obj
 0003:00001380       ___lconv_c                 10048380     LIBCMT:lconv.obj
 0003:000013d0       ___lconv_static_W_decimal  100483d0     LIBCMT:lconv.obj
 0003:00001408       __pctype                   10048408     LIBCMT:ctype.obj
 0003:0000140c       __pwctype                  1004840c     LIBCMT:ctype.obj
 0003:00001410       __confh                    10048410     LIBCMT:initcon.obj
 0003:00001418       __pow10pos                 10048418     LIBCMT:constpow.obj
 0003:00001578       __pow10neg                 10048578     LIBCMT:constpow.obj
 0003:00001c40       ___isa_available_default   10048c40     rt_logging.obj
 0003:00001c44       _xmlsize                   10048c44     xpctarget.obj
 0003:00001c48       _pci20098PortA             10048c48     xpctarget.obj
 0003:00001c4c       _pci20098PortB             10048c4c     xpctarget.obj
 0003:00001c50       _siepowercan_firmware_initialized 10048c50     xpctarget.obj
 0003:00001c54       _siepowercan_port1_configured 10048c54     xpctarget.obj
 0003:00001c58       _siepowercan_port2_configured 10048c58     xpctarget.obj
 0003:00001c5c       _CANAC2_FIRMWARE_LOADED    10048c5c     xpctarget.obj
 0003:00001c60       _rs232ports                10048c60     xpctarget.obj
 0003:00001c70       _NI_AT_MIO_16F_5_commreg2  10048c70     xpctarget.obj
 0003:00001c74       _RTD_DM6430_init           10048c74     xpctarget.obj
 0003:00001c78       _RTD_DM6420_init           10048c78     xpctarget.obj
 0003:00001c7c       _CANAC2_FIRMWARE_LOADED_mb1 10048c7c     xpctarget.obj
 0003:00001c80       _CANAC2_FIRMWARE_LOADED_mb2 10048c80     xpctarget.obj
 0003:00001c84       _CANAC2_FIRMWARE_LOADED_mb3 10048c84     xpctarget.obj
 0003:00001c9c       ___fastflag                10048c9c     LIBCMT:fpinit.obj
 0003:00001fc0       __C_Exit_Done              10048fc0     LIBCMT:crt0dat.obj
 0003:00001fc4       ___argc                    10048fc4     LIBCMT:crt0dat.obj
 0003:00001fc8       ___argv                    10048fc8     LIBCMT:crt0dat.obj
 0003:00001fcc       ___wargv                   10048fcc     LIBCMT:crt0dat.obj
 0003:00001fd0       __environ                  10048fd0     LIBCMT:crt0dat.obj
 0003:00001fd4       __wenviron                 10048fd4     LIBCMT:crt0dat.obj
 0003:00001fd8       __pgmptr                   10048fd8     LIBCMT:crt0dat.obj
 0003:00001fdc       __wpgmptr                  10048fdc     LIBCMT:crt0dat.obj
 0003:00001fe0       __umaskval                 10048fe0     LIBCMT:crt0dat.obj
 0003:00001fe4       __exitflag                 10048fe4     LIBCMT:crt0dat.obj
 0003:00001fe8       __C_Termination_Done       10048fe8     LIBCMT:crt0dat.obj
 0003:00001fec       ___winitenv                10048fec     LIBCMT:crt0dat.obj
 0003:00001ff0       ___initenv                 10048ff0     LIBCMT:crt0dat.obj
 0003:00001ff4       __cflush                   10048ff4     LIBCMT:_file.obj
 0003:00001ffc       ___isa_available           10048ffc     LIBCMT:cpu_disp.obj
 0003:00002000       ___favor                   10049000     LIBCMT:cpu_disp.obj
 0003:00002004       __aenvptr                  10049004     LIBCMT:dllcrt0.obj
 0003:00002008       __wenvptr                  10049008     LIBCMT:dllcrt0.obj
 0003:00002010       ?_pnhHeap@@3P6AHI@ZA       10049010     LIBCMT:handler.obj
 0003:00002018       ___app_type                10049018     LIBCMT:crt0msg.obj
 0003:00002648       __newmode                  10049648     LIBCMT:_newmode.obj
 0003:0000264c       __crtheap                  1004964c     LIBCMT:heapinit.obj
 0003:00002650       ___pInvalidArgHandler      10049650     LIBCMT:invarg.obj
 0003:000027a8       __maxwait                  100497a8     LIBCMT:crtheap.obj
 0003:000027ac       ?__pInconsistency@@3P6AXXZA 100497ac     LIBCMT:hooks.obj
 0003:000027b0       ___pPurecall               100497b0     LIBCMT:inithelp.obj
 0003:000027cc       ___mblocalename            100497cc     LIBCMT:mbctype.obj
 0003:000027d0       ___mbcodepage              100497d0     LIBCMT:mbctype.obj
 0003:000027d4       ___ismbcodepage            100497d4     LIBCMT:mbctype.obj
 0003:000027d8       ___mbulinfo                100497d8     LIBCMT:mbctype.obj
 0003:000027e8       __stdbuf                   100497e8     LIBCMT:_sftbuf.obj
 0003:000027f0       ___ioInitOnce              100497f0     LIBCMT:ioinit.obj
 0003:000027f4       ___error_mode              100497f4     LIBCMT:errmode.obj
 0003:00002918       __outputformat             10049918     LIBCMT:outputformat.obj
 0003:0000291c       __commode                  1004991c     LIBCMT:ncommode.obj
 0003:00002920       ___lconv_static_null       10049920     LIBCMT:lconv.obj
 0003:00002924       ___lconv_static_W_null     10049924     LIBCMT:lconv.obj
 0003:00002928       ___locale_changed          10049928     LIBCMT:wsetloca.obj
 0003:0000292c       __fmode                    1004992c     LIBCMT:txtmode.obj
 0003:00002940       _CANAC2_2_receiveindex_mb3 10049940     <common>
 0003:00005a14       _CANAC2_2_receivemaxindex_mb3 1004ca14     <common>
 0003:00005a20       _CANAC2_2_sendindex_mb3    1004ca20     <common>
 0003:00005d40       _CANAC2_2_sendmaxindex_mb3 1004cd40     <common>
 0003:00005d60       _CANAC2_1_receiveindex_mb3 1004cd60     <common>
 0003:00006080       _CANAC2_1_receivemaxindex_mb3 1004d080     <common>
 0003:000060a0       _CANAC2_1_sendindex_mb3    1004d0a0     <common>
 0003:000063c0       _CANAC2_1_sendmaxindex_mb3 1004d3c0     <common>
 0003:000063e0       _CANAC2_2_receive_mb3      1004d3e0     <common>
 0003:00006700       _CANAC2_2_send_mb3         1004d700     <common>
 0003:00006a20       _CANAC2_1_receive_mb3      1004da20     <common>
 0003:00006d40       _CANAC2_1_send_mb3         1004dd40     <common>
 0003:00007060       _CANAC2_2_receiveindex_mb2 1004e060     <common>
 0003:00007380       _CANAC2_2_receivemaxindex_mb2 1004e380     <common>
 0003:000073a0       _CANAC2_2_sendindex_mb2    1004e3a0     <common>
 0003:000076c0       _CANAC2_2_sendmaxindex_mb2 1004e6c0     <common>
 0003:000076e0       _CANAC2_1_receiveindex_mb2 1004e6e0     <common>
 0003:00007a00       _CANAC2_1_receivemaxindex_mb2 1004ea00     <common>
 0003:00007a20       _CANAC2_1_sendindex_mb2    1004ea20     <common>
 0003:00007d40       _CANAC2_1_sendmaxindex_mb2 1004ed40     <common>
 0003:00007d60       _CANAC2_2_receive_mb2      1004ed60     <common>
 0003:00008080       _CANAC2_2_send_mb2         1004f080     <common>
 0003:000083a0       _CANAC2_1_receive_mb2      1004f3a0     <common>
 0003:000086c0       _CANAC2_1_send_mb2         1004f6c0     <common>
 0003:000089e0       _CANAC2_2_receiveindex_mb1 1004f9e0     <common>
 0003:00008d00       _CANAC2_2_receivemaxindex_mb1 1004fd00     <common>
 0003:00008d20       _CANAC2_2_sendindex_mb1    1004fd20     <common>
 0003:00009040       _CANAC2_2_sendmaxindex_mb1 10050040     <common>
 0003:00009060       _CANAC2_1_receiveindex_mb1 10050060     <common>
 0003:00009380       _CANAC2_1_receivemaxindex_mb1 10050380     <common>
 0003:000093a0       _CANAC2_1_sendindex_mb1    100503a0     <common>
 0003:000096c0       _CANAC2_1_sendmaxindex_mb1 100506c0     <common>
 0003:000096e0       _CANAC2_2_receive_mb1      100506e0     <common>
 0003:00009a00       _CANAC2_2_send_mb1         10050a00     <common>
 0003:00009d20       _CANAC2_1_receive_mb1      10050d20     <common>
 0003:0000a040       _CANAC2_1_send_mb1         10051040     <common>
 0003:0000a360       _CANAC2_2_receiveindex     10051360     <common>
 0003:0000a680       _CANAC2_2_receivemaxindex  10051680     <common>
 0003:0000a6a0       _CANAC2_2_sendindex        100516a0     <common>
 0003:0000a9c0       _CANAC2_2_sendmaxindex     100519c0     <common>
 0003:0000a9e0       _CANAC2_1_receiveindex     100519e0     <common>
 0003:0000ad00       _CANAC2_1_receivemaxindex  10051d00     <common>
 0003:0000ad20       _CANAC2_1_sendindex        10051d20     <common>
 0003:0000b040       _CANAC2_1_sendmaxindex     10052040     <common>
 0003:0000b060       _CANAC2_2_receive          10052060     <common>
 0003:0000b380       _CANAC2_2_send             10052380     <common>
 0003:0000b6a0       _CANAC2_1_receive          100526a0     <common>
 0003:0000b9c0       _CANAC2_1_send             100529c0     <common>
 0003:0000bce0       _siepowercan_can_object_buffer_port2 10052ce0     <common>
 0003:0000fd00       _siepowercan_can_object_buffer_port1 10056d00     <common>
 0003:00013d00       _rtNaNF                    1005ad00     <common>
 0003:00013d14       _rtMinusInfF               1005ad14     <common>
 0003:00013d18       _rtInfF                    1005ad18     <common>
 0003:00013d20       _rtNaN                     1005ad20     <common>
 0003:00013d28       _rtMinusInf                1005ad28     <common>
 0003:00013d30       _rtInf                     1005ad30     <common>
 0003:00013d40       _pump_test_model_M_        1005ad40     <common>
 0003:00014100       _pump_test_model_Y         1005b100     <common>
 0003:00014160       _pump_test_model_U         1005b160     <common>
 0003:00014180       _pump_test_model_DW        1005b180     <common>
 0003:00014198       _pump_test_model_X         1005b198     <common>
 0003:000141a0       _pump_test_model_B         1005b1a0     <common>
 0003:00014230       _slTestRegAssessment       1005b230     <common>
 0003:00014280       _slTestTerminate           1005b280     <common>
 0003:00014284       _slTestEvalOnFail          1005b284     <common>
 0003:00014288       _slTestLogAssessments      1005b288     <common>
 0003:0001428c       _slTestInitialize          1005b28c     <common>
 0003:00014290       _unRegisterPTPTimeRead     1005b290     <common>
 0003:00014294       _registerPTPTimeRead       1005b294     <common>
 0003:00014298       _slrteGetCurrentStepSize   1005b298     <common>
 0003:0001429c       _slrteSetStepSizeDelta     1005b29c     <common>
 0003:000142a0       _xpceGetIntTimerGranularityNS 1005b2a0     <common>
 0003:000142a4       _sendToAsyncQueueTgtAppSvc 1005b2a4     <common>
 0003:000142a8       _terminateToAsyncQueueTgtAppSvc 1005b2a8     <common>
 0003:000142ac       _startToAsyncQueueTgtAppSvc 1005b2ac     <common>
 0003:000142b0       _getStatusFlags            1005b2b0     <common>
 0003:000142b4       _getCommService            1005b2b4     <common>
 0003:000142b8       _getMemoryService          1005b2b8     <common>
 0003:000142bc       _StreamVideo               1005b2bc     <common>
 0003:000142c0       _StopVideoDisplay          1005b2c0     <common>
 0003:000142c4       _StartVideoDisplay         1005b2c4     <common>
 0003:000142c8       _DestroyVideoDisplay       1005b2c8     <common>
 0003:000142cc       _CreateVideoDisplay        1005b2cc     <common>
 0003:000142d0       _ConvertUImage             1005b2d0     <common>
 0003:000142d4       _StopVideo                 1005b2d4     <common>
 0003:000142d8       _ReadFrameBuffer           1005b2d8     <common>
 0003:000142dc       _StartVideo                1005b2dc     <common>
 0003:000142e0       _GetVideoConfigs           1005b2e0     <common>
 0003:000142e4       _FindUsbVideoDevice        1005b2e4     <common>
 0003:000142e8       _xpceDeleteSemaphore       1005b2e8     <common>
 0003:000142ec       _xpceSignalSemaphore       1005b2ec     <common>
 0003:000142f0       _xpceWaitSemaphore         1005b2f0     <common>
 0003:000142f4       _xpceCreateSemaphore       1005b2f4     <common>
 0003:000142f8       _TBGiveSpinFast            1005b2f8     <common>
 0003:000142fc       _TBTakeSpinFast            1005b2fc     <common>
 0003:00014300       _TBDeleteSpin              1005b300     <common>
 0003:00014304       _TBCreateSpin              1005b304     <common>
 0003:00014308       _xpceScopeAcqOK            1005b308     <common>
 0003:0001430c       _rl32eRestartAcquisition   1005b30c     <common>
 0003:00014310       _rl32eSetTargetScopeSigFt  1005b310     <common>
 0003:00014314       _rl32eSetTargetScope       1005b314     <common>
 0003:00014318       _xpceFSScopeSet            1005b318     <common>
 0003:0001431c       _rl32eSetScope             1005b31c     <common>
 0003:00014320       _rl32eAddSignal            1005b320     <common>
 0003:00014324       _rl32eGetSignalNo          1005b324     <common>
 0003:00014328       _rl32eDefScope             1005b328     <common>
 0003:0001432c       _rl32eScopeExists          1005b32c     <common>
 0003:00014330       _xpceUDPClose              1005b330     <common>
 0003:00014334       _xpceUDPReceive            1005b334     <common>
 0003:00014338       _xpceUDPSend               1005b338     <common>
 0003:0001433c       _xpceUDPOpenReceive        1005b33c     <common>
 0003:00014340       _xpceUDPOpenSend           1005b340     <common>
 0003:00014344       _rl32eSendBlock            1005b344     <common>
 0003:00014348       _rl32eLineStatus           1005b348     <common>
 0003:0001434c       _rl32eReceiveBufferCount   1005b34c     <common>
 0003:00014350       _rl32eReceiveChar          1005b350     <common>
 0003:00014354       _rl32eSendChar             1005b354     <common>
 0003:00014358       _rl32eCloseCOMPort         1005b358     <common>
 0003:0001435c       _rl32eInitCOMPort          1005b35c     <common>
 0003:00014360       _xpceGetParamDims          1005b360     <common>
 0003:00014364       _xpceGetParameter          1005b364     <common>
 0003:00014368       _xpceSetParameter          1005b368     <common>
 0003:0001436c       _xpceGetSignalValue        1005b36c     <common>
 0003:00014370       _xpceAssignPCIInterrupt    1005b370     <common>
 0003:00014374       _rl32eGetPCIInfoAtSlot     1005b374     <common>
 0003:00014378       _rl32eGetPCIInfo           1005b378     <common>
 0003:0001437c       _rl32eShowPCIInfo          1005b37c     <common>
 0003:00014380       _rl32eShowPCIDev           1005b380     <common>
 0003:00014384       _xpceGetTET                1005b384     <common>
 0003:00014388       _xpceFTSubtract            1005b388     <common>
 0003:0001438c       _xpceFTAdd                 1005b38c     <common>
 0003:00014390       _xpceFTReadTime            1005b390     <common>
 0003:00014394       _xpceaddEvent              1005b394     <common>
 0003:00014398       _xpceDeRegisterISR         1005b398     <common>
 0003:0001439c       _xpceRegisterISR           1005b39c     <common>
 0003:000143a0       _xpcIsModelInit            1005b3a0     <common>
 0003:000143a4       _xpcGetElapsedTime         1005b3a4     <common>
 0003:000143a8       _xpcBusyWait               1005b3a8     <common>
 0003:000143ac       _xpcFreePhysicalMemory     1005b3ac     <common>
 0003:000143b0       _xpcAllocPhysicalMemory    1005b3b0     <common>
 0003:000143b4       _xpcReserveMemoryRegion    1005b3b4     <common>
 0003:000143b8       _xpcOutpB                  1005b3b8     <common>
 0003:000143bc       _xpcOutpW                  1005b3bc     <common>
 0003:000143c0       _xpcOutpDW                 1005b3c0     <common>
 0003:000143c4       _xpcInpB                   1005b3c4     <common>
 0003:000143c8       _xpcInpW                   1005b3c8     <common>
 0003:000143cc       _xpcInpDW                  1005b3cc     <common>
 0003:000143d0       ___unguarded_readlc_active 1005b3d0     <common>
 0003:000143e0       ___setlc_active            1005b3e0     <common>
 0003:000143e4       __nhandle                  1005b3e4     <common>
 0003:00014440       ___pioinfo                 1005b440     <common>
 0003:00014540       __pDestructExceptionObject 1005b540     <common>
 0003:0001454c       __debugger_hook_dummy      1005b54c     <common>
 0003:00014558       __acmdln                   1005b558     <common>
 0003:00014564       ___piob                    1005b564     <common>
 0003:000148a4       __nstream                  1005b8a4     <common>
 0003:000148c0       __bufin                    1005b8c0     <common>
 0003:000158c0       ___dyn_tls_init_callback   1005c8c0     <common>
 0003:000158d0       ___onexitend               1005c8d0     <common>
 0003:000158d4       ___onexitbegin             1005c8d4     <common>
 0003:000158d8       ___mbctype_initialized     1005c8d8     <common>
 0003:000158dc       ___env_initialized         1005c8dc     <common>
 0004:00000000       __IMPORT_DESCRIPTOR_KERNEL32 1005d000     kernel32:KERNEL32.dll
 0004:00000014       __NULL_IMPORT_DESCRIPTOR   1005d014     kernel32:KERNEL32.dll
 0004:000001e4       __imp__GetModuleHandleA@4  1005d1e4     kernel32:KERNEL32.dll
 0004:000001e8       __imp__GetProcAddress@8    1005d1e8     kernel32:KERNEL32.dll
 0004:000001ec       __imp__HeapAlloc@12        1005d1ec     kernel32:KERNEL32.dll
 0004:000001f0       __imp__IsDebuggerPresent@0 1005d1f0     kernel32:KERNEL32.dll
 0004:000001f4       __imp__IsProcessorFeaturePresent@4 1005d1f4     kernel32:KERNEL32.dll
 0004:000001f8       __imp__EncodePointer@4     1005d1f8     kernel32:KERNEL32.dll
 0004:000001fc       __imp__DecodePointer@4     1005d1fc     kernel32:KERNEL32.dll
 0004:00000200       __imp__GetLastError@0      1005d200     kernel32:KERNEL32.dll
 0004:00000204       __imp__InterlockedDecrement@4 1005d204     kernel32:KERNEL32.dll
 0004:00000208       __imp__ExitProcess@4       1005d208     kernel32:KERNEL32.dll
 0004:0000020c       __imp__GetModuleHandleExW@12 1005d20c     kernel32:KERNEL32.dll
 0004:00000210       __imp__AreFileApisANSI@0   1005d210     kernel32:KERNEL32.dll
 0004:00000214       __imp__MultiByteToWideChar@24 1005d214     kernel32:KERNEL32.dll
 0004:00000218       __imp__HeapFree@12         1005d218     kernel32:KERNEL32.dll
 0004:0000021c       __imp__HeapReAlloc@16      1005d21c     kernel32:KERNEL32.dll
 0004:00000220       __imp__EnterCriticalSection@4 1005d220     kernel32:KERNEL32.dll
 0004:00000224       __imp__LeaveCriticalSection@4 1005d224     kernel32:KERNEL32.dll
 0004:00000228       __imp__GetStdHandle@4      1005d228     kernel32:KERNEL32.dll
 0004:0000022c       __imp__GetFileType@4       1005d22c     kernel32:KERNEL32.dll
 0004:00000230       __imp__GetModuleFileNameW@12 1005d230     kernel32:KERNEL32.dll
 0004:00000234       __imp__WriteConsoleW@20    1005d234     kernel32:KERNEL32.dll
 0004:00000238       __imp__GetCommandLineA@0   1005d238     kernel32:KERNEL32.dll
 0004:0000023c       __imp__GetCurrentThreadId@0 1005d23c     kernel32:KERNEL32.dll
 0004:00000240       __imp__WriteFile@20        1005d240     kernel32:KERNEL32.dll
 0004:00000244       __imp__GetProcessHeap@0    1005d244     kernel32:KERNEL32.dll
 0004:00000248       __imp__UnhandledExceptionFilter@4 1005d248     kernel32:KERNEL32.dll
 0004:0000024c       __imp__SetUnhandledExceptionFilter@4 1005d24c     kernel32:KERNEL32.dll
 0004:00000250       __imp__FlsAlloc@4          1005d250     kernel32:KERNEL32.dll
 0004:00000254       __imp__FlsGetValue@4       1005d254     kernel32:KERNEL32.dll
 0004:00000258       __imp__FlsSetValue@8       1005d258     kernel32:KERNEL32.dll
 0004:0000025c       __imp__FlsFree@4           1005d25c     kernel32:KERNEL32.dll
 0004:00000260       __imp__GetCurrentProcess@0 1005d260     kernel32:KERNEL32.dll
 0004:00000264       __imp__TerminateProcess@8  1005d264     kernel32:KERNEL32.dll
 0004:00000268       __imp__GetStartupInfoW@4   1005d268     kernel32:KERNEL32.dll
 0004:0000026c       __imp__GetModuleHandleW@4  1005d26c     kernel32:KERNEL32.dll
 0004:00000270       __imp__InitializeCriticalSectionAndSpinCount@8 1005d270     kernel32:KERNEL32.dll
 0004:00000274       __imp__DeleteCriticalSection@4 1005d274     kernel32:KERNEL32.dll
 0004:00000278       __imp__FatalAppExitA@8     1005d278     kernel32:KERNEL32.dll
 0004:0000027c       __imp__Sleep@4             1005d27c     kernel32:KERNEL32.dll
 0004:00000280       __imp__InterlockedExchange@8 1005d280     kernel32:KERNEL32.dll
 0004:00000284       __imp__FreeLibrary@4       1005d284     kernel32:KERNEL32.dll
 0004:00000288       __imp__LoadLibraryExW@12   1005d288     kernel32:KERNEL32.dll
 0004:0000028c       __imp__SetConsoleCtrlHandler@8 1005d28c     kernel32:KERNEL32.dll
 0004:00000290       __imp__InterlockedIncrement@4 1005d290     kernel32:KERNEL32.dll
 0004:00000294       __imp__IsValidCodePage@4   1005d294     kernel32:KERNEL32.dll
 0004:00000298       __imp__GetACP@0            1005d298     kernel32:KERNEL32.dll
 0004:0000029c       __imp__GetOEMCP@0          1005d29c     kernel32:KERNEL32.dll
 0004:000002a0       __imp__GetCPInfo@8         1005d2a0     kernel32:KERNEL32.dll
 0004:000002a4       __imp__CloseHandle@4       1005d2a4     kernel32:KERNEL32.dll
 0004:000002a8       __imp__RtlUnwind@16        1005d2a8     kernel32:KERNEL32.dll
 0004:000002ac       __imp__InitOnceExecuteOnce@16 1005d2ac     kernel32:KERNEL32.dll
 0004:000002b0       __imp__ReadFile@20         1005d2b0     kernel32:KERNEL32.dll
 0004:000002b4       __imp__GetConsoleMode@8    1005d2b4     kernel32:KERNEL32.dll
 0004:000002b8       __imp__ReadConsoleW@20     1005d2b8     kernel32:KERNEL32.dll
 0004:000002bc       __imp__WideCharToMultiByte@32 1005d2bc     kernel32:KERNEL32.dll
 0004:000002c0       __imp__GetConsoleCP@0      1005d2c0     kernel32:KERNEL32.dll
 0004:000002c4       __imp__DeleteFileW@4       1005d2c4     kernel32:KERNEL32.dll
 0004:000002c8       __imp__SetFilePointer@16   1005d2c8     kernel32:KERNEL32.dll
 0004:000002cc       __imp__RaiseException@16   1005d2cc     kernel32:KERNEL32.dll
 0004:000002d0       __imp__OutputDebugStringW@4 1005d2d0     kernel32:KERNEL32.dll
 0004:000002d4       __imp__LoadLibraryW@4      1005d2d4     kernel32:KERNEL32.dll
 0004:000002d8       __imp__SetLastError@4      1005d2d8     kernel32:KERNEL32.dll
 0004:000002dc       __imp__GetCurrentThread@0  1005d2dc     kernel32:KERNEL32.dll
 0004:000002e0       __imp__GetModuleFileNameA@12 1005d2e0     kernel32:KERNEL32.dll
 0004:000002e4       __imp__QueryPerformanceCounter@4 1005d2e4     kernel32:KERNEL32.dll
 0004:000002e8       __imp__GetSystemTimeAsFileTime@4 1005d2e8     kernel32:KERNEL32.dll
 0004:000002ec       __imp__GetTickCount64@0    1005d2ec     kernel32:KERNEL32.dll
 0004:000002f0       __imp__GetEnvironmentStringsW@0 1005d2f0     kernel32:KERNEL32.dll
 0004:000002f4       __imp__FreeEnvironmentStringsW@4 1005d2f4     kernel32:KERNEL32.dll
 0004:000002f8       __imp__HeapSize@12         1005d2f8     kernel32:KERNEL32.dll
 0004:000002fc       __imp__GetTimeFormatEx@24  1005d2fc     kernel32:KERNEL32.dll
 0004:00000300       __imp__GetDateFormatEx@28  1005d300     kernel32:KERNEL32.dll
 0004:00000304       __imp__CompareStringEx@36  1005d304     kernel32:KERNEL32.dll
 0004:00000308       __imp__GetLocaleInfoEx@16  1005d308     kernel32:KERNEL32.dll
 0004:0000030c       __imp__GetUserDefaultLocaleName@8 1005d30c     kernel32:KERNEL32.dll
 0004:00000310       __imp__LCMapStringEx@36    1005d310     kernel32:KERNEL32.dll
 0004:00000314       __imp__IsValidLocaleName@4 1005d314     kernel32:KERNEL32.dll
 0004:00000318       __imp__EnumSystemLocalesEx@16 1005d318     kernel32:KERNEL32.dll
 0004:0000031c       __imp__GetStringTypeW@16   1005d31c     kernel32:KERNEL32.dll
 0004:00000320       __imp__FlushFileBuffers@4  1005d320     kernel32:KERNEL32.dll
 0004:00000324       __imp__SetStdHandle@8      1005d324     kernel32:KERNEL32.dll
 0004:00000328       __imp__SetFilePointerEx@20 1005d328     kernel32:KERNEL32.dll
 0004:0000032c       __imp__CreateFileW@28      1005d32c     kernel32:KERNEL32.dll
 0004:00000330       __imp__SetEndOfFile@4      1005d330     kernel32:KERNEL32.dll
 0004:00000334       \177KERNEL32_NULL_THUNK_DATA 1005d334     kernel32:KERNEL32.dll

 entry point at        0001:0001023b

