 feedback_plant_with_best_PID_xpc

 Timestamp is 57bb06b8 (Mon Aug 22 16:05:44 2016)

 Preferred load address is 10000000

 Start         Length     Name                   Class
 0001:00000000 00049312H .text                   CODE
 0002:00000000 00000104H .CRT$XCA                DATA
 0002:00000104 00000104H .CRT$XCZ                DATA
 0002:00000208 00000104H .CRT$XIA                DATA
 0002:0000030c 00000118H .CRT$XIC                DATA
 0002:00000424 00000104H .CRT$XIZ                DATA
 0002:00000528 00000104H .CRT$XPA                DATA
 0002:0000062c 00000109H .CRT$XPX                DATA
 0002:00000738 00000104H .CRT$XPXA               DATA
 0002:0000083c 00000104H .CRT$XPZ                DATA
 0002:00000940 00000104H .CRT$XTA                DATA
 0002:00000a44 00000104H .CRT$XTZ                DATA
 0002:00000b50 0000ae34H .rdata                  DATA
 0002:0000b984 000001ceH .rdata$debug            DATA
 0002:0000bb60 0000010eH .rdata$sxdata           DATA
 0002:0000bc70 00000104H .rtc$IAA                DATA
 0002:0000bd74 00000104H .rtc$IZZ                DATA
 0002:0000be78 00000104H .rtc$TAA                DATA
 0002:0000bf7c 00000104H .rtc$TZZ                DATA
 0002:0000c080 00000991H .xdata$x                DATA
 0002:0000ca20 0000022dH .edata                  DATA
 0003:00000000 00007128H .data                   DATA
 0003:00007140 00015ac0H .bss                    DATA
 0004:00000000 00000014H .idata$2                DATA
 0004:00000014 00000014H .idata$3                DATA
 0004:00000028 000001bcH .idata$4                DATA
 0004:000001e4 000001bcH .idata$5                DATA
 0004:000003a0 000007c3H .idata$6                DATA

  Address         Publics by Value              Rva+Base       Lib:Object

 0000:00000000       __except_list              00000000     <absolute>
 0000:00000003       ___safe_se_handler_count   00000003     <absolute>
 0000:00000000       ___ImageBase               10000000     <linker-defined>
 0001:00000480       _feedback_plant_with_best_PID_initialize 10001480 f   feedback_plant_with_best_PID.obj
 0001:000018d0       _feedback_plant_with_best_PID_output 100028d0 f   feedback_plant_with_best_PID.obj
 0001:00004bd0       _feedback_plant_with_best_PID_update 10005bd0 f   feedback_plant_with_best_PID.obj
 0001:00004d40       _feedback_plant_with_best_PID_terminate 10005d40 f   feedback_plant_with_best_PID.obj
 0001:00004da0       _feedback_plant_with_best_PID 10005da0 f   feedback_plant_with_best_PID.obj
 0001:00007230       _MdlInitializeSizes        10008230 f   feedback_plant_with_best_PID.obj
 0001:00007240       _MdlInitializeSampleTimes  10008240 f   feedback_plant_with_best_PID.obj
 0001:00007250       _MdlInitialize             10008250 f   feedback_plant_with_best_PID.obj
 0001:00007260       _MdlStart                  10008260 f   feedback_plant_with_best_PID.obj
 0001:00007270       _MdlOutputs                10008270 f   feedback_plant_with_best_PID.obj
 0001:00007280       _MdlUpdate                 10008280 f   feedback_plant_with_best_PID.obj
 0001:00007290       _MdlTerminate              10008290 f   feedback_plant_with_best_PID.obj
 0001:000072a0       _rt_powd_snf               100082a0 f   feedback_plant_with_best_PID.obj
 0001:00007510       _feedback_plant_with_best_PID_derivatives 10008510 f   feedback_plant_with_best_PID.obj
 0001:000078c0       _rt_ODECreateIntegrationData 100088c0 f   feedback_plant_with_best_PID.obj
 0001:000078d0       _rt_ODEDestroyIntegrationData 100088d0 f   feedback_plant_with_best_PID.obj
 0001:000078e0       _rt_ODEUpdateContinuousStates 100088e0 f   feedback_plant_with_best_PID.obj
 0001:00009600       _feedback_plant_with_best_PID_GetCAPIStaticMap 1000a600 f   feedback_plant_with_best_PID_capi.obj
 0001:00009610       _feedback_plant_with_best_PID_InitializeDataMapInfo 1000a610 f   feedback_plant_with_best_PID_capi.obj
 0001:000096a0       _TgtConnBackgroundTask     1000a6a0 f   feedback_plant_with_best_PID_tgtconn.obj
 0001:000096b0       _TgtConnInit               1000a6b0 f   feedback_plant_with_best_PID_tgtconn.obj
 0001:000096e0       _TgtConnTerm               1000a6e0 f   feedback_plant_with_best_PID_tgtconn.obj
 0001:000096f0       _TgtConnPreStep            1000a6f0 f   feedback_plant_with_best_PID_tgtconn.obj
 0001:00009700       _TgtConnPostStep           1000a700 f   feedback_plant_with_best_PID_tgtconn.obj
 0001:00009720       _rtGetInf                  1000a720 f   rtGetInf.obj
 0001:000097c0       _rtGetInfF                 1000a7c0 f   rtGetInf.obj
 0001:000097e0       _rtGetMinusInf             1000a7e0 f   rtGetInf.obj
 0001:00009880       _rtGetMinusInfF            1000a880 f   rtGetInf.obj
 0001:000098f0       _rtGetNaN                  1000a8f0 f   rtGetNaN.obj
 0001:00009990       _rtGetNaNF                 1000a990 f   rtGetNaN.obj
 0001:00009a40       _rt_GetMxIdFromDTypeIdForRSim 1000aa40 f   rt_logging.obj
 0001:00009aa0       _rt_GetMxIdFromDTypeId     1000aaa0 f   rt_logging.obj
 0001:00009b00       _rt_CreateLogVarWithConvert 1000ab00 f   rt_logging.obj
 0001:0000a5b0       _rt_CreateLogVar           1000b5b0 f   rt_logging.obj
 0001:0000a640       _rt_CreateStructLogVar     1000b640 f   rt_logging.obj
 0001:0000a6b0       _rt_StartDataLoggingWithStartTime 1000b6b0 f   rt_logging.obj
 0001:0000aca0       _rt_StartDataLogging       1000bca0 f   rt_logging.obj
 0001:0000ace0       _rt_UpdateLogVar           1000bce0 f   rt_logging.obj
 0001:0000c110       _rt_UpdateStructLogVar     1000d110 f   rt_logging.obj
 0001:0000c1c0       _rt_UpdateTXYLogVars       1000d1c0 f   rt_logging.obj
 0001:0000c1e0       _rt_UpdateTXXFYLogVars     1000d1e0 f   rt_logging.obj
 0001:0000c6a0       _rt_StopDataLoggingImpl    1000d6a0 f   rt_logging.obj
 0001:0000ca00       _rt_StopDataLogging        1000da00 f   rt_logging.obj
 0001:00013620       _rt_FillStateSigInfoFromMMI 10014620 f   rt_logging_mmi.obj
 0001:00013a20       _rt_CleanUpForStateLogWithMMI 10014a20 f   rt_logging_mmi.obj
 0001:00013cc0       _rt_mxCreateCharMatrixFromStrings 10014cc0 f   rt_matrx.obj
 0001:00013e40       _rt_mxCreateString         10014e40 f   rt_matrx.obj
 0001:00013f00       _rt_mxCreateDoubleMatrix   10014f00 f   rt_matrx.obj
 0001:00013f60       _rt_mxCreateNumericArray   10014f60 f   rt_matrx.obj
 0001:00013fb0       _rt_mxDuplicateArray       10014fb0 f   rt_matrx.obj
 0001:00014050       _rt_mxGetDimensions        10015050 f   rt_matrx.obj
 0001:000140d0       _rt_mxGetEps               100150d0 f   rt_matrx.obj
 0001:000140e0       _rt_mxGetString            100150e0 f   rt_matrx.obj
 0001:00014300       _rt_InitInfAndNaN          10015300 f   rt_nonfinite.obj
 0001:00014350       _rtIsInf                   10015350 f   rt_nonfinite.obj
 0001:000143a0       _rtIsInfF                  100153a0 f   rt_nonfinite.obj
 0001:000143e0       _rtIsNaN                   100153e0 f   rt_nonfinite.obj
 0001:00014410       _rtIsNaNF                  10015410 f   rt_nonfinite.obj
 0001:00014490       _rtPrintfNoOp              10015490 f   rt_printf.obj
 0001:000144c0       _rtwCAPI_EncodePath        100154c0 f   rtw_modelmap_utils.obj
 0001:00014610       _rtwCAPI_HasStates         10015610 f   rtw_modelmap_utils.obj
 0001:00014680       _rtwCAPI_GetNumStateRecords 10015680 f   rtw_modelmap_utils.obj
 0001:000146f0       _rtwCAPI_GetNumStateRecordsForRTWLogging 100156f0 f   rtw_modelmap_utils.obj
 0001:000147c0       _rtwCAPI_GetNumContStateRecords 100157c0 f   rtw_modelmap_utils.obj
 0001:000148c0       _rtwCAPI_FreeFullPaths     100158c0 f   rtw_modelmap_utils.obj
 0001:00014960       _rtwCAPI_UpdateFullPaths   10015960 f   rtw_modelmap_utils.obj
 0001:00014b70       _rtwCAPI_GetFullStateBlockPath 10015b70 f   rtw_modelmap_utils.obj
 0001:00014cf0       _rtwCAPI_GetStateWidth     10015cf0 f   rtw_modelmap_utils.obj
 0001:00014d60       _rtwCAPI_GetStateRecordInfo 10015d60 f   rtw_modelmap_utils.obj
 0001:00015320       _rtwCAPI_GetNumSigLogRecords 10016320 f   rtw_modelmap_utils.obj
 0001:00015390       _rtwCAPI_GetNumSigLogRecordsForRTWLogging 10016390 f   rtw_modelmap_utils.obj
 0001:00015470       _rtwCAPI_GetSigLogRecordInfo 10016470 f   rtw_modelmap_utils.obj
 0001:00015930       _rtwCAPI_CountSysRan       10016930 f   rtw_modelmap_utils.obj
 0001:000159f0       _rtwCAPI_FillSysRan        100169f0 f   rtw_modelmap_utils.obj
 0001:00015af0       _rtwCAPI_GetSigAddrFromMap 10016af0 f   rtw_modelmap_utils.obj
 0001:00016270       _feedback_plant_with_best_PID_ChangeStepSize 10017270 f   xpctarget.obj
 0001:000162e0       _changeStepSize            100172e0 f   xpctarget.obj
 0001:00016300       _SLRTSetErrorStatus        10017300 f   xpctarget.obj
 0001:00016310       _updateDiscreteEvents      10017310 f   xpctarget.obj
 0001:00016320       _DllMain@12                10017320 f   xpctarget.obj
 0001:00016330       _getrlmdlinfo              10017330 f   xpctarget.obj
 0001:00016540       _getDLMVersion             10017540 f   xpctarget.obj
 0001:00016550       _getRefMdlPath             10017550 f   xpctarget.obj
 0001:000165b0       _getRefMdlSignalNumber     100175b0 f   xpctarget.obj
 0001:00016730       _getNumRef                 10017730 f   appmappingData.obj
 0001:00017530       _adnipcim                  10018530 f   adnipcim.obj
 0001:000184c0       _danipcim                  100194c0 f   danipcim.obj
 0001:00018810       _niMIdentify               10019810 f   xpcionim.obj
 0001:00018940       _niMconfig                 10019940 f   xpcionim.obj
 0001:00018a40       _niM_AISetup               10019a40 f   xpcionim.obj
 0001:00019040       _niM_aiConfigureChannel    1001a040 f   xpcionim.obj
 0001:000190c0       _niM_configureTimebase     1001a0c0 f   xpcionim.obj
 0001:000190f0       _niM_pllReset              1001a0f0 f   xpcionim.obj
 0001:00019140       _niM_analogTriggerReset    1001a140 f   xpcionim.obj
 0001:000191d0       _niM_Private_Data          1001a1d0 f   xpcionim.obj
 0001:00019380       _niM_SetPFIFilter          1001a380 f   xpcionim.obj
 0001:00019420       _niM_SetPFI_Select         1001a420 f   xpcionim.obj
 0001:000194c0       _niM_SetPFI_DO             1001a4c0 f   xpcionim.obj
 0001:00019510       _niM_whichBank             1001a510 f   xpcionim.obj
 0001:00019560       _niM_resetCtr              1001a560 f   xpcionim.obj
 0001:00019590       _niM_Cont_Pulse_Train_Generation 1001a590 f   xpcionim.obj
 0001:000197d0       _niM_CtrArm                1001a7d0 f   xpcionim.obj
 0001:00019800       _niM_CtrDisarm             1001a800 f   xpcionim.obj
 0001:00019830       _niM_PeriodConfigure       1001a830 f   xpcionim.obj
 0001:00019a90       _niM_CtrReadArm            1001aa90 f   xpcionim.obj
 0001:00019ac0       _niM_CtrReadDisarm         1001aac0 f   xpcionim.obj
 0001:00019af0       _niM_Counter_Reset_All     1001aaf0 f   xpcionim.obj
 0001:00019bd0       _niM_eepromReadMSeries     1001abd0 f   xpcionim.obj
 0001:00019d10       _niM_aiGetScalingCoefficients 1001ad10 f   xpcionim.obj
 0001:00019e90       _niM_aoGetScalingCoefficients 1001ae90 f   xpcionim.obj
 0001:00019f30       _niM_aiPolynomialScaler    1001af30 f   xpcionim.obj
 0001:00019fa0       _niM_aoLinearScaler        1001afa0 f   xpcionim.obj
 0001:00019fd0       _niM_AO_Setup              1001afd0 f   xpcionim.obj
 0001:0001a1f0       _niM_aoConfigureDAC        1001b1f0 f   xpcionim.obj
 0001:0001a9a0       _ShowPCIDevice             1001b9a0 f   xpcruntime:xpcimports.obj
 0001:0001aab0       _GetPCIDeviceFull          1001bab0 f   xpcruntime:xpcimports.obj
 0001:0001ab10       _xpcGetPciConfigAtSlot     1001bb10 f   xpcruntime:xpcimports.obj
 0001:0001aed0       _xpceuploadevent           1001bed0 f   xpcruntime:xpcimports.obj
 0001:0001b390       _xpcInitProcs              1001c390 f   xpcruntime:xpcimports.obj
 0001:0001c330       __heap_alloc               1001d330 f i LIBCMT:malloc.obj
 0001:0001c36d       _malloc                    1001d36d f   LIBCMT:malloc.obj
 0001:0001c3ff       ___raise_securityfailure   1001d3ff f   LIBCMT:gs_report.obj
 0001:0001c43c       ___report_gsfailure        1001d43c f   LIBCMT:gs_report.obj
 0001:0001c535       ___report_rangecheckfailure 1001d535 f   LIBCMT:gs_report.obj
 0001:0001c541       ___report_securityfailure  1001d541 f   LIBCMT:gs_report.obj
 0001:0001c60f       ___report_securityfailureEx 1001d60f f   LIBCMT:gs_report.obj
 0001:0001c723       _fabs                      1001d723 f   LIBCMT:fabs.obj
 0001:0001c7e0       _fmod                      1001d7e0 f   LIBCMT:87fmod.obj
 0001:0001c7ea       __CIfmod                   1001d7ea f   LIBCMT:87fmod.obj
 0001:0001c810       _pow                       1001d810 f   LIBCMT:pow.obj
 0001:0001c850       __CIpow                    1001d850 f   LIBCMT:pow.obj
 0001:0001c88b       __CIpow_default            1001d88b f   LIBCMT:pow.obj
 0001:0001c8a4       __pow_default              1001d8a4     LIBCMT:pow.obj
 0001:0001caa0       __CIsqrt                   1001daa0 f   LIBCMT:sqrt.obj
 0001:0001cab4       _sqrt                      1001dab4     LIBCMT:sqrt.obj
 0001:0001cb60       _floor                     1001db60 f   LIBCMT:floor_pentium4.obj
 0001:0001cba0       __floor_pentium4           1001dba0 f   LIBCMT:floor_pentium4.obj
 0001:0001cc90       _memcpy                    1001dc90 f   LIBCMT:memcpy.obj
 0001:0001d2e0       _memset                    1001e2e0 f   LIBCMT:memset.obj
 0001:0001d370       __get_printf_count_output  1001e370 f   LIBCMT:printf.obj
 0001:0001d385       __printf_l                 1001e385 f   LIBCMT:printf.obj
 0001:0001d39c       __printf_p                 1001e39c f   LIBCMT:printf.obj
 0001:0001d3b2       __printf_p_l               1001e3b2 f   LIBCMT:printf.obj
 0001:0001d3c9       __printf_s_l               1001e3c9 f   LIBCMT:printf.obj
 0001:0001d3e0       __set_printf_count_output  1001e3e0 f   LIBCMT:printf.obj
 0001:0001d408       _printf                    1001e408 f   LIBCMT:printf.obj
 0001:0001d4b4       _printf_s                  1001e4b4 f   LIBCMT:printf.obj
 0001:0001d4ca       @__security_check_cookie@4 1001e4ca f   LIBCMT:secchk.obj
 0001:0001d4d9       __fpmath                   1001e4d9 f   LIBCMT:fpinit.obj
 0001:0001d4f0       ___setfflag                1001e4f0 f   LIBCMT:fpinit.obj
 0001:0001d503       __cfltcvt_init             1001e503 f   LIBCMT:fpinit.obj
 0001:0001d563       ___copy_path_to_wide_string 1001e563 f   LIBCMT:crt0dat.obj
 0001:0001d613       ___crtCorExitProcess       1001e613 f   LIBCMT:crt0dat.obj
 0001:0001d645       ___crtExitProcess          1001e645 f   LIBCMT:crt0dat.obj
 0001:0001d65b       ___freeCrtMemory           1001e65b f   LIBCMT:crt0dat.obj
 0001:0001d762       __amsg_exit                1001e762 f   LIBCMT:crt0dat.obj
 0001:0001d77e       __c_exit                   1001e77e f   LIBCMT:crt0dat.obj
 0001:0001d78d       __cexit                    1001e78d f   LIBCMT:crt0dat.obj
 0001:0001d79c       __cinit                    1001e79c f   LIBCMT:crt0dat.obj
 0001:0001d82d       __exit                     1001e82d f   LIBCMT:crt0dat.obj
 0001:0001d841       __get_pgmptr               1001e841 f   LIBCMT:crt0dat.obj
 0001:0001d870       __get_wpgmptr              1001e870 f   LIBCMT:crt0dat.obj
 0001:0001d89f       __init_pointers            1001e89f f   LIBCMT:crt0dat.obj
 0001:0001d8ef       __initterm_e               1001e8ef f   LIBCMT:crt0dat.obj
 0001:0001d911       __lockexit                 1001e911 f   LIBCMT:crt0dat.obj
 0001:0001d91a       __unlockexit               1001e91a f   LIBCMT:crt0dat.obj
 0001:0001da52       _exit                      1001ea52 f   LIBCMT:crt0dat.obj
 0001:0001da66       _calloc                    1001ea66 f   LIBCMT:calloc.obj
 0001:0001daa4       _free                      1001eaa4 f   LIBCMT:free.obj
 0001:0001dadc       _realloc                   1001eadc f   LIBCMT:realloc.obj
 0001:0001db90       _strcmp                    1001eb90 f   LIBCMT:strcmp.obj
 0001:0001dc20       _strlen                    1001ec20 f   LIBCMT:strlen.obj
 0001:0001dcb0       _memmove                   1001ecb0 f   LIBCMT:memmove.obj
 0001:0001e300       _strchr                    1001f300 f   LIBCMT:strchr.obj
 0001:0001e36e       ___from_strstr_to_strchr   1001f36e     LIBCMT:strchr.obj
 0001:0001e430       _strncat                   1001f430 f   LIBCMT:strncat.obj
 0001:0001e570       _strncpy                   1001f570 f   LIBCMT:strncpy.obj
 0001:0001e694       ___initstdio               1001f694 f   LIBCMT:_file.obj
 0001:0001e707       ___endstdio                1001f707 f   LIBCMT:_file.obj
 0001:0001e72e       ___iob_func                1001f72e f   LIBCMT:_file.obj
 0001:0001e734       __lock_file                1001f734 f   LIBCMT:_file.obj
 0001:0001e773       __lock_file2               1001f773 f   LIBCMT:_file.obj
 0001:0001e7a3       __unlock_file              1001f7a3 f   LIBCMT:_file.obj
 0001:0001e7dd       __unlock_file2             1001f7dd f   LIBCMT:_file.obj
 0001:0001e80a       __fclose_nolock            1001f80a f   LIBCMT:fclose.obj
 0001:0001e876       _fclose                    1001f876 f   LIBCMT:fclose.obj
 0001:0001e8ed       __fsopen                   1001f8ed f   LIBCMT:fopen.obj
 0001:0001e9b1       _fopen                     1001f9b1 f   LIBCMT:fopen.obj
 0001:0001e9c6       _fopen_s                   1001f9c6 f   LIBCMT:fopen.obj
 0001:0001ea0b       __fprintf_l                1001fa0b f   LIBCMT:fprintf.obj
 0001:0001ea25       __fprintf_p                1001fa25 f   LIBCMT:fprintf.obj
 0001:0001ea3e       __fprintf_p_l              1001fa3e f   LIBCMT:fprintf.obj
 0001:0001ea58       __fprintf_s_l              1001fa58 f   LIBCMT:fprintf.obj
 0001:0001ea72       _fprintf                   1001fa72 f   LIBCMT:fprintf.obj
 0001:0001eb8d       _fprintf_s                 1001fb8d f   LIBCMT:fprintf.obj
 0001:0001eba6       __fread_nolock             1001fba6 f   LIBCMT:fread.obj
 0001:0001ebc1       __fread_nolock_s           1001fbc1 f   LIBCMT:fread.obj
 0001:0001ed84       _fread                     1001fd84 f   LIBCMT:fread.obj
 0001:0001ed9f       _fread_s                   1001fd9f f   LIBCMT:fread.obj
 0001:0001ee30       __fwrite_nolock            1001fe30 f   LIBCMT:fwrite.obj
 0001:0001ef87       _fwrite                    1001ff87 f   LIBCMT:fwrite.obj
 0001:0001f005       __unlink                   10020005 f   LIBCMT:unlink.obj
 0001:0001f00e       _remove                    1002000e f   LIBCMT:unlink.obj
 0001:0001f04e       _rewind                    1002004e f   LIBCMT:rewind.obj
 0001:0001f116       __scprintf                 10020116 f   LIBCMT:sprintf.obj
 0001:0001f129       __scprintf_l               10020129 f   LIBCMT:sprintf.obj
 0001:0001f140       __scprintf_p               10020140 f   LIBCMT:sprintf.obj
 0001:0001f153       __scprintf_p_l             10020153 f   LIBCMT:sprintf.obj
 0001:0001f16a       __snprintf_s               1002016a f   LIBCMT:sprintf.obj
 0001:0001f189       __snprintf_s_l             10020189 f   LIBCMT:sprintf.obj
 0001:0001f1a9       __sprintf_l                100201a9 f   LIBCMT:sprintf.obj
 0001:0001f1c3       __sprintf_p                100201c3 f   LIBCMT:sprintf.obj
 0001:0001f1df       __sprintf_p_l              100201df f   LIBCMT:sprintf.obj
 0001:0001f1fc       __sprintf_s_l              100201fc f   LIBCMT:sprintf.obj
 0001:0001f219       _sprintf                   10020219 f   LIBCMT:sprintf.obj
 0001:0001f29b       _sprintf_s                 1002029b f   LIBCMT:sprintf.obj
 0001:0001f2b7       _ldexp                     100202b7 f   LIBCMT:ldexp.obj
 0001:0001f49f       __invoke_watson_if_error   1002049f f i LIBCMT:wassert.obj
 0001:0001f4bf       __wassert                  100204bf f   LIBCMT:wassert.obj
 0001:0001fb70       _strcpy                    10020b70 f   LIBCMT:strcat.obj
 0001:0001fb80       _strcat                    10020b80 f   LIBCMT:strcat.obj
 0001:0001fc68       __CRT_INIT@12              10020c68 f   LIBCMT:dllcrt0.obj
 0001:0001fdd4       __DllMainCRTStartup@12     10020dd4 f   LIBCMT:dllcrt0.obj
 0001:0001ff05       ___DllXcptFilter           10020f05 f   LIBCMT:dllcrt0.obj
 0001:0001ff2a       ?_query_new_handler@@YAP6AHI@ZXZ 10020f2a f   LIBCMT:handler.obj
 0001:0001ff37       ?_set_new_handler@@YAP6AHI@ZH@Z 10020f37 f   LIBCMT:handler.obj
 0001:0001ff40       ?_set_new_handler@@YAP6AHI@ZP6AHI@Z@Z 10020f40 f   LIBCMT:handler.obj
 0001:0001ff75       __callnewh                 10020f75 f   LIBCMT:handler.obj
 0001:0001ff9b       __initp_heap_handler       10020f9b f   LIBCMT:handler.obj
 0001:0001ffa8       __FF_MSGBANNER             10020fa8 f   LIBCMT:crt0msg.obj
 0001:0001ffe1       __GET_RTERRMSG             10020fe1 f   LIBCMT:crt0msg.obj
 0001:00020005       __NMSG_WRITE               10021005 f   LIBCMT:crt0msg.obj
 0001:000201c0       ___doserrno                100211c0 f   LIBCMT:dosmap.obj
 0001:000201d3       __dosmaperr                100211d3 f   LIBCMT:dosmap.obj
 0001:000201f4       __errno                    100211f4 f   LIBCMT:dosmap.obj
 0001:00020207       __get_doserrno             10021207 f   LIBCMT:dosmap.obj
 0001:0002022a       __get_errno                1002122a f   LIBCMT:dosmap.obj
 0001:0002024d       __get_errno_from_oserr     1002124d f   LIBCMT:dosmap.obj
 0001:0002028e       __set_doserrno             1002128e f   LIBCMT:dosmap.obj
 0001:000202ad       __set_errno                100212ad f   LIBCMT:dosmap.obj
 0001:000202cc       __get_heap_handle          100212cc f   LIBCMT:heapinit.obj
 0001:000202d2       __heap_init                100212d2 f   LIBCMT:heapinit.obj
 0001:000202e7       __heap_term                100212e7 f   LIBCMT:heapinit.obj
 0001:000202ef       __crt_debugger_hook        100212ef f   LIBCMT:dbghook.obj
 0001:00020330       ___crtFlsAlloc             10021330 f   LIBCMT:winapisupp.obj
 0001:0002033e       ___crtFlsFree              1002133e f   LIBCMT:winapisupp.obj
 0001:0002034c       ___crtFlsGetValue          1002134c f   LIBCMT:winapisupp.obj
 0001:0002035a       ___crtFlsSetValue          1002135a f   LIBCMT:winapisupp.obj
 0001:0002036b       ___crtGetShowWindowMode    1002136b f   LIBCMT:winapisupp.obj
 0001:0002038c       ___crtIsPackagedApp        1002138c f   LIBCMT:winapisupp.obj
 0001:000203d8       ___crtSetUnhandledExceptionFilter 100213d8 f   LIBCMT:winapisupp.obj
 0001:000203e6       ___crtTerminateProcess     100213e6 f   LIBCMT:winapisupp.obj
 0001:000203fb       ___crtUnhandledException   100213fb f   LIBCMT:winapisupp.obj
 0001:00020411       __errcode                  10021411 f   LIBCMT:fpexcept.obj
 0001:00020443       __except1                  10021443 f   LIBCMT:fpexcept.obj
 0001:0002050b       __except2                  1002150b f   LIBCMT:fpexcept.obj
 0001:0002060b       __handle_exc               1002160b f   LIBCMT:fpexcept.obj
 0001:000207e7       __handle_qnan1             100217e7 f   LIBCMT:fpexcept.obj
 0001:00020837       __handle_qnan2             10021837 f   LIBCMT:fpexcept.obj
 0001:00020897       __raise_exc                10021897 f   LIBCMT:fpexcept.obj
 0001:000208b8       __raise_exc_ex             100218b8 f   LIBCMT:fpexcept.obj
 0001:00020b9d       __raise_excf               10021b9d f   LIBCMT:fpexcept.obj
 0001:00020bbe       __set_errno_from_matherr   10021bbe f   LIBCMT:fpexcept.obj
 0001:00020beb       __umatherr                 10021beb f   LIBCMT:fpexcept.obj
 0001:00020c89       __add_exp                  10021c89 f   LIBCMT:util.obj
 0001:00020cb6       __decomp                   10021cb6 f   LIBCMT:util.obj
 0001:00020d88       __get_exp                  10021d88 f   LIBCMT:util.obj
 0001:00020d9f       __set_bexp                 10021d9f f   LIBCMT:util.obj
 0001:00020dc4       __set_exp                  10021dc4 f   LIBCMT:util.obj
 0001:00020def       __sptype                   10021def f   LIBCMT:util.obj
 0001:00020e4b       ___clrfp_sse2              10021e4b f   LIBCMT:fpctrl.obj
 0001:00020e6c       ___ctrlfp_sse2             10021e6c f   LIBCMT:fpctrl.obj
 0001:00020ea5       ___fclrf_sse2              10021ea5 f   LIBCMT:fpctrl.obj
 0001:00020ec0       ___get_fpsr_sse2           10021ec0 f   LIBCMT:fpctrl.obj
 0001:00020eda       ___set_fpsr_sse2           10021eda f   LIBCMT:fpctrl.obj
 0001:00020f50       ___set_statfp_sse2         10021f50 f   LIBCMT:fpctrl.obj
 0001:00020f69       ___statfp_sse2             10021f69 f   LIBCMT:fpctrl.obj
 0001:00020f7e       __clrfp                    10021f7e f   LIBCMT:fpctrl.obj
 0001:00020f8d       __ctrlfp                   10021f8d f   LIBCMT:fpctrl.obj
 0001:00020fb6       __set_statfp               10021fb6 f   LIBCMT:fpctrl.obj
 0001:0002100c       __statfp                   1002200c f   LIBCMT:fpctrl.obj
 0001:00021020       __cintrindisp2             10022020 f   LIBCMT:87cdisp.obj
 0001:0002105e       __cintrindisp1             1002205e f   LIBCMT:87cdisp.obj
 0001:0002109b       __ctrandisp2               1002209b f   LIBCMT:87cdisp.obj
 0001:0002122a       __ctrandisp1               1002222a f   LIBCMT:87cdisp.obj
 0001:0002125d       __fload                    1002225d f   LIBCMT:87cdisp.obj
 0001:000212a0       __trandisp1                100222a0 f   LIBCMT:87disp.obj
 0001:00021307       __trandisp2                10022307 f   LIBCMT:87disp.obj
 0001:00021393       __rttospopde               10022393     LIBCMT:87disp.obj
 0001:00021398       __rttospop                 10022398     LIBCMT:87disp.obj
 0001:0002139a       __rtnospop                 1002239a     LIBCMT:87disp.obj
 0001:0002139c       __rttosnpop                1002239c     LIBCMT:87disp.obj
 0001:0002139d       __rtnospopde               1002239d     LIBCMT:87disp.obj
 0001:000213a4       __rtzeropop                100223a4     LIBCMT:87disp.obj
 0001:000213a6       __rtzeronpop               100223a6     LIBCMT:87disp.obj
 0001:000213ab       __rtonepop                 100223ab     LIBCMT:87disp.obj
 0001:000213ad       __rtonenpop                100223ad     LIBCMT:87disp.obj
 0001:000213b2       __tosnan1                  100223b2     LIBCMT:87disp.obj
 0001:000213dd       __nosnan2                  100223dd     LIBCMT:87disp.obj
 0001:000213df       __tosnan2                  100223df     LIBCMT:87disp.obj
 0001:00021407       __nan2                     10022407     LIBCMT:87disp.obj
 0001:00021446       __rtindfpop                10022446     LIBCMT:87disp.obj
 0001:00021448       __rtindfnpop               10022448     LIBCMT:87disp.obj
 0001:00021459       __rttosnpopde              10022459     LIBCMT:87disp.obj
 0001:00021463       __rtchsifneg               10022463     LIBCMT:87disp.obj
 0001:0002146a       __sse2_mathfcns_init       1002246a f   LIBCMT:mathfcns.obj
 0001:00021479       __set_SSE2_enable          10022479 f   LIBCMT:mathfcns.obj
 0001:000214a0       __CIpow_pentium4           100224a0 f   LIBCMT:pow_pentium4.obj
 0001:000214b9       __pow_pentium4             100224b9     LIBCMT:pow_pentium4.obj
 0001:00022011       __fFEXP                    10023011     LIBCMT:87tran.obj
 0001:00022068       __rtinfpopse               10023068     LIBCMT:87tran.obj
 0001:0002206a       __rtinfnpopse              1002306a     LIBCMT:87tran.obj
 0001:0002207a       __fFLN                     1002307a     LIBCMT:87tran.obj
 0001:0002212f       __rtinfpop                 1002312f     LIBCMT:87tran.obj
 0001:00022131       __rtinfnpop                10023131     LIBCMT:87tran.obj
 0001:0002214e       __ffexpm1                  1002314e     LIBCMT:87tran.obj
 0001:00022200       __startTwoArgErrorHandling 10023200 f   LIBCMT:genexcep.obj
 0001:00022217       __startOneArgErrorHandling 10023217 f   LIBCMT:genexcep.obj
 0001:00022260       __twoToTOS                 10023260 f   LIBCMT:common.obj
 0001:00022275       __load_CW                  10023275 f   LIBCMT:common.obj
 0001:0002228c       __convertTOStoQNaN         1002328c f   LIBCMT:common.obj
 0001:000222a5       __fload_withFB             100232a5 f   LIBCMT:common.obj
 0001:000222e8       __checkTOS_withFB          100232e8 f   LIBCMT:common.obj
 0001:000222fe       __fast_exit                100232fe f   LIBCMT:common.obj
 0001:0002230b       __math_exit                1002330b f   LIBCMT:common.obj
 0001:00022335       __check_overflow_exit      10023335 f   LIBCMT:common.obj
 0001:00022349       __check_range_exit         10023349 f   LIBCMT:common.obj
 0001:000223ec       __d_inttype                100233ec f   LIBCMT:powhlp.obj
 0001:00022452       __powhlp                   10023452 f   LIBCMT:powhlp.obj
 0001:00022588       ___libm_error_support      10023588 f   LIBCMT:libm_error.obj
 0001:00022870       ___libm_setusermatherr     10023870 f   LIBCMT:libm_error.obj
 0001:0002289c       __floor_default            1002389c f   LIBCMT:floor.obj
 0001:0002296f       ___isa_available_init      1002396f f   LIBCMT:cpu_disp.obj
 0001:00022aa8       __VEC_memset               10023aa8 f   LIBCMT:p4_memset.obj
 0001:00022b70       ?_invalid_parameter@@YAXPBG00II@Z 10023b70 f   LIBCMT:invarg.obj
 0001:00022b75       ?_invoke_watson@@YAXPBG00II@Z 10023b75 f   LIBCMT:invarg.obj
 0001:00022b8d       __call_reportfault         10023b8d f   LIBCMT:invarg.obj
 0001:00022cb0       __get_invalid_parameter_handler 10023cb0 f   LIBCMT:invarg.obj
 0001:00022cbd       __initp_misc_invarg        10023cbd f   LIBCMT:invarg.obj
 0001:00022cca       __invalid_parameter        10023cca f   LIBCMT:invarg.obj
 0001:00022cf5       __invalid_parameter_noinfo 10023cf5 f   LIBCMT:invarg.obj
 0001:00022d05       __invalid_parameter_noinfo_noreturn 10023d05 f   LIBCMT:invarg.obj
 0001:00022d20       __invoke_watson            10023d20 f   LIBCMT:invarg.obj
 0001:00022d4b       __set_invalid_parameter_handler 10023d4b f   LIBCMT:invarg.obj
 0001:00022d70       __vprintf_l                10023d70 f   LIBCMT:vprintf.obj
 0001:00022d8b       __vprintf_p                10023d8b f   LIBCMT:vprintf.obj
 0001:00022da5       __vprintf_p_l              10023da5 f   LIBCMT:vprintf.obj
 0001:00022dc0       __vprintf_s_l              10023dc0 f   LIBCMT:vprintf.obj
 0001:00022ddb       _vprintf                   10023ddb f   LIBCMT:vprintf.obj
 0001:00022df5       _vprintf_helper            10023df5 f   LIBCMT:vprintf.obj
 0001:00022e7e       _vprintf_s                 10023e7e f   LIBCMT:vprintf.obj
 0001:00022e98       __ftbuf                    10023e98 f   LIBCMT:_sftbuf.obj
 0001:00022ec9       __stbuf                    10023ec9 f   LIBCMT:_sftbuf.obj
 0001:00022f6f       ??0_LocaleUpdate@@QAE@PAUlocaleinfo_struct@@@Z 10023f6f f i LIBCMT:output.obj
 0001:00022ff7       ??1_LocaleUpdate@@QAE@XZ   10023ff7 f i LIBCMT:output.obj
 0001:00023005       ?GetLocaleT@_LocaleUpdate@@QAEPAUlocaleinfo_struct@@XZ 10024005 f i LIBCMT:output.obj
 0001:00023008       __output_l                 10024008 f   LIBCMT:output.obj
 0001:00023bac       _get_int64_arg             10024bac f i LIBCMT:output.obj
 0001:00023bbf       _get_int_arg               10024bbf f i LIBCMT:output.obj
 0001:00023bcf       _get_short_arg             10024bcf f i LIBCMT:output.obj
 0001:00023cd0       __SEH_prolog4              10024cd0 f   LIBCMT:sehprolg4.obj
 0001:00023d15       __SEH_epilog4              10024d15 f   LIBCMT:sehprolg4.obj
 0001:00023d70       __except_handler4          10024d70 f   LIBCMT:chandler4.obj
 0001:00023f05       ?strrchr@@YAPADPADH@Z      10024f05 f i LIBCMT:cvt.obj
 0001:00023f0e       __cfltcvt                  10024f0e f   LIBCMT:cvt.obj
 0001:00023f2f       __cfltcvt_l                10024f2f f   LIBCMT:cvt.obj
 0001:00023fb5       __cftoa                    10024fb5 f   LIBCMT:cvt.obj
 0001:00023fd3       __cftoa_l                  10024fd3 f   LIBCMT:cvt.obj
 0001:0002432d       __cftoe                    1002532d f   LIBCMT:cvt.obj
 0001:0002449a       __cftoe_l                  1002549a f   LIBCMT:cvt.obj
 0001:00024566       __cftof                    10025566 f   LIBCMT:cvt.obj
 0001:0002466b       __cftof_l                  1002566b f   LIBCMT:cvt.obj
 0001:0002472a       __cftog                    1002572a f   LIBCMT:cvt.obj
 0001:00024748       __cftog_l                  10025748 f   LIBCMT:cvt.obj
 0001:00024845       __cropzeros                10025845 f   LIBCMT:cvt.obj
 0001:00024856       __cropzeros_l              10025856 f   LIBCMT:cvt.obj
 0001:000248d4       __fassign                  100258d4 f   LIBCMT:cvt.obj
 0001:000248ec       __fassign_l                100258ec f   LIBCMT:cvt.obj
 0001:0002492c       __forcdecpt                1002592c f   LIBCMT:cvt.obj
 0001:0002493d       __forcdecpt_l              1002593d f   LIBCMT:cvt.obj
 0001:000249af       __positive                 100259af f   LIBCMT:cvt.obj
 0001:000249f1       __setdefaultprecision      100259f1 f   LIBCMT:fp8.obj
 0001:00024a18       __initp_misc_cfltcvt_tab   10025a18 f   LIBCMT:cmiscdat.obj
 0001:00024a37       __RTC_Initialize           10025a37 f   LIBCMT:initsect.obj
 0001:00024a57       __RTC_Terminate            10025a57 f   LIBCMT:initsect.obj
 0001:00024a77       __lock                     10025a77 f   LIBCMT:mlock.obj
 0001:00024aab       __lockerr_exit             10025aab f   LIBCMT:mlock.obj
 0001:00024acb       __mtdeletelocks            10025acb f   LIBCMT:mlock.obj
 0001:00024b1f       __mtinitlocknum            10025b1f f   LIBCMT:mlock.obj
 0001:00024bc6       __mtinitlocks              10025bc6 f   LIBCMT:mlock.obj
 0001:00024bfb       __unlock                   10025bfb f   LIBCMT:mlock.obj
 0001:00024c10       __FindPESection            10025c10 f   LIBCMT:pesect.obj
 0001:00024c60       __IsNonwritableInCurrentImage 10025c60 f   LIBCMT:pesect.obj
 0001:00024d20       __ValidateImageBase        10025d20 f   LIBCMT:pesect.obj
 0001:00024d51       ___onexitinit              10025d51 f   LIBCMT:onexit.obj
 0001:00024d80       __onexit                   10025d80 f   LIBCMT:onexit.obj
 0001:00024e76       _atexit                    10025e76 f   LIBCMT:onexit.obj
 0001:00024e8b       __calloc_crt               10025e8b f   LIBCMT:crtheap.obj
 0001:00024ed5       __malloc_crt               10025ed5 f   LIBCMT:crtheap.obj
 0001:00024f1e       __realloc_crt              10025f1e f   LIBCMT:crtheap.obj
 0001:00024f6a       __recalloc_crt             10025f6a f   LIBCMT:crtheap.obj
 0001:00024fba       __set_malloc_crt_max_wait  10025fba f   LIBCMT:crtheap.obj
 0001:00024fcd       _wait_a_bit                10025fcd f i LIBCMT:crtheap.obj
 0001:00024ff1       ?_inconsistency@@YAXXZ     10025ff1 f   LIBCMT:hooks.obj
 0001:00025029       ?terminate@@YAXXZ          10026029 f   LIBCMT:hooks.obj
 0001:0002505d       ?unexpected@@YAXXZ         1002605d f   LIBCMT:hooks.obj
 0001:00025070       __initp_eh_hooks           10026070 f   LIBCMT:hooks.obj
 0001:00025081       ___getlocaleinfo           10026081 f   LIBCMT:inithelp.obj
 0001:00025258       __initp_misc_purevirt      10026258 f   LIBCMT:inithelp.obj
 0001:00025265       __initp_misc_rand_s        10026265 f   LIBCMT:rand_s.obj
 0001:00025272       _rand_s                    10026272 f   LIBCMT:rand_s.obj
 0001:00025380       ___fpecode                 10026380 f   LIBCMT:winsig.obj
 0001:00025389       ___get_sigabrt             10026389 f   LIBCMT:winsig.obj
 0001:00025396       ___pxcptinfoptrs           10026396 f   LIBCMT:winsig.obj
 0001:0002539f       __initp_misc_winsig        1002639f f   LIBCMT:winsig.obj
 0001:00025454       _raise                     10026454 f   LIBCMT:winsig.obj
 0001:00025645       _signal                    10026645 f   LIBCMT:winsig.obj
 0001:00025897       ___initmbctable            10026897 f   LIBCMT:mbctype.obj
 0001:00025b52       ___updatetmbcinfo          10026b52 f   LIBCMT:mbctype.obj
 0001:00025bf7       __getmbcp                  10026bf7 f   LIBCMT:mbctype.obj
 0001:00025c26       __setmbcp                  10026c26 f   LIBCMT:mbctype.obj
 0001:00025dd4       __setmbcp_nolock           10026dd4 f   LIBCMT:mbctype.obj
 0001:00025fc9       __calloc_impl              10026fc9 f   LIBCMT:calloc_impl.obj
 0001:00026043       __fcloseall                10027043 f   LIBCMT:closeall.obj
 0001:000260e0       __fflush_nolock            100270e0 f   LIBCMT:fflush.obj
 0001:00026126       __flush                    10027126 f   LIBCMT:fflush.obj
 0001:0002618a       __flushall                 1002718a f   LIBCMT:fflush.obj
 0001:00026193       _fflush                    10027193 f   LIBCMT:fflush.obj
 0001:000262cc       __fileno                   100272cc f   LIBCMT:fileno.obj
 0001:000262f0       __close                    100272f0 f   LIBCMT:close.obj
 0001:000263c7       __close_nolock             100273c7 f   LIBCMT:close.obj
 0001:0002646f       __freebuf                  1002746f f   LIBCMT:_freebuf.obj
 0001:0002649f       __getstream                1002749f f   LIBCMT:stream.obj
 0001:000265b7       __openfile                 100275b7 f   LIBCMT:_open.obj
 0001:00026830       __local_unwind4            10027830 f   LIBCMT:exsup4.obj
 0001:00026906       __seh_longjmp_unwind4@4    10027906 f   LIBCMT:exsup4.obj
 0001:00026922       @_EH4_CallFilterFunc@8     10027922 f   LIBCMT:exsup4.obj
 0001:00026939       @_EH4_TransferToHandler@8  10027939 f   LIBCMT:exsup4.obj
 0001:00026952       @_EH4_GlobalUnwind2@8      10027952 f   LIBCMT:exsup4.obj
 0001:0002696b       @_EH4_LocalUnwind@16       1002796b f   LIBCMT:exsup4.obj
 0001:00026982       __vfprintf_l               10027982 f   LIBCMT:vfprintf.obj
 0001:000269a0       __vfprintf_p               100279a0 f   LIBCMT:vfprintf.obj
 0001:000269bd       __vfprintf_p_l             100279bd f   LIBCMT:vfprintf.obj
 0001:000269db       __vfprintf_s_l             100279db f   LIBCMT:vfprintf.obj
 0001:000269f9       _vfprintf                  100279f9 f   LIBCMT:vfprintf.obj
 0001:00026a16       _vfprintf_helper           10027a16 f   LIBCMT:vfprintf.obj
 0001:00026b30       _vfprintf_s                10027b30 f   LIBCMT:vfprintf.obj
 0001:00026b4d       __ioinit                   10027b4d f   LIBCMT:ioinit.obj
 0001:00026b69       __ioinit0                  10027b69 f   LIBCMT:ioinit.obj
 0001:00026b88       __ioinitCallback@12        10027b88 f   LIBCMT:ioinit.obj
 0001:00026e55       __ioterm                   10027e55 f   LIBCMT:ioinit.obj
 0001:00026ea7       __filbuf                   10027ea7 f   LIBCMT:_filbuf.obj
 0001:00026fd5       _memcpy_s                  10027fd5 f   LIBCMT:memcpy_s.obj
 0001:00027054       __read                     10028054 f   LIBCMT:read.obj
 0001:00027169       __read_nolock              10028169 f   LIBCMT:read.obj
 0001:00027903       __flsbuf                   10028903 f   LIBCMT:_flsbuf.obj
 0001:00027a5f       __write                    10028a5f f   LIBCMT:write.obj
 0001:00027b4e       __write_nolock             10028b4e f   LIBCMT:write.obj
 0001:000283ca       __wremove                  100293ca f   LIBCMT:wunlink.obj
 0001:000283f8       __wunlink                  100293f8 f   LIBCMT:wunlink.obj
 0001:00028401       __lseek                    10029401 f   LIBCMT:lseek.obj
 0001:000284f0       __lseek_nolock             100294f0 f   LIBCMT:lseek.obj
 0001:00028562       __vscprintf                10029562 f   LIBCMT:vsprintf.obj
 0001:0002857c       __vscprintf_helper         1002957c f   LIBCMT:vsprintf.obj
 0001:000285d6       __vscprintf_l              100295d6 f   LIBCMT:vsprintf.obj
 0001:000285f1       __vscprintf_p              100295f1 f   LIBCMT:vsprintf.obj
 0001:0002860b       __vscprintf_p_l            1002960b f   LIBCMT:vsprintf.obj
 0001:00028626       __vsprintf_l               10029626 f   LIBCMT:vsprintf.obj
 0001:000286a8       _vsprintf                  100296a8 f   LIBCMT:vsprintf.obj
 0001:000286c0       __vsnprintf_c              100296c0 f   LIBCMT:vsnprnc.obj
 0001:000286e7       __vsnprintf_c_l            100296e7 f   LIBCMT:vsnprnc.obj
 0001:0002870f       __vsnprintf_helper         1002970f f   LIBCMT:vsnprnc.obj
 0001:000287d7       __vsnprintf_s              100297d7 f   LIBCMT:vsnprnc.obj
 0001:000287f5       __vsnprintf_s_l            100297f5 f   LIBCMT:vsnprnc.obj
 0001:000288f0       __vsprintf_p               100298f0 f   LIBCMT:vsnprnc.obj
 0001:00028917       __vsprintf_p_l             10029917 f   LIBCMT:vsnprnc.obj
 0001:0002893f       __vsprintf_s_l             1002993f f   LIBCMT:vsnprnc.obj
 0001:000289b4       _vsprintf_s                100299b4 f   LIBCMT:vsnprnc.obj
 0001:000289cf       __chgsign                  100299cf f   LIBCMT:ieeemisc.obj
 0001:000289fa       __copysign                 100299fa f   LIBCMT:ieeemisc.obj
 0001:00028a20       __finite                   10029a20 f   LIBCMT:ieeemisc.obj
 0001:00028a38       __fpclass                  10029a38 f   LIBCMT:ieeemisc.obj
 0001:00028ad4       __isnan                    10029ad4 f   LIBCMT:ieeemisc.obj
 0001:00028b08       __logb                     10029b08 f   LIBCMT:ieeemisc.obj
 0001:00028be5       __nextafter                10029be5 f   LIBCMT:ieeemisc.obj
 0001:00028e83       __scalb                    10029e83 f   LIBCMT:ieeemisc.obj
 0001:00028e9b       _wcscat_s                  10029e9b f   LIBCMT:wcscat_s.obj
 0001:00028f07       _wcscpy_s                  10029f07 f   LIBCMT:wcscpy_s.obj
 0001:00028f63       _wcslen                    10029f63 f   LIBCMT:wcslen.obj
 0001:00028f7c       _wcsncat_s                 10029f7c f   LIBCMT:wcsncat_s.obj
 0001:0002904a       __set_abort_behavior       1002a04a f   LIBCMT:abort.obj
 0001:00029069       _abort                     1002a069 f   LIBCMT:abort.obj
 0001:000290ac       ___set_app_type            1002a0ac f   LIBCMT:errmode.obj
 0001:000290b9       __set_error_mode           1002a0b9 f   LIBCMT:errmode.obj
 0001:00029213       __i64tow_s                 1002a213 f   LIBCMT:xtows.obj
 0001:00029244       __itow_s                   1002a244 f   LIBCMT:xtows.obj
 0001:0002926d       __ltow_s                   1002a26d f   LIBCMT:xtows.obj
 0001:00029297       __ui64tow_s                1002a297 f   LIBCMT:xtows.obj
 0001:000292b2       __ultow_s                  1002a2b2 f   LIBCMT:xtows.obj
 0001:000293bd       _setvbuf                   1002a3bd f   LIBCMT:setvbuf.obj
 0001:000294c3       __fwprintf_l               1002a4c3 f   LIBCMT:fwprintf.obj
 0001:000294dd       __fwprintf_p               1002a4dd f   LIBCMT:fwprintf.obj
 0001:000294f6       __fwprintf_p_l             1002a4f6 f   LIBCMT:fwprintf.obj
 0001:00029510       __fwprintf_s_l             1002a510 f   LIBCMT:fwprintf.obj
 0001:0002952a       _fwprintf                  1002a52a f   LIBCMT:fwprintf.obj
 0001:000295bb       _fwprintf_s                1002a5bb f   LIBCMT:fwprintf.obj
 0001:000295d4       __vsnwprintf_s             1002a5d4 f   LIBCMT:vswprnc.obj
 0001:000295f2       __vsnwprintf_s_l           1002a5f2 f   LIBCMT:vswprnc.obj
 0001:000296f1       __vswprintf_c              1002a6f1 f   LIBCMT:vswprnc.obj
 0001:00029718       __vswprintf_c_l            1002a718 f   LIBCMT:vswprnc.obj
 0001:00029740       __vswprintf_helper         1002a740 f   LIBCMT:vswprnc.obj
 0001:00029839       __vswprintf_p              1002a839 f   LIBCMT:vswprnc.obj
 0001:00029860       __vswprintf_p_l            1002a860 f   LIBCMT:vswprnc.obj
 0001:00029888       __vswprintf_s_l            1002a888 f   LIBCMT:vswprnc.obj
 0001:000298ff       _vswprintf_s               1002a8ff f   LIBCMT:vswprnc.obj
 0001:0002991a       ___crtMessageBoxW          1002a91a f   LIBCMT:crtmboxw.obj
 0001:00029afc       ___crtMessageBoxWaitThreadW@4 1002aafc f   LIBCMT:crtmboxw.obj
 0001:00029b1a       __XcptFilter               1002ab1a f   LIBCMT:winxfltr.obj
 0001:00029c75       ___CppXcptFilter           1002ac75 f   LIBCMT:winxfltr.obj
 0001:00029cc7       ___get_flsindex            1002acc7 f   LIBCMT:tidtable.obj
 0001:00029ccd       ___threadhandle            1002accd f   LIBCMT:tidtable.obj
 0001:00029cd3       ___threadid                1002acd3 f   LIBCMT:tidtable.obj
 0001:00029cd9       __freefls@4                1002acd9 f   LIBCMT:tidtable.obj
 0001:00029e10       __freeptd                  1002ae10 f   LIBCMT:tidtable.obj
 0001:00029e46       __getptd                   1002ae46 f   LIBCMT:tidtable.obj
 0001:00029e5e       __getptd_noexit            1002ae5e f   LIBCMT:tidtable.obj
 0001:00029ecd       __initptd                  1002aecd f   LIBCMT:tidtable.obj
 0001:00029f79       __mtinit                   1002af79 f   LIBCMT:tidtable.obj
 0001:00029fef       __mtterm                   1002afef f   LIBCMT:tidtable.obj
 0001:0002a00c       __set_pgmptr               1002b00c f i LIBCMT:stdargv.obj
 0001:0002a019       __setargv                  1002b019 f   LIBCMT:stdargv.obj
 0001:0002a246       __setenvp                  1002b246 f   LIBCMT:stdenvp.obj
 0001:0002a327       ___security_init_cookie    1002b327 f   LIBCMT:gs_support.obj
 0001:0002a3c1       ___crtGetEnvironmentStringsA 1002b3c1 f   LIBCMT:a_env.obj
 0001:0002a44c       _wcsncpy_s                 1002b44c f   LIBCMT:wcsncpy_s.obj
 0001:0002a50a       __matherr                  1002b50a f   LIBCMT:matherr.obj
 0001:0002a50d       __87except                 1002b50d f   LIBCMT:87except.obj
 0001:0002a616       __frnd                     1002b616 f   LIBCMT:frnd.obj
 0001:0002a628       __output_s_l               1002b628 f   LIBCMT:outputs.obj
 0001:0002b2ce       __output_p_l               1002c2ce f   LIBCMT:outputp.obj
 0001:0002c642       __validate_param_reuseA    1002d642 f   LIBCMT:outputp.obj
 0001:0002c778       _get_crtdouble_arg         1002d778 f i LIBCMT:outputp.obj
 0001:0002c875       __isatty                   1002d875 f   LIBCMT:isatty.obj
 0001:0002c8d9       ___addlocaleref            1002d8d9 f   LIBCMT:localref.obj
 0001:0002c969       ___freetlocinfo            1002d969 f   LIBCMT:localref.obj
 0001:0002cac3       ___removelocaleref         1002dac3 f   LIBCMT:localref.obj
 0001:0002cb5e       ___updatetlocinfo          1002db5e f   LIBCMT:localref.obj
 0001:0002cbda       __updatetlocinfoEx_nolock  1002dbda f   LIBCMT:localref.obj
 0001:0002cc25       ___iswcsym                 1002dc25 f i LIBCMT:_wctype.obj
 0001:0002cc49       ___iswcsymf                1002dc49 f i LIBCMT:_wctype.obj
 0001:0002cc6d       __isleadbyte_l             1002dc6d f i LIBCMT:_wctype.obj
 0001:0002cca3       __iswalnum_l               1002dca3 f i LIBCMT:_wctype.obj
 0001:0002ccb7       __iswalpha_l               1002dcb7 f i LIBCMT:_wctype.obj
 0001:0002cccb       __iswcntrl_l               1002dccb f i LIBCMT:_wctype.obj
 0001:0002ccdc       __iswcsym_l                1002dcdc f i LIBCMT:_wctype.obj
 0001:0002cd00       __iswcsymf_l               1002dd00 f i LIBCMT:_wctype.obj
 0001:0002cd24       __iswdigit_l               1002dd24 f i LIBCMT:_wctype.obj
 0001:0002cd35       __iswgraph_l               1002dd35 f i LIBCMT:_wctype.obj
 0001:0002cd49       __iswlower_l               1002dd49 f i LIBCMT:_wctype.obj
 0001:0002cd5a       __iswprint_l               1002dd5a f i LIBCMT:_wctype.obj
 0001:0002cd6e       __iswpunct_l               1002dd6e f i LIBCMT:_wctype.obj
 0001:0002cd7f       __iswspace_l               1002dd7f f i LIBCMT:_wctype.obj
 0001:0002cd90       __iswupper_l               1002dd90 f i LIBCMT:_wctype.obj
 0001:0002cda1       __iswxdigit_l              1002dda1 f i LIBCMT:_wctype.obj
 0001:0002cdb5       _isleadbyte                1002ddb5 f i LIBCMT:_wctype.obj
 0001:0002cdc6       _iswalnum                  1002ddc6 f i LIBCMT:_wctype.obj
 0001:0002cdda       _iswalpha                  1002ddda f i LIBCMT:_wctype.obj
 0001:0002cdee       _iswascii                  1002ddee f i LIBCMT:_wctype.obj
 0001:0002ce00       _iswcntrl                  1002de00 f i LIBCMT:_wctype.obj
 0001:0002ce11       _iswdigit                  1002de11 f i LIBCMT:_wctype.obj
 0001:0002ce22       _iswgraph                  1002de22 f i LIBCMT:_wctype.obj
 0001:0002ce36       _iswlower                  1002de36 f i LIBCMT:_wctype.obj
 0001:0002ce47       _iswprint                  1002de47 f i LIBCMT:_wctype.obj
 0001:0002ce5b       _iswpunct                  1002de5b f i LIBCMT:_wctype.obj
 0001:0002ce6c       _iswspace                  1002de6c f i LIBCMT:_wctype.obj
 0001:0002ce7d       _iswupper                  1002de7d f i LIBCMT:_wctype.obj
 0001:0002ce8e       _iswxdigit                 1002de8e f i LIBCMT:_wctype.obj
 0001:0002cea2       __wctomb_l                 1002dea2 f   LIBCMT:wctomb.obj
 0001:0002ceef       __wctomb_s_l               1002deef f   LIBCMT:wctomb.obj
 0001:0002d011       _wctomb                    1002e011 f   LIBCMT:wctomb.obj
 0001:0002d042       _wctomb_s                  1002e042 f   LIBCMT:wctomb.obj
 0001:0002d060       __aulldvrm                 1002e060 f   LIBCMT:ulldvrm.obj
 0001:0002d0f5       ___isascii                 1002e0f5 f i LIBCMT:_ctype.obj
 0001:0002d105       ___iscsym                  1002e105 f i LIBCMT:_ctype.obj
 0001:0002d125       ___iscsymf                 1002e125 f i LIBCMT:_ctype.obj
 0001:0002d142       ___toascii                 1002e142 f i LIBCMT:_ctype.obj
 0001:0002d14d       __isalnum_l                1002e14d f i LIBCMT:_ctype.obj
 0001:0002d1a3       __isalpha_l                1002e1a3 f i LIBCMT:_ctype.obj
 0001:0002d1f9       __iscntrl_l                1002e1f9 f i LIBCMT:_ctype.obj
 0001:0002d249       __iscsym_l                 1002e249 f i LIBCMT:_ctype.obj
 0001:0002d26a       __iscsymf_l                1002e26a f i LIBCMT:_ctype.obj
 0001:0002d28b       __isdigit_l                1002e28b f i LIBCMT:_ctype.obj
 0001:0002d2db       __isgraph_l                1002e2db f i LIBCMT:_ctype.obj
 0001:0002d331       __islower_l                1002e331 f i LIBCMT:_ctype.obj
 0001:0002d381       __isprint_l                1002e381 f i LIBCMT:_ctype.obj
 0001:0002d3d7       __ispunct_l                1002e3d7 f i LIBCMT:_ctype.obj
 0001:0002d427       __isspace_l                1002e427 f i LIBCMT:_ctype.obj
 0001:0002d477       __isupper_l                1002e477 f i LIBCMT:_ctype.obj
 0001:0002d4c7       __isxdigit_l               1002e4c7 f i LIBCMT:_ctype.obj
 0001:0002d51d       _isalnum                   1002e51d f i LIBCMT:_ctype.obj
 0001:0002d54a       _isalpha                   1002e54a f i LIBCMT:_ctype.obj
 0001:0002d577       _iscntrl                   1002e577 f i LIBCMT:_ctype.obj
 0001:0002d5a2       _isdigit                   1002e5a2 f i LIBCMT:_ctype.obj
 0001:0002d5cd       _isgraph                   1002e5cd f i LIBCMT:_ctype.obj
 0001:0002d5fa       _islower                   1002e5fa f i LIBCMT:_ctype.obj
 0001:0002d625       _isprint                   1002e625 f i LIBCMT:_ctype.obj
 0001:0002d652       _ispunct                   1002e652 f i LIBCMT:_ctype.obj
 0001:0002d67d       _isspace                   1002e67d f i LIBCMT:_ctype.obj
 0001:0002d6a8       _isupper                   1002e6a8 f i LIBCMT:_ctype.obj
 0001:0002d6d3       _isxdigit                  1002e6d3 f i LIBCMT:_ctype.obj
 0001:0002d700       __tolower                  1002e700 f   LIBCMT:tolower.obj
 0001:0002d70b       __tolower_l                1002e70b f   LIBCMT:tolower.obj
 0001:0002d84c       _tolower                   1002e84c f   LIBCMT:tolower.obj
 0001:0002d878       _strcpy_s                  1002e878 f   LIBCMT:strcpy_s.obj
 0001:0002d8d0       _strrchr                   1002e8d0 f   LIBCMT:strrchr.obj
 0001:0002da07       __fptostr                  1002ea07 f   LIBCMT:_fptostr.obj
 0001:0002dab7       __atodbl                   1002eab7 f   LIBCMT:atodbl.obj
 0001:0002dacc       __atodbl_l                 1002eacc f   LIBCMT:atodbl.obj
 0001:0002db58       __atoflt                   1002eb58 f   LIBCMT:atodbl.obj
 0001:0002db6d       __atoflt_l                 1002eb6d f   LIBCMT:atodbl.obj
 0001:0002dbf9       __atoldbl                  1002ebf9 f   LIBCMT:atodbl.obj
 0001:0002dc0e       __atoldbl_l                1002ec0e f   LIBCMT:atodbl.obj
 0001:0002dc9b       ___dtold                   1002ec9b f   LIBCMT:cfout.obj
 0001:0002dd61       __fltout2                  1002ed61 f   LIBCMT:cfout.obj
 0001:0002ddf0       __alldvrm                  1002edf0 f   LIBCMT:lldvrm.obj
 0001:0002ded0       __aullshr                  1002eed0 f   LIBCMT:ullshr.obj
 0001:0002deef       __get_output_format        1002eeef f   LIBCMT:outputformat.obj
 0001:0002def5       __set_output_format        1002eef5 f   LIBCMT:outputformat.obj
 0001:0002df27       __controlfp_s              1002ef27 f   LIBCMT:contrlfp.obj
 0001:0002df84       __fptrap                   1002ef84 f   LIBCMT:crt0fp.obj
 0001:0002df8d       __msize                    1002ef8d f   LIBCMT:msize.obj
 0001:0002dfbe       __recalloc                 1002efbe f   LIBCMT:recalloc.obj
 0001:0002e027       _strncpy_s                 1002f027 f   LIBCMT:strncpy_s.obj
 0001:0002e1a3       __MarkAllocaS              1002f1a3 f i LIBCMT:a_loc.obj
 0001:0002e1b7       ___crtGetLocaleInfoA       1002f1b7 f   LIBCMT:a_loc.obj
 0001:0002e1ef       __freea                    1002f1ef f i LIBCMT:a_loc.obj
 0001:0002e20d       ___crtCompareStringEx      1002f20d f   LIBCMT:winapinls.obj
 0001:0002e22f       ___crtEnumSystemLocalesEx  1002f22f f   LIBCMT:winapinls.obj
 0001:0002e245       ___crtGetDateFormatEx      1002f245 f   LIBCMT:winapinls.obj
 0001:0002e264       ___crtGetLocaleInfoEx      1002f264 f   LIBCMT:winapinls.obj
 0001:0002e27b       ___crtGetTimeFormatEx      1002f27b f   LIBCMT:winapinls.obj
 0001:0002e298       ___crtGetUserDefaultLocaleName 1002f298 f   LIBCMT:winapinls.obj
 0001:0002e2a9       ___crtIsValidLocaleName    1002f2a9 f   LIBCMT:winapinls.obj
 0001:0002e2b7       ___crtLCMapStringEx        1002f2b7 f   LIBCMT:winapinls.obj
 0001:0002e4e2       ___crtLCMapStringA         1002f4e2 f   LIBCMT:a_map.obj
 0001:0002e612       ___crtGetStringTypeA       1002f612 f   LIBCMT:a_str.obj
 0001:0002e650       __commit                   1002f650 f   LIBCMT:commit.obj
 0001:0002e747       ___lock_fhandle            1002f747 f   LIBCMT:osfinfo.obj
 0001:0002e7d3       __alloc_osfhnd             1002f7d3 f   LIBCMT:osfinfo.obj
 0001:0002e982       __free_osfhnd              1002f982 f   LIBCMT:osfinfo.obj
 0001:0002ea08       __get_osfhandle            1002fa08 f   LIBCMT:osfinfo.obj
 0001:0002ea7a       __open_osfhandle           1002fa7a f   LIBCMT:osfinfo.obj
 0001:0002eb90       __set_osfhnd               1002fb90 f   LIBCMT:osfinfo.obj
 0001:0002ec12       __unlock_fhandle           1002fc12 f   LIBCMT:osfinfo.obj
 0001:0002ec38       __open                     1002fc38 f   LIBCMT:open.obj
 0001:0002ece5       __sopen                    1002fce5 f   LIBCMT:open.obj
 0001:0002ed16       __sopen_helper             1002fd16 f   LIBCMT:open.obj
 0001:0002eddd       __sopen_nolock             1002fddd f   LIBCMT:open.obj
 0001:0002ee29       __sopen_s                  1002fe29 f   LIBCMT:open.obj
 0001:0002ee47       __mbsnbcmp                 1002fe47 f   LIBCMT:mbsnbcmp.obj
 0001:0002ee5f       __mbsnbcmp_l               1002fe5f f   LIBCMT:mbsnbcmp.obj
 0001:0002ef74       __mbsnbicmp                1002ff74 f   LIBCMT:mbsnbicm.obj
 0001:0002ef8c       __mbsnbicmp_l              1002ff8c f   LIBCMT:mbsnbicm.obj
 0001:0002f150       __global_unwind2           10030150 f   LIBCMT:exsup.obj
 0001:0002f1b5       __local_unwind2            100301b5 f   LIBCMT:exsup.obj
 0001:0002f239       __abnormal_termination     10030239 f   LIBCMT:exsup.obj
 0001:0002f25c       __NLG_Notify1              1003025c f   LIBCMT:exsup.obj
 0001:0002f265       __NLG_Notify               10030265 f   LIBCMT:exsup.obj
 0001:0002f27c       __NLG_Dispatch2            1003027c     LIBCMT:exsup.obj
 0001:0002f27c       __NLG_Dispatch             1003027c     LIBCMT:exsup.obj
 0001:0002f284       __NLG_Call                 10030284 f   LIBCMT:exsup.obj
 0001:0002f286       __NLG_Return2              10030286     LIBCMT:exsup.obj
 0001:0002f287       __getbuf                   10030287 f   LIBCMT:_getbuf.obj
 0001:0002f2cd       __lseeki64                 100302cd f   LIBCMT:lseeki64.obj
 0001:0002f3d6       __lseeki64_nolock          100303d6 f   LIBCMT:lseeki64.obj
 0001:0002f447       __mbtowc_l                 10030447 f   LIBCMT:mbtowc.obj
 0001:0002f53a       _mbtowc                    1003053a f   LIBCMT:mbtowc.obj
 0001:0002f552       __putwch                   10030552 f   LIBCMT:putwch.obj
 0001:0002f59a       __putwch_nolock            1003059a f   LIBCMT:putwch.obj
 0001:0002f5e0       __alloca_probe             100305e0     LIBCMT:chkstk.obj
 0001:0002f5e0       __chkstk                   100305e0 f   LIBCMT:chkstk.obj
 0001:0002f60b       __vfwprintf_l              1003060b f   LIBCMT:vfwprint.obj
 0001:0002f629       __vfwprintf_p              10030629 f   LIBCMT:vfwprint.obj
 0001:0002f646       __vfwprintf_p_l            10030646 f   LIBCMT:vfwprint.obj
 0001:0002f664       __vfwprintf_s_l            10030664 f   LIBCMT:vfwprint.obj
 0001:0002f682       _vfwprintf                 10030682 f   LIBCMT:vfwprint.obj
 0001:0002f69f       _vfwprintf_helper          1003069f f   LIBCMT:vfwprint.obj
 0001:0002f72e       _vfwprintf_s               1003072e f   LIBCMT:vfwprint.obj
 0001:0002f74b       __woutput_l                1003074b f   LIBCMT:woutput.obj
 0001:0003044e       __woutput_s_l              1003144e f   LIBCMT:woutputs.obj
 0001:00031185       __validate_param_reuseW    10032185 f   LIBCMT:woutputp.obj
 0001:000312fb       __woutput_p_l              100322fb f   LIBCMT:woutputp.obj
 0001:00032730       __ismbbalnum               10033730 f   LIBCMT:ismbbyte.obj
 0001:00032749       __ismbbalnum_l             10033749 f   LIBCMT:ismbbyte.obj
 0001:00032763       __ismbbalpha               10033763 f   LIBCMT:ismbbyte.obj
 0001:0003277c       __ismbbalpha_l             1003377c f   LIBCMT:ismbbyte.obj
 0001:00032796       __ismbbgraph               10033796 f   LIBCMT:ismbbyte.obj
 0001:000327af       __ismbbgraph_l             100337af f   LIBCMT:ismbbyte.obj
 0001:000327c9       __ismbbkalnum              100337c9 f   LIBCMT:ismbbyte.obj
 0001:000327df       __ismbbkalnum_l            100337df f   LIBCMT:ismbbyte.obj
 0001:000327f6       __ismbbkana                100337f6 f   LIBCMT:ismbbyte.obj
 0001:00032807       __ismbbkana_l              10033807 f   LIBCMT:ismbbyte.obj
 0001:00032851       __ismbbkprint              10033851 f   LIBCMT:ismbbyte.obj
 0001:00032867       __ismbbkprint_l            10033867 f   LIBCMT:ismbbyte.obj
 0001:0003287e       __ismbbkpunct              1003387e f   LIBCMT:ismbbyte.obj
 0001:00032894       __ismbbkpunct_l            10033894 f   LIBCMT:ismbbyte.obj
 0001:000328ab       __ismbblead                100338ab f   LIBCMT:ismbbyte.obj
 0001:000328c1       __ismbblead_l              100338c1 f   LIBCMT:ismbbyte.obj
 0001:000328d8       __ismbbprint               100338d8 f   LIBCMT:ismbbyte.obj
 0001:000328f1       __ismbbprint_l             100338f1 f   LIBCMT:ismbbyte.obj
 0001:0003290b       __ismbbpunct               1003390b f   LIBCMT:ismbbyte.obj
 0001:00032921       __ismbbpunct_l             10033921 f   LIBCMT:ismbbyte.obj
 0001:00032938       __ismbbtrail               10033938 f   LIBCMT:ismbbyte.obj
 0001:0003294e       __ismbbtrail_l             1003394e f   LIBCMT:ismbbyte.obj
 0001:00032b89       __strtol_l                 10033b89 f   LIBCMT:strtol.obj
 0001:00032ba4       __strtoul_l                10033ba4 f   LIBCMT:strtol.obj
 0001:00032bbf       _strtol                    10033bbf f   LIBCMT:strtol.obj
 0001:00032be9       _strtoul                   10033be9 f   LIBCMT:strtol.obj
 0001:00032c13       ___free_lconv_mon          10033c13 f   LIBCMT:initmon.obj
 0001:00032d0f       ___init_monetary           10033d0f f   LIBCMT:initmon.obj
 0001:000330e9       ___free_lconv_num          100340e9 f   LIBCMT:initnum.obj
 0001:00033150       ___init_numeric            10034150 f   LIBCMT:initnum.obj
 0001:00033390       ___free_lc_time            10034390 f   LIBCMT:inittime.obj
 0001:00033710       ___init_time               10034710 f   LIBCMT:inittime.obj
 0001:00033f7d       _localeconv                10034f7d f   LIBCMT:lconv.obj
 0001:00033fa3       __iswctype_l               10034fa3 f   LIBCMT:iswctype.obj
 0001:00033fb5       _is_wctype                 10034fb5 f   LIBCMT:iswctype.obj
 0001:00033fbe       _iswctype                  10034fbe f   LIBCMT:iswctype.obj
 0001:00034010       ____lc_codepage_func       10035010 f   LIBCMT:initctyp.obj
 0001:00034036       ____lc_collate_cp_func     10035036 f   LIBCMT:initctyp.obj
 0001:0003405c       ____lc_locale_name_func    1003505c f   LIBCMT:initctyp.obj
 0001:00034084       ____mb_cur_max_func        10035084 f   LIBCMT:initctyp.obj
 0001:000340aa       ____mb_cur_max_l_func      100350aa f   LIBCMT:initctyp.obj
 0001:000340c1       ___init_ctype              100350c1 f   LIBCMT:initctyp.obj
 0001:00034459       ___pctype_func             10035459 f   LIBCMT:ctype.obj
 0001:00034482       ___pwctype_func            10035482 f   LIBCMT:ctype.obj
 0001:00034488       __isctype                  10035488 f   LIBCMT:isctype.obj
 0001:000344b7       __isctype_l                100354b7 f   LIBCMT:isctype.obj
 0001:00034566       __locterm                  10035566 f   LIBCMT:wsetloca.obj
 0001:000345b8       ___init_dummy              100355b8 f   LIBCMT:wsetloca.obj
 0001:000345bb       ____setlc_active_func      100355bb f   LIBCMT:wsetloca.obj
 0001:000345c1       ____unguarded_readlc_active_add_func 100355c1 f   LIBCMT:wsetloca.obj
 0001:000345c7       ___copy_locale_name        100355c7 f   LIBCMT:wsetloca.obj
 0001:0003462b       ___create_locale           1003562b f   LIBCMT:wsetloca.obj
 0001:00034634       ___free_locale             10035634 f   LIBCMT:wsetloca.obj
 0001:00034639       ___get_current_locale      10035639 f   LIBCMT:wsetloca.obj
 0001:0003463e       ___lc_lctowcs              1003563e f   LIBCMT:wsetloca.obj
 0001:000346ac       ___lc_wcstolc              100356ac f   LIBCMT:wsetloca.obj
 0001:000347d6       __configthreadlocale       100357d6 f   LIBCMT:wsetloca.obj
 0001:0003485c       __create_locale            1003585c f   LIBCMT:wsetloca.obj
 0001:000348bc       __expandlocale             100358bc f   LIBCMT:wsetloca.obj
 0001:00034b9f       __free_locale              10035b9f f   LIBCMT:wsetloca.obj
 0001:00034c59       __get_current_locale       10035c59 f   LIBCMT:wsetloca.obj
 0001:00034d08       __wcreate_locale           10035d08 f   LIBCMT:wsetloca.obj
 0001:00034df8       __wcscats                  10035df8 f   LIBCMT:wsetloca.obj
 0001:00034e37       __wsetlocale               10035e37 f   LIBCMT:wsetloca.obj
 0001:0003576c       __CopyMan                  1003676c f i LIBCMT:intrncvt.obj
 0001:00035789       __FillZeroMan              10036789 f i LIBCMT:intrncvt.obj
 0001:00035798       __IncMan                   10036798 f i LIBCMT:intrncvt.obj
 0001:000357fa       __IsZeroMan                100367fa f i LIBCMT:intrncvt.obj
 0001:00035817       __RoundMan                 10036817 f i LIBCMT:intrncvt.obj
 0001:00035916       __ShrMan                   10036916 f i LIBCMT:intrncvt.obj
 0001:000359a2       __ZeroTail                 100369a2 f i LIBCMT:intrncvt.obj
 0001:000359ea       ___addl                    100369ea f i LIBCMT:intrncvt.obj
 0001:00035a0e       __ld12cvt                  10036a0e f i LIBCMT:intrncvt.obj
 0001:00035f77       __ld12tod                  10036f77 f   LIBCMT:intrncvt.obj
 0001:000364e7       __ld12tof                  100374e7 f   LIBCMT:intrncvt.obj
 0001:00036a57       __ld12told                 10037a57 f   LIBCMT:intrncvt.obj
 0001:00036b24       ___STRINGTOLD_L            10037b24 f   LIBCMT:strgtold.obj
 0001:00036b7d       ___ld12mul                 10037b7d f i LIBCMT:strgtold.obj
 0001:00036e46       ___multtenpow12            10037e46 f i LIBCMT:strgtold.obj
 0001:000371a4       ___shl_12                  100381a4 f i LIBCMT:strgtold.obj
 0001:000371d5       ___shr_12                  100381d5 f i LIBCMT:strgtold.obj
 0001:00037205       ___strgtold12_l            10038205 f   LIBCMT:strgtold.obj
 0001:00037981       _$I10_OUTPUT               10038981 f   LIBCMT:x10fout.obj
 0001:00038345       ___add_12                  10039345 f i LIBCMT:x10fout.obj
 0001:000384ef       ___control87_2             100394ef f   LIBCMT:ieee87.obj
 0001:00038b5f       __clearfp                  10039b5f f   LIBCMT:ieee87.obj
 0001:00038c3d       __control87                10039c3d f i LIBCMT:ieee87.obj
 0001:00038f3d       __controlfp                10039f3d f   LIBCMT:ieee87.obj
 0001:00039246       __fpreset                  1003a246 f   LIBCMT:ieee87.obj
 0001:00039313       __set_controlfp            1003a313 f   LIBCMT:ieee87.obj
 0001:00039384       __statusfp                 1003a384 f   LIBCMT:ieee87.obj
 0001:0003941c       __statusfp2                1003a41c f   LIBCMT:ieee87.obj
 0001:00039480       __alloca_probe_16          1003a480 f   LIBCMT:alloca16.obj
 0001:00039496       __alloca_probe_8           1003a496     LIBCMT:alloca16.obj
 0001:0003953d       __wopen                    1003a53d f   LIBCMT:wopen.obj
 0001:000395ea       __wsopen                   1003a5ea f   LIBCMT:wopen.obj
 0001:0003961b       __wsopen_helper            1003a61b f   LIBCMT:wopen.obj
 0001:000396e2       __wsopen_nolock            1003a6e2 f   LIBCMT:wopen.obj
 0001:00039e5b       __wsopen_s                 1003ae5b f   LIBCMT:wopen.obj
 0001:00039e80       _strncmp                   1003ae80 f   LIBCMT:strncmp.obj
 0001:00039ef8       __strnicmp                 1003aef8 f   LIBCMT:strnicmp.obj
 0001:00039f63       __strnicmp_l               1003af63 f   LIBCMT:strnicmp.obj
 0001:0003a012       ___termconout              1003b012 f   LIBCMT:initcon.obj
 0001:0003a029       ___initconout              1003b029 f   LIBCMT:initcon.obj
 0001:0003a048       __fputwc_nolock            1003b048 f   LIBCMT:fputwc.obj
 0001:0003a1cd       _fputwc                    1003b1cd f   LIBCMT:fputwc.obj
 0001:0003a24e       _putwc                     1003b24e f   LIBCMT:fputwc.obj
 0001:0003a433       __wcstol_l                 1003b433 f   LIBCMT:wcstol.obj
 0001:0003a44b       __wcstoul_l                1003b44b f   LIBCMT:wcstol.obj
 0001:0003a463       _wcstol                    1003b463 f   LIBCMT:wcstol.obj
 0001:0003a47b       _wcstoul                   1003b47b f   LIBCMT:wcstol.obj
 0001:0003a493       ___init_collate            1003b493 f   LIBCMT:initcoll.obj
 0001:0003a5b3       _memcmp                    1003b5b3 f   LIBCMT:memcmp.obj
 0001:0003d4c7       _wcscmp                    1003e4c7 f   LIBCMT:wcscmp.obj
 0001:0003d505       _wcscspn                   1003e505 f   LIBCMT:wcscspn.obj
 0001:0003d554       _wcsnlen                   1003e554 f   LIBCMT:wcslen_s.obj
 0001:0003d573       _wcsncmp                   1003e573 f   LIBCMT:wcsncmp.obj
 0001:0003d5a9       _wcspbrk                   1003e5a9 f   LIBCMT:wcspbrk.obj
 0001:0003dba5       ___get_qualified_locale    1003eba5 f   LIBCMT:getqloc.obj
 0001:0003dd67       ___mtold12                 1003ed67 f   LIBCMT:mantold.obj
 0001:0003df49       __chsize                   1003ef49 f   LIBCMT:chsize.obj
 0001:0003df63       __chsize_nolock            1003ef63 f   LIBCMT:chsize.obj
 0001:0003e117       __chsize_s                 1003f117 f   LIBCMT:chsize.obj
 0001:0003e20b       __get_fmode                1003f20b f   LIBCMT:setmode.obj
 0001:0003e235       __set_fmode                1003f235 f   LIBCMT:setmode.obj
 0001:0003e275       __setmode                  1003f275 f   LIBCMT:setmode.obj
 0001:0003e383       __setmode_nolock           1003f383 f   LIBCMT:setmode.obj
 0001:0003e450       ___ascii_strnicmp          1003f450 f   LIBCMT:_strnicm.obj
 0001:0003e4b1       __flswbuf                  1003f4b1 f   LIBCMT:_flswbuf.obj
 0001:0003e620       __wchartodigit             1003f620 f   LIBCMT:wchtodig.obj
 0001:0003e7bf       __wtoi                     1003f7bf f   LIBCMT:wtox.obj
 0001:0003e7c8       __wtoi64                   1003f7c8 f   LIBCMT:wtox.obj
 0001:0003e7dc       __wtoi64_l                 1003f7dc f   LIBCMT:wtox.obj
 0001:0003e7f3       __wtoi_l                   1003f7f3 f   LIBCMT:wtox.obj
 0001:0003e7fc       __wtol                     1003f7fc f   LIBCMT:wtox.obj
 0001:0003e810       __wtol_l                   1003f810 f   LIBCMT:wtox.obj
 0001:0003e827       _wcschr                    1003f827 f   LIBCMT:wcschr.obj
 0001:0003e8d5       __wcsicmp                  1003f8d5 f   LIBCMT:wcsicmp.obj
 0001:0003e968       __wcsicmp_l                1003f968 f   LIBCMT:wcsicmp.obj
 0001:0003ea41       __wcsnicmp                 1003fa41 f   LIBCMT:wcsnicmp.obj
 0001:0003eaf5       __wcsnicmp_l               1003faf5 f   LIBCMT:wcsnicmp.obj
 0001:0003eeba       __wcstoi64                 1003feba f   LIBCMT:wcstoq.obj
 0001:0003eee4       __wcstoi64_l               1003fee4 f   LIBCMT:wcstoq.obj
 0001:0003eeff       __wcstoui64                1003feff f   LIBCMT:wcstoq.obj
 0001:0003ef29       __wcstoui64_l              1003ff29 f   LIBCMT:wcstoq.obj
 0001:0003ef44       __towlower_l               1003ff44 f   LIBCMT:towlower.obj
 0001:0003eff6       _towlower                  1003fff6 f   LIBCMT:towlower.obj
 0001:0003f010       __allmul                   10040010 f   LIBCMT:llmul.obj
 0001:0003f044       ___crtLCMapStringW         10040044 f   LIBCMT:w_map.obj
 0001:0003f074       _GetModuleHandleA@4        10040074 f   kernel32:KERNEL32.dll
 0001:0003f07a       _GetProcAddress@8          1004007a f   kernel32:KERNEL32.dll
 0001:0003f080       _HeapAlloc@12              10040080 f   kernel32:KERNEL32.dll
 0001:0003f086       _IsDebuggerPresent@0       10040086 f   kernel32:KERNEL32.dll
 0001:0003f08c       _IsProcessorFeaturePresent@4 1004008c f   kernel32:KERNEL32.dll
 0001:0003f092       _EncodePointer@4           10040092 f   kernel32:KERNEL32.dll
 0001:0003f098       _DecodePointer@4           10040098 f   kernel32:KERNEL32.dll
 0001:0003f09e       _GetLastError@0            1004009e f   kernel32:KERNEL32.dll
 0001:0003f0a4       _InterlockedDecrement@4    100400a4 f   kernel32:KERNEL32.dll
 0001:0003f0aa       _ExitProcess@4             100400aa f   kernel32:KERNEL32.dll
 0001:0003f0b0       _GetModuleHandleExW@12     100400b0 f   kernel32:KERNEL32.dll
 0001:0003f0b6       _AreFileApisANSI@0         100400b6 f   kernel32:KERNEL32.dll
 0001:0003f0bc       _MultiByteToWideChar@24    100400bc f   kernel32:KERNEL32.dll
 0001:0003f0c2       _HeapFree@12               100400c2 f   kernel32:KERNEL32.dll
 0001:0003f0c8       _HeapReAlloc@16            100400c8 f   kernel32:KERNEL32.dll
 0001:0003f0ce       _EnterCriticalSection@4    100400ce f   kernel32:KERNEL32.dll
 0001:0003f0d4       _LeaveCriticalSection@4    100400d4 f   kernel32:KERNEL32.dll
 0001:0003f0da       _GetStdHandle@4            100400da f   kernel32:KERNEL32.dll
 0001:0003f0e0       _GetFileType@4             100400e0 f   kernel32:KERNEL32.dll
 0001:0003f0e6       _GetModuleFileNameW@12     100400e6 f   kernel32:KERNEL32.dll
 0001:0003f0ec       _WriteConsoleW@20          100400ec f   kernel32:KERNEL32.dll
 0001:0003f0f2       _GetCommandLineA@0         100400f2 f   kernel32:KERNEL32.dll
 0001:0003f0f8       _GetCurrentThreadId@0      100400f8 f   kernel32:KERNEL32.dll
 0001:0003f0fe       _WriteFile@20              100400fe f   kernel32:KERNEL32.dll
 0001:0003f104       _GetProcessHeap@0          10040104 f   kernel32:KERNEL32.dll
 0001:0003f10a       _UnhandledExceptionFilter@4 1004010a f   kernel32:KERNEL32.dll
 0001:0003f110       _SetUnhandledExceptionFilter@4 10040110 f   kernel32:KERNEL32.dll
 0001:0003f116       _FlsAlloc@4                10040116 f   kernel32:KERNEL32.dll
 0001:0003f11c       _FlsGetValue@4             1004011c f   kernel32:KERNEL32.dll
 0001:0003f122       _FlsSetValue@8             10040122 f   kernel32:KERNEL32.dll
 0001:0003f128       _FlsFree@4                 10040128 f   kernel32:KERNEL32.dll
 0001:0003f12e       _GetCurrentProcess@0       1004012e f   kernel32:KERNEL32.dll
 0001:0003f134       _TerminateProcess@8        10040134 f   kernel32:KERNEL32.dll
 0001:0003f13a       _GetStartupInfoW@4         1004013a f   kernel32:KERNEL32.dll
 0001:0003f140       _GetModuleHandleW@4        10040140 f   kernel32:KERNEL32.dll
 0001:0003f146       _RaiseException@16         10040146 f   kernel32:KERNEL32.dll
 0001:0003f14c       _InitializeCriticalSectionAndSpinCount@8 1004014c f   kernel32:KERNEL32.dll
 0001:0003f152       _DeleteCriticalSection@4   10040152 f   kernel32:KERNEL32.dll
 0001:0003f158       _FatalAppExitA@8           10040158 f   kernel32:KERNEL32.dll
 0001:0003f15e       _Sleep@4                   1004015e f   kernel32:KERNEL32.dll
 0001:0003f164       _InterlockedExchange@8     10040164 f   kernel32:KERNEL32.dll
 0001:0003f16a       _FreeLibrary@4             1004016a f   kernel32:KERNEL32.dll
 0001:0003f170       _LoadLibraryExW@12         10040170 f   kernel32:KERNEL32.dll
 0001:0003f176       _SetConsoleCtrlHandler@8   10040176 f   kernel32:KERNEL32.dll
 0001:0003f17c       _InterlockedIncrement@4    1004017c f   kernel32:KERNEL32.dll
 0001:0003f182       _IsValidCodePage@4         10040182 f   kernel32:KERNEL32.dll
 0001:0003f188       _GetACP@0                  10040188 f   kernel32:KERNEL32.dll
 0001:0003f18e       _GetOEMCP@0                1004018e f   kernel32:KERNEL32.dll
 0001:0003f194       _GetCPInfo@8               10040194 f   kernel32:KERNEL32.dll
 0001:0003f19a       _CloseHandle@4             1004019a f   kernel32:KERNEL32.dll
 0001:0003f1a0       _RtlUnwind@16              100401a0 f   kernel32:KERNEL32.dll
 0001:0003f1a6       _InitOnceExecuteOnce@16    100401a6 f   kernel32:KERNEL32.dll
 0001:0003f1ac       _ReadFile@20               100401ac f   kernel32:KERNEL32.dll
 0001:0003f1b2       _GetConsoleMode@8          100401b2 f   kernel32:KERNEL32.dll
 0001:0003f1b8       _ReadConsoleW@20           100401b8 f   kernel32:KERNEL32.dll
 0001:0003f1be       _WideCharToMultiByte@32    100401be f   kernel32:KERNEL32.dll
 0001:0003f1c4       _GetConsoleCP@0            100401c4 f   kernel32:KERNEL32.dll
 0001:0003f1ca       _DeleteFileW@4             100401ca f   kernel32:KERNEL32.dll
 0001:0003f1d0       _SetFilePointer@16         100401d0 f   kernel32:KERNEL32.dll
 0001:0003f1d6       _OutputDebugStringW@4      100401d6 f   kernel32:KERNEL32.dll
 0001:0003f1dc       _LoadLibraryW@4            100401dc f   kernel32:KERNEL32.dll
 0001:0003f1e2       _SetLastError@4            100401e2 f   kernel32:KERNEL32.dll
 0001:0003f1e8       _GetCurrentThread@0        100401e8 f   kernel32:KERNEL32.dll
 0001:0003f1ee       _GetModuleFileNameA@12     100401ee f   kernel32:KERNEL32.dll
 0001:0003f1f4       _QueryPerformanceCounter@4 100401f4 f   kernel32:KERNEL32.dll
 0001:0003f1fa       _GetSystemTimeAsFileTime@4 100401fa f   kernel32:KERNEL32.dll
 0001:0003f200       _GetTickCount64@0          10040200 f   kernel32:KERNEL32.dll
 0001:0003f206       _GetEnvironmentStringsW@0  10040206 f   kernel32:KERNEL32.dll
 0001:0003f20c       _FreeEnvironmentStringsW@4 1004020c f   kernel32:KERNEL32.dll
 0001:0003f212       _HeapSize@12               10040212 f   kernel32:KERNEL32.dll
 0001:0003f218       _GetTimeFormatEx@24        10040218 f   kernel32:KERNEL32.dll
 0001:0003f21e       _GetDateFormatEx@28        1004021e f   kernel32:KERNEL32.dll
 0001:0003f224       _CompareStringEx@36        10040224 f   kernel32:KERNEL32.dll
 0001:0003f22a       _GetLocaleInfoEx@16        1004022a f   kernel32:KERNEL32.dll
 0001:0003f230       _GetUserDefaultLocaleName@8 10040230 f   kernel32:KERNEL32.dll
 0001:0003f236       _LCMapStringEx@36          10040236 f   kernel32:KERNEL32.dll
 0001:0003f23c       _IsValidLocaleName@4       1004023c f   kernel32:KERNEL32.dll
 0001:0003f242       _EnumSystemLocalesEx@16    10040242 f   kernel32:KERNEL32.dll
 0001:0003f248       _GetStringTypeW@16         10040248 f   kernel32:KERNEL32.dll
 0001:0003f24e       _FlushFileBuffers@4        1004024e f   kernel32:KERNEL32.dll
 0001:0003f254       _SetStdHandle@8            10040254 f   kernel32:KERNEL32.dll
 0001:0003f25a       _SetFilePointerEx@20       1004025a f   kernel32:KERNEL32.dll
 0001:0003f260       _CreateFileW@28            10040260 f   kernel32:KERNEL32.dll
 0001:0003f266       _SetEndOfFile@4            10040266 f   kernel32:KERNEL32.dll
 0002:00000000       ___xc_a                    1004b000     LIBCMT:crt0init.obj
 0002:00000104       ___xc_z                    1004b104     LIBCMT:crt0init.obj
 0002:00000208       ___xi_a                    1004b208     LIBCMT:crt0init.obj
 0002:00000424       ___xi_z                    1004b424     LIBCMT:crt0init.obj
 0002:00000528       ___xp_a                    1004b528     LIBCMT:crt0init.obj
 0002:0000083c       ___xp_z                    1004b83c     LIBCMT:crt0init.obj
 0002:00000940       ___xt_a                    1004b940     LIBCMT:crt0init.obj
 0002:00000a44       ___xt_z                    1004ba44     LIBCMT:crt0init.obj
 0002:00000b88       _feedback_plant_with_best_PID_M 1004bb88     feedback_plant_with_best_PID.obj
 0002:00000c30       __real@0000000000000000    1004bc30     feedback_plant_with_best_PID.obj
 0002:00000c40       __real@3f847ae147ae147b    1004bc40     feedback_plant_with_best_PID.obj
 0002:00000c50       __real@3fd5555555555555    1004bc50     feedback_plant_with_best_PID.obj
 0002:00000c60       __real@3fe0000000000000    1004bc60     feedback_plant_with_best_PID.obj
 0002:00000c70       __real@3fe1015ce0970f6e    1004bc70     feedback_plant_with_best_PID.obj
 0002:00000c80       __real@3fec16bd788e34a4    1004bc80     feedback_plant_with_best_PID.obj
 0002:00000c90       __real@3ff0000000000000    1004bc90     feedback_plant_with_best_PID.obj
 0002:00000ca0       __real@3ff2836ad7a72341    1004bca0     feedback_plant_with_best_PID.obj
 0002:00000cb0       __real@3ff325ac62ef83bc    1004bcb0     feedback_plant_with_best_PID.obj
 0002:00000cc0       __real@3ff455d36316eea6    1004bcc0     feedback_plant_with_best_PID.obj
 0002:00000cd0       __real@3ff48f53fb3f8fa3    1004bcd0     feedback_plant_with_best_PID.obj
 0002:00000ce0       __real@3ff5110e1a6aa77d    1004bce0     feedback_plant_with_best_PID.obj
 0002:00000cf0       __real@3ffcb8829467459c    1004bcf0     feedback_plant_with_best_PID.obj
 0002:00000d00       __real@4000000000000000    1004bd00     feedback_plant_with_best_PID.obj
 0002:00000d10       __real@4005110e1a6aa77a    1004bd10     feedback_plant_with_best_PID.obj
 0002:00000d20       __real@4005765aeed3f7b2    1004bd20     feedback_plant_with_best_PID.obj
 0002:00000d30       __real@4008000000000000    1004bd30     feedback_plant_with_best_PID.obj
 0002:00000d40       __real@400cb8829467459c    1004bd40     feedback_plant_with_best_PID.obj
 0002:00000d50       __real@4018881ae4a4c0e8    1004bd50     feedback_plant_with_best_PID.obj
 0002:00000d60       __real@4024000000000000    1004bd60     feedback_plant_with_best_PID.obj
 0002:00000d70       __real@4039000000000000    1004bd70     feedback_plant_with_best_PID.obj
 0002:00000d80       __real@4049000000000000    1004bd80     feedback_plant_with_best_PID.obj
 0002:00000d90       __real@404e000000000000    1004bd90     feedback_plant_with_best_PID.obj
 0002:00000da0       __real@405791a2e044dcc7    1004bda0     feedback_plant_with_best_PID.obj
 0002:00000db0       __real@4059000000000000    1004bdb0     feedback_plant_with_best_PID.obj
 0002:00000dc0       __real@4060000000000000    1004bdc0     feedback_plant_with_best_PID.obj
 0002:00000dd0       __real@4064000000000000    1004bdd0     feedback_plant_with_best_PID.obj
 0002:00000de0       __real@406f400000000000    1004bde0     feedback_plant_with_best_PID.obj
 0002:00000df0       __real@4070000000000000    1004bdf0     feedback_plant_with_best_PID.obj
 0002:00000e00       __real@407d3629a6946dcf    1004be00     feedback_plant_with_best_PID.obj
 0002:00000e10       __real@408f400000000000    1004be10     feedback_plant_with_best_PID.obj
 0002:00000e20       __real@4090683333333333    1004be20     feedback_plant_with_best_PID.obj
 0002:00000e30       __real@4097700000000000    1004be30     feedback_plant_with_best_PID.obj
 0002:00000e40       __real@40ab580000000000    1004be40     feedback_plant_with_best_PID.obj
 0002:00000e50       __real@40b0680ccccccccd    1004be50     feedback_plant_with_best_PID.obj
 0002:00000e60       __real@40e86a0000000000    1004be60     feedback_plant_with_best_PID.obj
 0002:00000e70       __real@40f86a0000000000    1004be70     feedback_plant_with_best_PID.obj
 0002:00000e80       __real@41024f8000000000    1004be80     feedback_plant_with_best_PID.obj
 0002:00000e90       __real@41f0000000000000    1004be90     feedback_plant_with_best_PID.obj
 0002:00000ea0       __real@8000000000000000    1004bea0     feedback_plant_with_best_PID.obj
 0002:00000eb0       __real@bff0000000000000    1004beb0     feedback_plant_with_best_PID.obj
 0002:00000ec0       __real@c049866666666667    1004bec0     feedback_plant_with_best_PID.obj
 0002:00000ed0       __real@c060000000000000    1004bed0     feedback_plant_with_best_PID.obj
 0002:00000ee0       __real@c06921999999999a    1004bee0     feedback_plant_with_best_PID.obj
 0002:00000ef0       __xmm@41f00000000000000000000000000000 1004bef0     feedback_plant_with_best_PID.obj
 0002:00000f10       __xmm@80000000000000008000000000000000 1004bf10     feedback_plant_with_best_PID.obj
 0002:00001b70       _feedback_plant_with_best_PID_ConstP 1004cb70     feedback_plant_with_best_PID_data.obj
 0002:0000218c       __real@00000000            1004d18c     rtGetNaN.obj
 0002:000029f0       __real@41dfffffffc00000    1004d9f0     rt_logging.obj
 0002:00002a00       __real@41efffffffe00000    1004da00     rt_logging.obj
 0002:00002a10       __real@bfbf9add3afd2773    1004da10     rt_logging.obj
 0002:00002a20       __real@c000000000000000    1004da20     rt_logging.obj
 0002:00002a48       __real@3cb0000000000000    1004da48     rt_matrx.obj
 0002:00002a54       _serialfifoground          1004da54     xpc_datatype_ground.obj
 0002:00002a60       _bcmsg1553ground           1004da60     xpc_datatype_ground.obj
 0002:00002a70       _bcstatground              1004da70     xpc_datatype_ground.obj
 0002:00002a88       _bmmsg1553ground           1004da88     xpc_datatype_ground.obj
 0002:00002aa8       _ptsetfilename             1004daa8     xpctarget.obj
 0002:00002aac       _xmlfile                   1004daac     xpctarget.obj
 0002:00002ab8       __real@3fb999999999999a    1004dab8     xpctarget.obj
 0002:00002ac8       _feedback_plant_with_best_PID_BIOMAP 1004dac8     appmappingData.obj
 0002:00002ed0       _feedback_plant_with_best_PID_LBLMAP 1004ded0     appmappingData.obj
 0002:000032d8       _feedback_plant_with_best_PID_SIDMAP 1004e2d8     appmappingData.obj
 0002:000036e0       _feedback_plant_with_best_PID_SBIO 1004e6e0     appmappingData.obj
 0002:00003838       _feedback_plant_with_best_PID_SLBL 1004e838     appmappingData.obj
 0002:00003990       _feedback_plant_with_best_PID_PTIDSMAP 1004e990     appmappingData.obj
 0002:00003998       _feedback_plant_with_best_PID_PTNAMESMAP 1004e998     appmappingData.obj
 0002:000039a0       _feedback_plant_with_best_PID_SPTMAP 1004e9a0     appmappingData.obj
 0002:000039a4       _feedback_plant_with_best_PID_dtmap 1004e9a4     appmappingData.obj
 0002:000039c8       _appInfo                   1004e9c8     appmappingData.obj
 0002:00003d28       __real@417312d000000000    1004ed28     adnipcim.obj
 0002:00003d34       __real@46fffe00            1004ed34     danipcim.obj
 0002:00003d40       __OP_FMODjmptab            1004ed40     LIBCMT:87fmod.obj
 0002:00003de0       __FPinit                   1004ede0     LIBCMT:fpinit.obj
 0002:00003de4       ??_C@_1BI@BGOHAHKC@?$AAm?$AAs?$AAc?$AAo?$AAr?$AAe?$AAe?$AA?4?$AAd?$AAl?$AAl?$AA?$AA@ 1004ede4     LIBCMT:crt0dat.obj
 0002:00003dfc       ??_C@_0P@MIGLKIOC@CorExitProcess?$AA@ 1004edfc     LIBCMT:crt0dat.obj
 0002:00003e0c       ??_C@_17LGKOMLJ@?$AA?4?$AA?4?$AA?4?$AA?$AA@ 1004ee0c     LIBCMT:wassert.obj
 0002:00003e14       ??_C@_13LBAGMAIH@?$AA?6?$AA?$AA@ 1004ee14     LIBCMT:wassert.obj
 0002:00003e18       ??_C@_15IABLJNFO@?$AA?6?$AA?6?$AA?$AA@ 1004ee18     LIBCMT:wassert.obj
 0002:00003e20       ??_C@_1CE@OJBNHDMO@?$AAA?$AAs?$AAs?$AAe?$AAr?$AAt?$AAi?$AAo?$AAn?$AA?5?$AAf?$AAa?$AAi?$AAl?$AAe?$AAd?$AA?$CB?$AA?$AA@ 1004ee20     LIBCMT:wassert.obj
 0002:00003e44       ??_C@_1BE@PHKBBGE@?$AAP?$AAr?$AAo?$AAg?$AAr?$AAa?$AAm?$AA?3?$AA?5?$AA?$AA@ 1004ee44     LIBCMT:wassert.obj
 0002:00003e58       ??_C@_1CO@EAEJAADC@?$AA?$DM?$AAp?$AAr?$AAo?$AAg?$AAr?$AAa?$AAm?$AA?5?$AAn?$AAa?$AAm?$AAe?$AA?5?$AAu?$AAn?$AAk?$AAn?$AAo?$AAw?$AAn?$AA?$DO?$AA?$AA@ 1004ee58     LIBCMT:wassert.obj
 0002:00003e88       ??_C@_1O@HEMHKNDC@?$AAF?$AAi?$AAl?$AAe?$AA?3?$AA?5?$AA?$AA@ 1004ee88     LIBCMT:wassert.obj
 0002:00003e98       ??_C@_1O@KCAFKHJE@?$AAL?$AAi?$AAn?$AAe?$AA?3?$AA?5?$AA?$AA@ 1004ee98     LIBCMT:wassert.obj
 0002:00003ea8       ??_C@_1BK@PEDCIPMA@?$AAE?$AAx?$AAp?$AAr?$AAe?$AAs?$AAs?$AAi?$AAo?$AAn?$AA?3?$AA?5?$AA?$AA@ 1004eea8     LIBCMT:wassert.obj
 0002:00003ec8       ??_C@_1OA@EGMLFBHJ@?$AAF?$AAo?$AAr?$AA?5?$AAi?$AAn?$AAf?$AAo?$AAr?$AAm?$AAa?$AAt?$AAi?$AAo?$AAn?$AA?5?$AAo?$AAn?$AA?5?$AAh?$AAo?$AAw?$AA?5?$AAy?$AAo?$AAu?$AAr?$AA?5?$AAp?$AAr?$AAo?$AAg@ 1004eec8     LIBCMT:wassert.obj
 0002:00003fa8       ??_C@_1HK@POCJMFGK@?$AA?$CI?$AAP?$AAr?$AAe?$AAs?$AAs?$AA?5?$AAR?$AAe?$AAt?$AAr?$AAy?$AA?5?$AAt?$AAo?$AA?5?$AAd?$AAe?$AAb?$AAu?$AAg?$AA?5?$AAt?$AAh?$AAe?$AA?5?$AAa?$AAp?$AAp?$AAl?$AAi?$AAc@ 1004efa8     LIBCMT:wassert.obj
 0002:00004028       ??_C@_1EK@MBDPDCGA@?$AAM?$AAi?$AAc?$AAr?$AAo?$AAs?$AAo?$AAf?$AAt?$AA?5?$AAV?$AAi?$AAs?$AAu?$AAa?$AAl?$AA?5?$AAC?$AA?$CL?$AA?$CL?$AA?5?$AAR?$AAu?$AAn?$AAt?$AAi?$AAm?$AAe?$AA?5?$AAL?$AAi?$AAb@ 1004f028     LIBCMT:wassert.obj
 0002:00004074       __pRawDllMain              1004f074     LIBCMT:dllcrt0.obj
 0002:00004074       __pDefaultRawDllMain       1004f074     LIBCMT:dllcrt0.obj
 0002:00004078       ?ProcessDetach@NativeDll@<CrtImplementationDetails>@@0IB 1004f078     LIBCMT:handler.obj
 0002:0000407c       ?ProcessAttach@NativeDll@<CrtImplementationDetails>@@0IB 1004f07c     LIBCMT:handler.obj
 0002:00004080       ?ThreadAttach@NativeDll@<CrtImplementationDetails>@@0IB 1004f080     LIBCMT:handler.obj
 0002:00004084       ?ThreadDetach@NativeDll@<CrtImplementationDetails>@@0IB 1004f084     LIBCMT:handler.obj
 0002:00004088       ?ProcessVerifier@NativeDll@<CrtImplementationDetails>@@0IB 1004f088     LIBCMT:handler.obj
 0002:00004148       ??_C@_1FK@PGACCAFB@?$AAR?$AA6?$AA0?$AA0?$AA2?$AA?$AN?$AA?6?$AA?9?$AA?5?$AAf?$AAl?$AAo?$AAa?$AAt?$AAi?$AAn?$AAg?$AA?5?$AAp?$AAo?$AAi?$AAn?$AAt?$AA?5?$AAs?$AAu?$AAp?$AAp?$AAo?$AAr?$AAt?$AA?5@ 1004f148     LIBCMT:crt0msg.obj
 0002:000041a8       ??_C@_1FE@LLNEDJMD@?$AAR?$AA6?$AA0?$AA0?$AA8?$AA?$AN?$AA?6?$AA?9?$AA?5?$AAn?$AAo?$AAt?$AA?5?$AAe?$AAn?$AAo?$AAu?$AAg?$AAh?$AA?5?$AAs?$AAp?$AAa?$AAc?$AAe?$AA?5?$AAf?$AAo?$AAr?$AA?5?$AAa?$AAr@ 1004f1a8     LIBCMT:crt0msg.obj
 0002:00004200       ??_C@_1FI@HONFMGBI@?$AAR?$AA6?$AA0?$AA0?$AA9?$AA?$AN?$AA?6?$AA?9?$AA?5?$AAn?$AAo?$AAt?$AA?5?$AAe?$AAn?$AAo?$AAu?$AAg?$AAh?$AA?5?$AAs?$AAp?$AAa?$AAc?$AAe?$AA?5?$AAf?$AAo?$AAr?$AA?5?$AAe?$AAn@ 1004f200     LIBCMT:crt0msg.obj
 0002:00004258       ??_C@_1EG@BEHAGFJD@?$AAR?$AA6?$AA0?$AA1?$AA0?$AA?$AN?$AA?6?$AA?9?$AA?5?$AAa?$AAb?$AAo?$AAr?$AAt?$AA?$CI?$AA?$CJ?$AA?5?$AAh?$AAa?$AAs?$AA?5?$AAb?$AAe?$AAe?$AAn?$AA?5?$AAc?$AAa?$AAl?$AAl?$AAe?$AAd@ 1004f258     LIBCMT:crt0msg.obj
 0002:000042a0       ??_C@_1FI@LOGNIKDM@?$AAR?$AA6?$AA0?$AA1?$AA6?$AA?$AN?$AA?6?$AA?9?$AA?5?$AAn?$AAo?$AAt?$AA?5?$AAe?$AAn?$AAo?$AAu?$AAg?$AAh?$AA?5?$AAs?$AAp?$AAa?$AAc?$AAe?$AA?5?$AAf?$AAo?$AAr?$AA?5?$AAt?$AAh@ 1004f2a0     LIBCMT:crt0msg.obj
 0002:000042f8       ??_C@_1FK@BEOGODMC@?$AAR?$AA6?$AA0?$AA1?$AA7?$AA?$AN?$AA?6?$AA?9?$AA?5?$AAu?$AAn?$AAe?$AAx?$AAp?$AAe?$AAc?$AAt?$AAe?$AAd?$AA?5?$AAm?$AAu?$AAl?$AAt?$AAi?$AAt?$AAh?$AAr?$AAe?$AAa?$AAd?$AA?5@ 1004f2f8     LIBCMT:crt0msg.obj
 0002:00004358       ??_C@_1EC@JIBHAOPH@?$AAR?$AA6?$AA0?$AA1?$AA8?$AA?$AN?$AA?6?$AA?9?$AA?5?$AAu?$AAn?$AAe?$AAx?$AAp?$AAe?$AAc?$AAt?$AAe?$AAd?$AA?5?$AAh?$AAe?$AAa?$AAp?$AA?5?$AAe?$AAr?$AAr?$AAo?$AAr?$AA?$AN?$AA?6@ 1004f358     LIBCMT:crt0msg.obj
 0002:000043a0       ??_C@_1FC@ECHBIFBC@?$AAR?$AA6?$AA0?$AA1?$AA9?$AA?$AN?$AA?6?$AA?9?$AA?5?$AAu?$AAn?$AAa?$AAb?$AAl?$AAe?$AA?5?$AAt?$AAo?$AA?5?$AAo?$AAp?$AAe?$AAn?$AA?5?$AAc?$AAo?$AAn?$AAs?$AAo?$AAl?$AAe?$AA?5@ 1004f3a0     LIBCMT:crt0msg.obj
 0002:000043f8       ??_C@_1GK@FHCKBEFA@?$AAR?$AA6?$AA0?$AA2?$AA4?$AA?$AN?$AA?6?$AA?9?$AA?5?$AAn?$AAo?$AAt?$AA?5?$AAe?$AAn?$AAo?$AAu?$AAg?$AAh?$AA?5?$AAs?$AAp?$AAa?$AAc?$AAe?$AA?5?$AAf?$AAo?$AAr?$AA?5?$AA_?$AAo@ 1004f3f8     LIBCMT:crt0msg.obj
 0002:00004468       ??_C@_1EM@MAADIHMB@?$AAR?$AA6?$AA0?$AA2?$AA5?$AA?$AN?$AA?6?$AA?9?$AA?5?$AAp?$AAu?$AAr?$AAe?$AA?5?$AAv?$AAi?$AAr?$AAt?$AAu?$AAa?$AAl?$AA?5?$AAf?$AAu?$AAn?$AAc?$AAt?$AAi?$AAo?$AAn?$AA?5?$AAc@ 1004f468     LIBCMT:crt0msg.obj
 0002:000044b8       ??_C@_1GK@MCAAGJMO@?$AAR?$AA6?$AA0?$AA2?$AA6?$AA?$AN?$AA?6?$AA?9?$AA?5?$AAn?$AAo?$AAt?$AA?5?$AAe?$AAn?$AAo?$AAu?$AAg?$AAh?$AA?5?$AAs?$AAp?$AAa?$AAc?$AAe?$AA?5?$AAf?$AAo?$AAr?$AA?5?$AAs?$AAt@ 1004f4b8     LIBCMT:crt0msg.obj
 0002:00004528       ??_C@_1GK@MFGOKLAG@?$AAR?$AA6?$AA0?$AA2?$AA7?$AA?$AN?$AA?6?$AA?9?$AA?5?$AAn?$AAo?$AAt?$AA?5?$AAe?$AAn?$AAo?$AAu?$AAg?$AAh?$AA?5?$AAs?$AAp?$AAa?$AAc?$AAe?$AA?5?$AAf?$AAo?$AAr?$AA?5?$AAl?$AAo@ 1004f528     LIBCMT:crt0msg.obj
 0002:00004598       ??_C@_1EK@HHFLMAOL@?$AAR?$AA6?$AA0?$AA2?$AA8?$AA?$AN?$AA?6?$AA?9?$AA?5?$AAu?$AAn?$AAa?$AAb?$AAl?$AAe?$AA?5?$AAt?$AAo?$AA?5?$AAi?$AAn?$AAi?$AAt?$AAi?$AAa?$AAl?$AAi?$AAz?$AAe?$AA?5?$AAh?$AAe@ 1004f598     LIBCMT:crt0msg.obj
 0002:000045e4       ??_C@_1DO@BMFCDCD@?$AAR?$AA6?$AA0?$AA3?$AA0?$AA?$AN?$AA?6?$AA?9?$AA?5?$AAC?$AAR?$AAT?$AA?5?$AAn?$AAo?$AAt?$AA?5?$AAi?$AAn?$AAi?$AAt?$AAi?$AAa?$AAl?$AAi?$AAz?$AAe?$AAd?$AA?$AN?$AA?6?$AA?$AA@ 1004f5e4     LIBCMT:crt0msg.obj
 0002:00004628       ??_C@_1MG@ENCOOIDF@?$AAR?$AA6?$AA0?$AA3?$AA1?$AA?$AN?$AA?6?$AA?9?$AA?5?$AAA?$AAt?$AAt?$AAe?$AAm?$AAp?$AAt?$AA?5?$AAt?$AAo?$AA?5?$AAi?$AAn?$AAi?$AAt?$AAi?$AAa?$AAl?$AAi?$AAz?$AAe?$AA?5?$AAt@ 1004f628     LIBCMT:crt0msg.obj
 0002:000046f0       ??_C@_1GG@GOPILAJP@?$AAR?$AA6?$AA0?$AA3?$AA2?$AA?$AN?$AA?6?$AA?9?$AA?5?$AAn?$AAo?$AAt?$AA?5?$AAe?$AAn?$AAo?$AAu?$AAg?$AAh?$AA?5?$AAs?$AAp?$AAa?$AAc?$AAe?$AA?5?$AAf?$AAo?$AAr?$AA?5?$AAl?$AAo@ 1004f6f0     LIBCMT:crt0msg.obj
 0002:00004758       ??_C@_1BOO@KGEDBGAJ@?$AAR?$AA6?$AA0?$AA3?$AA3?$AA?$AN?$AA?6?$AA?9?$AA?5?$AAA?$AAt?$AAt?$AAe?$AAm?$AAp?$AAt?$AA?5?$AAt?$AAo?$AA?5?$AAu?$AAs?$AAe?$AA?5?$AAM?$AAS?$AAI?$AAL?$AA?5?$AAc?$AAo?$AAd@ 1004f758     LIBCMT:crt0msg.obj
 0002:00004948       ??_C@_1GG@MKFPEKFO@?$AAR?$AA6?$AA0?$AA3?$AA4?$AA?$AN?$AA?6?$AA?9?$AA?5?$AAi?$AAn?$AAc?$AAo?$AAn?$AAs?$AAi?$AAs?$AAt?$AAe?$AAn?$AAt?$AA?5?$AAo?$AAn?$AAe?$AAx?$AAi?$AAt?$AA?5?$AAb?$AAe?$AAg@ 1004f948     LIBCMT:crt0msg.obj
 0002:000049b0       ??_C@_1BO@BFCDCGC@?$AAD?$AAO?$AAM?$AAA?$AAI?$AAN?$AA?5?$AAe?$AAr?$AAr?$AAo?$AAr?$AA?$AN?$AA?6?$AA?$AA@ 1004f9b0     LIBCMT:crt0msg.obj
 0002:000049d0       ??_C@_1BK@KMOMNAAI@?$AAS?$AAI?$AAN?$AAG?$AA?5?$AAe?$AAr?$AAr?$AAo?$AAr?$AA?$AN?$AA?6?$AA?$AA@ 1004f9d0     LIBCMT:crt0msg.obj
 0002:000049ec       ??_C@_1BM@JBBEPPHI@?$AAT?$AAL?$AAO?$AAS?$AAS?$AA?5?$AAe?$AAr?$AAr?$AAo?$AAr?$AA?$AN?$AA?6?$AA?$AA@ 1004f9ec     LIBCMT:crt0msg.obj
 0002:00004a08       ??_C@_15JNBOKNOG@?$AA?$AN?$AA?6?$AA?$AA@ 1004fa08     LIBCMT:crt0msg.obj
 0002:00004a10       ??_C@_1BO@BKOMIGKJ@?$AAr?$AAu?$AAn?$AAt?$AAi?$AAm?$AAe?$AA?5?$AAe?$AAr?$AAr?$AAo?$AAr?$AA?5?$AA?$AA@ 1004fa10     LIBCMT:crt0msg.obj
 0002:00004a30       ??_C@_1DE@JNGNBFGO@?$AAR?$AAu?$AAn?$AAt?$AAi?$AAm?$AAe?$AA?5?$AAE?$AAr?$AAr?$AAo?$AAr?$AA?$CB?$AA?6?$AA?6?$AAP?$AAr?$AAo?$AAg?$AAr?$AAa?$AAm?$AA?3?$AA?5?$AA?$AA@ 1004fa30     LIBCMT:crt0msg.obj
 0002:00004a64       ??_C@_0BE@JOGNEJCI@GetCurrentPackageId?$AA@ 1004fa64     LIBCMT:winapisupp.obj
 0002:00004a78       ??_C@_1BK@MGMFAEKH@?$AAk?$AAe?$AAr?$AAn?$AAe?$AAl?$AA3?$AA2?$AA?4?$AAd?$AAl?$AAl?$AA?$AA@ 1004fa78     LIBCMT:winapisupp.obj
 0002:00004a94       ??_C@_03KHJOGHMM@exp?$AA@  1004fa94     LIBCMT:fpexcept.obj
 0002:00004a98       ??_C@_03JGHBODFD@pow?$AA@  1004fa98     LIBCMT:fpexcept.obj
 0002:00004a9c       ??_C@_03MGHMBJCF@log?$AA@  1004fa9c     LIBCMT:fpexcept.obj
 0002:00004aa0       ??_C@_05HGHHAHAP@log10?$AA@ 1004faa0     LIBCMT:fpexcept.obj
 0002:00004aa8       ??_C@_04COOMCNPB@sinh?$AA@ 1004faa8     LIBCMT:fpexcept.obj
 0002:00004ab0       ??_C@_04HPJJNFIM@cosh?$AA@ 1004fab0     LIBCMT:fpexcept.obj
 0002:00004ab8       ??_C@_04FJHINJAO@tanh?$AA@ 1004fab8     LIBCMT:fpexcept.obj
 0002:00004ac0       ??_C@_04FIHNOPOL@asin?$AA@ 1004fac0     LIBCMT:fpexcept.obj
 0002:00004ac8       ??_C@_04PDIFKINK@acos?$AA@ 1004fac8     LIBCMT:fpexcept.obj
 0002:00004ad0       ??_C@_04MLLJIGOK@atan?$AA@ 1004fad0     LIBCMT:fpexcept.obj
 0002:00004ad8       ??_C@_05KNGEOGJB@atan2?$AA@ 1004fad8     LIBCMT:fpexcept.obj
 0002:00004ae0       ??_C@_04EIAKFFMI@sqrt?$AA@ 1004fae0     LIBCMT:fpexcept.obj
 0002:00004ae8       ??_C@_03BLEJJJBH@sin?$AA@  1004fae8     LIBCMT:fpexcept.obj
 0002:00004aec       ??_C@_03LALBNOCG@cos?$AA@  1004faec     LIBCMT:fpexcept.obj
 0002:00004af0       ??_C@_03IIINPABG@tan?$AA@  1004faf0     LIBCMT:fpexcept.obj
 0002:00004af4       ??_C@_04GFPJNGEK@ceil?$AA@ 1004faf4     LIBCMT:fpexcept.obj
 0002:00004afc       ??_C@_05PBJFFIGL@floor?$AA@ 1004fafc     LIBCMT:fpexcept.obj
 0002:00004b04       ??_C@_04ODHECPBC@fabs?$AA@ 1004fb04     LIBCMT:fpexcept.obj
 0002:00004b0c       ??_C@_04EHEDPDJG@modf?$AA@ 1004fb0c     LIBCMT:fpexcept.obj
 0002:00004b14       ??_C@_05CEJMAHNP@ldexp?$AA@ 1004fb14     LIBCMT:fpexcept.obj
 0002:00004b1c       ??_C@_05KBKMEMPO@_cabs?$AA@ 1004fb1c     LIBCMT:fpexcept.obj
 0002:00004b24       ??_C@_06MEIMCGCF@_hypot?$AA@ 1004fb24     LIBCMT:fpexcept.obj
 0002:00004b2c       ??_C@_04KEPJIHGP@fmod?$AA@ 1004fb2c     LIBCMT:fpexcept.obj
 0002:00004b34       ??_C@_05GKKHEGJL@frexp?$AA@ 1004fb34     LIBCMT:fpexcept.obj
 0002:00004b3c       ??_C@_03MJLDFKDL@_y0?$AA@  1004fb3c     LIBCMT:fpexcept.obj
 0002:00004b40       ??_C@_03NAKIGLHK@_y1?$AA@  1004fb40     LIBCMT:fpexcept.obj
 0002:00004b44       ??_C@_03ONILCKOB@_yn?$AA@  1004fb44     LIBCMT:fpexcept.obj
 0002:00004b48       ??_C@_05JGDBENOH@_logb?$AA@ 1004fb48     LIBCMT:fpexcept.obj
 0002:00004b50       ??_C@_0L@KDOEJCKC@_nextafter?$AA@ 1004fb50     LIBCMT:fpexcept.obj
 0002:00004b90       __indefinite               1004fb90     LIBCMT:87disp.obj
 0002:00004b9a       __piby2                    1004fb9a     LIBCMT:87disp.obj
 0002:00008500       __infinity                 10053500     LIBCMT:87tran.obj
 0002:0000850a       __minfinity                1005350a     LIBCMT:87tran.obj
 0002:00008514       __logemax                  10053514     LIBCMT:87tran.obj
 0002:0000853a       __OP_EXPjmptab             1005353a     LIBCMT:87tran.obj
 0002:00008568       __DEFAULT_CW_in_mem        10053568     LIBCMT:common.obj
 0002:0000856a       __pi_by_2_to_61            1005356a     LIBCMT:common.obj
 0002:00008610       ??_C@_05EOHGHCHD@exp10?$AA@ 10053610     LIBCMT:libm_error.obj
 0002:00008618       ??_C@_06OJHGLDPL@?$CInull?$CJ?$AA@ 10053618     LIBCMT:output.obj
 0002:00008620       ??_C@_1O@CEDCILHN@?$AA?$CI?$AAn?$AAu?$AAl?$AAl?$AA?$CJ?$AA?$AA@ 10053620     LIBCMT:output.obj
 0002:00008630       ___lookuptable             10053630     LIBCMT:output.obj
 0002:0000868c       ??_C@_05KLBDPFGC@e?$CL000?$AA@ 1005368c     LIBCMT:cvt.obj
 0002:00008694       ??_C@_1BK@GAEMIDIL@?$AAA?$AAD?$AAV?$AAA?$AAP?$AAI?$AA3?$AA2?$AA?4?$AAD?$AAL?$AAL?$AA?$AA@ 10053694     LIBCMT:rand_s.obj
 0002:000086b0       ??_C@_0BC@JEAENNKH@SystemFunction036?$AA@ 100536b0     LIBCMT:rand_s.obj
 0002:000086d4       ??_C@_1M@HPNHIDJI@?$AAj?$AAa?$AA?9?$AAJ?$AAP?$AA?$AA@ 100536d4     LIBCMT:mbctype.obj
 0002:000086e0       ??_C@_1M@BIBDDEMK@?$AAz?$AAh?$AA?9?$AAC?$AAN?$AA?$AA@ 100536e0     LIBCMT:mbctype.obj
 0002:000086ec       ??_C@_1M@JLOOOEGK@?$AAk?$AAo?$AA?9?$AAK?$AAR?$AA?$AA@ 100536ec     LIBCMT:mbctype.obj
 0002:000086f8       ??_C@_1M@CLNBBOPM@?$AAz?$AAh?$AA?9?$AAT?$AAW?$AA?$AA@ 100536f8     LIBCMT:mbctype.obj
 0002:00008724       ??_C@_1BG@GOEBHBDC@?$AAU?$AAS?$AAE?$AAR?$AA3?$AA2?$AA?4?$AAD?$AAL?$AAL?$AA?$AA@ 10053724     LIBCMT:crtmboxw.obj
 0002:0000873c       ??_C@_0M@DLDCCGNP@MessageBoxW?$AA@ 1005373c     LIBCMT:crtmboxw.obj
 0002:00008748       ??_C@_0BA@HNOPNCHB@GetActiveWindow?$AA@ 10053748     LIBCMT:crtmboxw.obj
 0002:00008758       ??_C@_0BD@HHGDFDBJ@GetLastActivePopup?$AA@ 10053758     LIBCMT:crtmboxw.obj
 0002:0000876c       ??_C@_0BK@DEKFELLI@GetUserObjectInformationW?$AA@ 1005376c     LIBCMT:crtmboxw.obj
 0002:00008788       ??_C@_0BI@DFKBFLJE@GetProcessWindowStation?$AA@ 10053788     LIBCMT:crtmboxw.obj
 0002:000087a0       __XcptActTab               100537a0     LIBCMT:winxfltr.obj
 0002:00008830       __XcptActTabCount          10053830     LIBCMT:winxfltr.obj
 0002:00008834       __XcptActTabSize           10053834     LIBCMT:winxfltr.obj
 0002:00008838       __First_FPE_Indx           10053838     LIBCMT:winxfltr.obj
 0002:0000883c       __Num_FPE                  1005383c     LIBCMT:winxfltr.obj
 0002:00008840       ___lookuptable_s           10053840     LIBCMT:outputs.obj
 0002:0000889c       ??_C@_03KOEHGMDN@Sun?$AA@  1005389c     LIBCMT:nlsdata.obj
 0002:000088a0       ??_C@_03PDAGKDH@Mon?$AA@   100538a0     LIBCMT:nlsdata.obj
 0002:000088a4       ??_C@_03NAGEINEP@Tue?$AA@  100538a4     LIBCMT:nlsdata.obj
 0002:000088a8       ??_C@_03MHOMLAJA@Wed?$AA@  100538a8     LIBCMT:nlsdata.obj
 0002:000088ac       ??_C@_03IOFIKPDN@Thu?$AA@  100538ac     LIBCMT:nlsdata.obj
 0002:000088b0       ??_C@_03IDIOELNC@Fri?$AA@  100538b0     LIBCMT:nlsdata.obj
 0002:000088b4       ??_C@_03FEFJNEK@Sat?$AA@   100538b4     LIBCMT:nlsdata.obj
 0002:000088b8       ??_C@_06OOPIFAJ@Sunday?$AA@ 100538b8     LIBCMT:nlsdata.obj
 0002:000088c0       ??_C@_06JLEDEDGH@Monday?$AA@ 100538c0     LIBCMT:nlsdata.obj
 0002:000088c8       ??_C@_07BAAGCFCM@Tuesday?$AA@ 100538c8     LIBCMT:nlsdata.obj
 0002:000088d0       ??_C@_09DLIGFAKA@Wednesday?$AA@ 100538d0     LIBCMT:nlsdata.obj
 0002:000088dc       ??_C@_08HACCIKIA@Thursday?$AA@ 100538dc     LIBCMT:nlsdata.obj
 0002:000088e8       ??_C@_06JECMNKMI@Friday?$AA@ 100538e8     LIBCMT:nlsdata.obj
 0002:000088f0       ??_C@_08INBOOONO@Saturday?$AA@ 100538f0     LIBCMT:nlsdata.obj
 0002:000088fc       ??_C@_03JIHJHPIE@Jan?$AA@  100538fc     LIBCMT:nlsdata.obj
 0002:00008900       ??_C@_03HJBDCHOM@Feb?$AA@  10053900     LIBCMT:nlsdata.obj
 0002:00008904       ??_C@_03ODNJBKGA@Mar?$AA@  10053904     LIBCMT:nlsdata.obj
 0002:00008908       ??_C@_03LEOLGMJP@Apr?$AA@  10053908     LIBCMT:nlsdata.obj
 0002:0000890c       ??_C@_03CNMDKL@May?$AA@    1005390c     LIBCMT:nlsdata.obj
 0002:00008910       ??_C@_03IDFGHECI@Jun?$AA@  10053910     LIBCMT:nlsdata.obj
 0002:00008914       ??_C@_03LBGABGKK@Jul?$AA@  10053914     LIBCMT:nlsdata.obj
 0002:00008918       ??_C@_03IFJFEIGA@Aug?$AA@  10053918     LIBCMT:nlsdata.obj
 0002:0000891c       ??_C@_03GGCAPAJC@Sep?$AA@  1005391c     LIBCMT:nlsdata.obj
 0002:00008920       ??_C@_03BMAOKBAD@Oct?$AA@  10053920     LIBCMT:nlsdata.obj
 0002:00008924       ??_C@_03JPJOFNIA@Nov?$AA@  10053924     LIBCMT:nlsdata.obj
 0002:00008928       ??_C@_03MKABNOCG@Dec?$AA@  10053928     LIBCMT:nlsdata.obj
 0002:0000892c       ??_C@_07CGJPFGJA@January?$AA@ 1005392c     LIBCMT:nlsdata.obj
 0002:00008934       ??_C@_08GNJGEPFN@February?$AA@ 10053934     LIBCMT:nlsdata.obj
 0002:00008940       ??_C@_05HPCKOFNC@March?$AA@ 10053940     LIBCMT:nlsdata.obj
 0002:00008948       ??_C@_05DMJDNLEJ@April?$AA@ 10053948     LIBCMT:nlsdata.obj
 0002:00008950       ??_C@_04CNLMGBGM@June?$AA@ 10053950     LIBCMT:nlsdata.obj
 0002:00008958       ??_C@_04MIEPOIFP@July?$AA@ 10053958     LIBCMT:nlsdata.obj
 0002:00008960       ??_C@_06LBBHFDDG@August?$AA@ 10053960     LIBCMT:nlsdata.obj
 0002:00008968       ??_C@_09BHHEALKD@September?$AA@ 10053968     LIBCMT:nlsdata.obj
 0002:00008974       ??_C@_07JJNFCEND@October?$AA@ 10053974     LIBCMT:nlsdata.obj
 0002:0000897c       ??_C@_08HCHEGEOA@November?$AA@ 1005397c     LIBCMT:nlsdata.obj
 0002:00008988       ??_C@_08EDHMEBNP@December?$AA@ 10053988     LIBCMT:nlsdata.obj
 0002:00008994       ??_C@_02DEDBPAFC@AM?$AA@   10053994     LIBCMT:nlsdata.obj
 0002:00008998       ??_C@_02CJNFDJBF@PM?$AA@   10053998     LIBCMT:nlsdata.obj
 0002:0000899c       ??_C@_08BPBNCDIB@MM?1dd?1yy?$AA@ 1005399c     LIBCMT:nlsdata.obj
 0002:000089a8       ??_C@_0BE@CKGJFCPC@dddd?0?5MMMM?5dd?0?5yyyy?$AA@ 100539a8     LIBCMT:nlsdata.obj
 0002:000089bc       ??_C@_08JCCMCCIL@HH?3mm?3ss?$AA@ 100539bc     LIBCMT:nlsdata.obj
 0002:000089c8       ??_C@_17MBGCMIPB@?$AAS?$AAu?$AAn?$AA?$AA@ 100539c8     LIBCMT:nlsdata.obj
 0002:000089d0       ??_C@_17KBOMKBF@?$AAM?$AAo?$AAn?$AA?$AA@ 100539d0     LIBCMT:nlsdata.obj
 0002:000089d8       ??_C@_17BMKGEGOJ@?$AAT?$AAu?$AAe?$AA?$AA@ 100539d8     LIBCMT:nlsdata.obj
 0002:000089e0       ??_C@_17CJEDCEPE@?$AAW?$AAe?$AAd?$AA?$AA@ 100539e0     LIBCMT:nlsdata.obj
 0002:000089e8       ??_C@_17PDPHAADD@?$AAT?$AAh?$AAu?$AA?$AA@ 100539e8     LIBCMT:nlsdata.obj
 0002:000089f0       ??_C@_17HFOLPPLP@?$AAF?$AAr?$AAi?$AA?$AA@ 100539f0     LIBCMT:nlsdata.obj
 0002:000089f8       ??_C@_17GGIBDPIH@?$AAS?$AAa?$AAt?$AA?$AA@ 100539f8     LIBCMT:nlsdata.obj
 0002:00008a00       ??_C@_1O@IHNHDHPB@?$AAS?$AAu?$AAn?$AAd?$AAa?$AAy?$AA?$AA@ 10053a00     LIBCMT:nlsdata.obj
 0002:00008a10       ??_C@_1O@MMNBFLIA@?$AAM?$AAo?$AAn?$AAd?$AAa?$AAy?$AA?$AA@ 10053a10     LIBCMT:nlsdata.obj
 0002:00008a20       ??_C@_1BA@ENFBFFEK@?$AAT?$AAu?$AAe?$AAs?$AAd?$AAa?$AAy?$AA?$AA@ 10053a20     LIBCMT:nlsdata.obj
 0002:00008a30       ??_C@_1BE@EBOGMDOH@?$AAW?$AAe?$AAd?$AAn?$AAe?$AAs?$AAd?$AAa?$AAy?$AA?$AA@ 10053a30     LIBCMT:nlsdata.obj
 0002:00008a44       ??_C@_1BC@HHMNLIHE@?$AAT?$AAh?$AAu?$AAr?$AAs?$AAd?$AAa?$AAy?$AA?$AA@ 10053a44     LIBCMT:nlsdata.obj
 0002:00008a58       ??_C@_1O@PDICJHAG@?$AAF?$AAr?$AAi?$AAd?$AAa?$AAy?$AA?$AA@ 10053a58     LIBCMT:nlsdata.obj
 0002:00008a68       ??_C@_1BC@ENMNNPAJ@?$AAS?$AAa?$AAt?$AAu?$AAr?$AAd?$AAa?$AAy?$AA?$AA@ 10053a68     LIBCMT:nlsdata.obj
 0002:00008a7c       ??_C@_17DKNBKCHM@?$AAJ?$AAa?$AAn?$AA?$AA@ 10053a7c     LIBCMT:nlsdata.obj
 0002:00008a84       ??_C@_17LMDJEKJN@?$AAF?$AAe?$AAb?$AA?$AA@ 10053a84     LIBCMT:nlsdata.obj
 0002:00008a8c       ??_C@_17CKNLEDEC@?$AAM?$AAa?$AAr?$AA?$AA@ 10053a8c     LIBCMT:nlsdata.obj
 0002:00008a94       ??_C@_17LFPOIHDD@?$AAA?$AAp?$AAr?$AA?$AA@ 10053a94     LIBCMT:nlsdata.obj
 0002:00008a9c       ??_C@_17PNNKMEED@?$AAM?$AAa?$AAy?$AA?$AA@ 10053a9c     LIBCMT:nlsdata.obj
 0002:00008aa4       ??_C@_17KCJGOCPB@?$AAJ?$AAu?$AAn?$AA?$AA@ 10053aa4     LIBCMT:nlsdata.obj
 0002:00008aac       ??_C@_17IJPCKHK@?$AAJ?$AAu?$AAl?$AA?$AA@ 10053aac     LIBCMT:nlsdata.obj
 0002:00008ab4       ??_C@_17ICPELBCN@?$AAA?$AAu?$AAg?$AA?$AA@ 10053ab4     LIBCMT:nlsdata.obj
 0002:00008abc       ??_C@_17HCHCOKMG@?$AAS?$AAe?$AAp?$AA?$AA@ 10053abc     LIBCMT:nlsdata.obj
 0002:00008ac4       ??_C@_17FNLKOI@?$AAO?$AAc?$AAt?$AA?$AA@ 10053ac4     LIBCMT:nlsdata.obj
 0002:00008acc       ??_C@_17BBDMLCIG@?$AAN?$AAo?$AAv?$AA?$AA@ 10053acc     LIBCMT:nlsdata.obj
 0002:00008ad4       ??_C@_17EGKACKIF@?$AAD?$AAe?$AAc?$AA?$AA@ 10053ad4     LIBCMT:nlsdata.obj
 0002:00008adc       ??_C@_1BA@EFMEIEBA@?$AAJ?$AAa?$AAn?$AAu?$AAa?$AAr?$AAy?$AA?$AA@ 10053adc     LIBCMT:nlsdata.obj
 0002:00008aec       ??_C@_1BC@JGDDFFAM@?$AAF?$AAe?$AAb?$AAr?$AAu?$AAa?$AAr?$AAy?$AA?$AA@ 10053aec     LIBCMT:nlsdata.obj
 0002:00008b00       ??_C@_1M@IKEENEDF@?$AAM?$AAa?$AAr?$AAc?$AAh?$AA?$AA@ 10053b00     LIBCMT:nlsdata.obj
 0002:00008b0c       ??_C@_1M@GJNLMHFD@?$AAA?$AAp?$AAr?$AAi?$AAl?$AA?$AA@ 10053b0c     LIBCMT:nlsdata.obj
 0002:00008b18       ??_C@_19EPFLPGAP@?$AAJ?$AAu?$AAn?$AAe?$AA?$AA@ 10053b18     LIBCMT:nlsdata.obj
 0002:00008b24       ??_C@_19BIFMLPCD@?$AAJ?$AAu?$AAl?$AAy?$AA?$AA@ 10053b24     LIBCMT:nlsdata.obj
 0002:00008b30       ??_C@_1O@PAHLKOAC@?$AAA?$AAu?$AAg?$AAu?$AAs?$AAt?$AA?$AA@ 10053b30     LIBCMT:nlsdata.obj
 0002:00008b40       ??_C@_1BE@DKAAMBJL@?$AAS?$AAe?$AAp?$AAt?$AAe?$AAm?$AAb?$AAe?$AAr?$AA?$AA@ 10053b40     LIBCMT:nlsdata.obj
 0002:00008b54       ??_C@_1BA@EPANDLNG@?$AAO?$AAc?$AAt?$AAo?$AAb?$AAe?$AAr?$AA?$AA@ 10053b54     LIBCMT:nlsdata.obj
 0002:00008b64       ??_C@_1BC@BGLIFPF@?$AAN?$AAo?$AAv?$AAe?$AAm?$AAb?$AAe?$AAr?$AA?$AA@ 10053b64     LIBCMT:nlsdata.obj
 0002:00008b78       ??_C@_1BC@FEMKIFH@?$AAD?$AAe?$AAc?$AAe?$AAm?$AAb?$AAe?$AAr?$AA?$AA@ 10053b78     LIBCMT:nlsdata.obj
 0002:00008b8c       ??_C@_15ODEHAHHF@?$AAA?$AAM?$AA?$AA@ 10053b8c     LIBCMT:nlsdata.obj
 0002:00008b94       ??_C@_15CLMNNGEL@?$AAP?$AAM?$AA?$AA@ 10053b94     LIBCMT:nlsdata.obj
 0002:00008b9c       ??_C@_1BC@IEBCMHCM@?$AAM?$AAM?$AA?1?$AAd?$AAd?$AA?1?$AAy?$AAy?$AA?$AA@ 10053b9c     LIBCMT:nlsdata.obj
 0002:00008bb0       ??_C@_1CI@KNAKOEBC@?$AAd?$AAd?$AAd?$AAd?$AA?0?$AA?5?$AAM?$AAM?$AAM?$AAM?$AA?5?$AAd?$AAd?$AA?0?$AA?5?$AAy?$AAy?$AAy?$AAy?$AA?$AA@ 10053bb0     LIBCMT:nlsdata.obj
 0002:00008bd8       ??_C@_1BC@GDGBMEMK@?$AAH?$AAH?$AA?3?$AAm?$AAm?$AA?3?$AAs?$AAs?$AA?$AA@ 10053bd8     LIBCMT:nlsdata.obj
 0002:00008bec       ??_C@_1M@BMHNFIME@?$AAe?$AAn?$AA?9?$AAU?$AAS?$AA?$AA@ 10053bec     LIBCMT:nlsdata.obj
 0002:00008bf8       ___newctype                10053bf8     LIBCMT:ctype.obj
 0002:00008ef8       __wctype                   10053ef8     LIBCMT:ctype.obj
 0002:00009100       ___newclmap                10054100     LIBCMT:ctype.obj
 0002:00009280       ___newcumap                10054280     LIBCMT:ctype.obj
 0002:00009400       ___lc_category             10054400     LIBCMT:wsetloca.obj
 0002:00009448       ??_C@_1O@GIFLHMA@?$AAL?$AAC?$AA_?$AAA?$AAL?$AAL?$AA?$AA@ 10054448     LIBCMT:wsetloca.obj
 0002:00009458       ??_C@_1BG@PPOMIBNJ@?$AAL?$AAC?$AA_?$AAC?$AAO?$AAL?$AAL?$AAA?$AAT?$AAE?$AA?$AA@ 10054458     LIBCMT:wsetloca.obj
 0002:00009470       ??_C@_1BC@FFJGAPJM@?$AAL?$AAC?$AA_?$AAC?$AAT?$AAY?$AAP?$AAE?$AA?$AA@ 10054470     LIBCMT:wsetloca.obj
 0002:00009484       ??_C@_1BI@PCKFNJFB@?$AAL?$AAC?$AA_?$AAM?$AAO?$AAN?$AAE?$AAT?$AAA?$AAR?$AAY?$AA?$AA@ 10054484     LIBCMT:wsetloca.obj
 0002:0000949c       ??_C@_1BG@ENIEDKID@?$AAL?$AAC?$AA_?$AAN?$AAU?$AAM?$AAE?$AAR?$AAI?$AAC?$AA?$AA@ 1005449c     LIBCMT:wsetloca.obj
 0002:000094b4       ??_C@_1BA@HAAOMIIG@?$AAL?$AAC?$AA_?$AAT?$AAI?$AAM?$AAE?$AA?$AA@ 100544b4     LIBCMT:wsetloca.obj
 0002:00009548       ??_C@_15NBPDDFIP@?$AA?$DN?$AA?$DL?$AA?$AA@ 10054548     LIBCMT:wsetloca.obj
 0002:00009550       ??_C@_13PJJBFPED@?$AA?$DL?$AA?$AA@ 10054550     LIBCMT:wsetloca.obj
 0002:00009554       ??_C@_13NMPKAAJP@?$AA?$DN?$AA?$AA@ 10054554     LIBCMT:wsetloca.obj
 0002:00009558       ??_C@_13FHBKNHDA@?$AAC?$AA?$AA@ 10054558     LIBCMT:wsetloca.obj
 0002:0000955c       ??_C@_17MBJJLFDM@?$AA_?$AA?4?$AA?0?$AA?$AA@ 1005455c     LIBCMT:wsetloca.obj
 0002:00009564       ??_C@_13ENNFDPBH@?$AA_?$AA?$AA@ 10054564     LIBCMT:wsetloca.obj
 0002:00009568       ??_C@_13JOFGPIOO@?$AA?4?$AA?$AA@ 10054568     LIBCMT:wsetloca.obj
 0002:0000956c       ??_C@_06PGGFOGJG@1?$CDSNAN?$AA@ 1005456c     LIBCMT:x10fout.obj
 0002:00009574       ??_C@_05PHHOCPM@1?$CDIND?$AA@ 10054574     LIBCMT:x10fout.obj
 0002:0000957c       ??_C@_05DNEBIAHO@1?$CDINF?$AA@ 1005457c     LIBCMT:x10fout.obj
 0002:00009584       ??_C@_06IMKFLFPG@1?$CDQNAN?$AA@ 10054584     LIBCMT:x10fout.obj
 0002:0000958c       ??_C@_0M@HHGEPIBF@CreateFile2?$AA@ 1005458c     LIBCMT:wopen.obj
 0002:00009598       ??_C@_1BA@BALFACEM@?$AAC?$AAO?$AAN?$AAO?$AAU?$AAT?$AA$?$AA?$AA@ 10054598     LIBCMT:initcon.obj
 0002:000095a8       ___rg_language             100545a8     LIBCMT:getqloc.obj
 0002:000098b4       ??_C@_1BC@LLOKLNP@?$AAa?$AAm?$AAe?$AAr?$AAi?$AAc?$AAa?$AAn?$AA?$AA@ 100548b4     LIBCMT:getqloc.obj
 0002:000098c8       ??_C@_1CC@HEIGCDGG@?$AAa?$AAm?$AAe?$AAr?$AAi?$AAc?$AAa?$AAn?$AA?5?$AAe?$AAn?$AAg?$AAl?$AAi?$AAs?$AAh?$AA?$AA@ 100548c8     LIBCMT:getqloc.obj
 0002:000098ec       ??_C@_1CC@IHCNOMIN@?$AAa?$AAm?$AAe?$AAr?$AAi?$AAc?$AAa?$AAn?$AA?9?$AAe?$AAn?$AAg?$AAl?$AAi?$AAs?$AAh?$AA?$AA@ 100548ec     LIBCMT:getqloc.obj
 0002:00009910       ??_C@_1BG@GKAGPCGG@?$AAa?$AAu?$AAs?$AAt?$AAr?$AAa?$AAl?$AAi?$AAa?$AAn?$AA?$AA@ 10054910     LIBCMT:getqloc.obj
 0002:00009928       ??_C@_1BA@GMENCENF@?$AAb?$AAe?$AAl?$AAg?$AAi?$AAa?$AAn?$AA?$AA@ 10054928     LIBCMT:getqloc.obj
 0002:00009938       ??_C@_1BC@PJMIIAAN@?$AAc?$AAa?$AAn?$AAa?$AAd?$AAi?$AAa?$AAn?$AA?$AA@ 10054938     LIBCMT:getqloc.obj
 0002:0000994c       ??_C@_17NOIMNFBF@?$AAc?$AAh?$AAh?$AA?$AA@ 1005494c     LIBCMT:getqloc.obj
 0002:00009954       ??_C@_17GGDALCHA@?$AAc?$AAh?$AAi?$AA?$AA@ 10054954     LIBCMT:getqloc.obj
 0002:0000995c       ??_C@_1BA@NPNJKIBL@?$AAc?$AAh?$AAi?$AAn?$AAe?$AAs?$AAe?$AA?$AA@ 1005495c     LIBCMT:getqloc.obj
 0002:0000996c       ??_C@_1CC@DINBAMMJ@?$AAc?$AAh?$AAi?$AAn?$AAe?$AAs?$AAe?$AA?9?$AAh?$AAo?$AAn?$AAg?$AAk?$AAo?$AAn?$AAg?$AA?$AA@ 1005496c     LIBCMT:getqloc.obj
 0002:00009990       ??_C@_1CG@IOBJPACO@?$AAc?$AAh?$AAi?$AAn?$AAe?$AAs?$AAe?$AA?9?$AAs?$AAi?$AAm?$AAp?$AAl?$AAi?$AAf?$AAi?$AAe?$AAd?$AA?$AA@ 10054990     LIBCMT:getqloc.obj
 0002:000099b8       ??_C@_1CE@GAJNDCKG@?$AAc?$AAh?$AAi?$AAn?$AAe?$AAs?$AAe?$AA?9?$AAs?$AAi?$AAn?$AAg?$AAa?$AAp?$AAo?$AAr?$AAe?$AA?$AA@ 100549b8     LIBCMT:getqloc.obj
 0002:000099dc       ??_C@_1CI@PAJPIOOD@?$AAc?$AAh?$AAi?$AAn?$AAe?$AAs?$AAe?$AA?9?$AAt?$AAr?$AAa?$AAd?$AAi?$AAt?$AAi?$AAo?$AAn?$AAa?$AAl?$AA?$AA@ 100549dc     LIBCMT:getqloc.obj
 0002:00009a04       ??_C@_1BM@NILJBMMD@?$AAd?$AAu?$AAt?$AAc?$AAh?$AA?9?$AAb?$AAe?$AAl?$AAg?$AAi?$AAa?$AAn?$AA?$AA@ 10054a04     LIBCMT:getqloc.obj
 0002:00009a20       ??_C@_1CC@OOJPJNEJ@?$AAe?$AAn?$AAg?$AAl?$AAi?$AAs?$AAh?$AA?9?$AAa?$AAm?$AAe?$AAr?$AAi?$AAc?$AAa?$AAn?$AA?$AA@ 10054a20     LIBCMT:getqloc.obj
 0002:00009a44       ??_C@_1BI@IOLFEEM@?$AAe?$AAn?$AAg?$AAl?$AAi?$AAs?$AAh?$AA?9?$AAa?$AAu?$AAs?$AA?$AA@ 10054a44     LIBCMT:getqloc.obj
 0002:00009a5c       ??_C@_1BO@HFFNLENJ@?$AAe?$AAn?$AAg?$AAl?$AAi?$AAs?$AAh?$AA?9?$AAb?$AAe?$AAl?$AAi?$AAz?$AAe?$AA?$AA@ 10054a5c     LIBCMT:getqloc.obj
 0002:00009a7c       ??_C@_1BI@HAPKJMPO@?$AAe?$AAn?$AAg?$AAl?$AAi?$AAs?$AAh?$AA?9?$AAc?$AAa?$AAn?$AA?$AA@ 10054a7c     LIBCMT:getqloc.obj
 0002:00009a94       ??_C@_1CE@HLNDMIOJ@?$AAe?$AAn?$AAg?$AAl?$AAi?$AAs?$AAh?$AA?9?$AAc?$AAa?$AAr?$AAi?$AAb?$AAb?$AAe?$AAa?$AAn?$AA?$AA@ 10054a94     LIBCMT:getqloc.obj
 0002:00009ab8       ??_C@_1BI@LDHJHHAC@?$AAe?$AAn?$AAg?$AAl?$AAi?$AAs?$AAh?$AA?9?$AAi?$AAr?$AAe?$AA?$AA@ 10054ab8     LIBCMT:getqloc.obj
 0002:00009ad0       ??_C@_1CA@NJMMCFOC@?$AAe?$AAn?$AAg?$AAl?$AAi?$AAs?$AAh?$AA?9?$AAj?$AAa?$AAm?$AAa?$AAi?$AAc?$AAa?$AA?$AA@ 10054ad0     LIBCMT:getqloc.obj
 0002:00009af0       ??_C@_1BG@BHJEBBGG@?$AAe?$AAn?$AAg?$AAl?$AAi?$AAs?$AAh?$AA?9?$AAn?$AAz?$AA?$AA@ 10054af0     LIBCMT:getqloc.obj
 0002:00009b08       ??_C@_1CK@FGOEJJCO@?$AAe?$AAn?$AAg?$AAl?$AAi?$AAs?$AAh?$AA?9?$AAs?$AAo?$AAu?$AAt?$AAh?$AA?5?$AAa?$AAf?$AAr?$AAi?$AAc?$AAa?$AA?$AA@ 10054b08     LIBCMT:getqloc.obj
 0002:00009b34       ??_C@_1DE@PDBJPCJ@?$AAe?$AAn?$AAg?$AAl?$AAi?$AAs?$AAh?$AA?9?$AAt?$AAr?$AAi?$AAn?$AAi?$AAd?$AAa?$AAd?$AA?5?$AAy?$AA?5?$AAt?$AAo?$AAb?$AAa?$AAg?$AAo?$AA?$AA@ 10054b34     LIBCMT:getqloc.obj
 0002:00009b68       ??_C@_1BG@JGCANDME@?$AAe?$AAn?$AAg?$AAl?$AAi?$AAs?$AAh?$AA?9?$AAu?$AAk?$AA?$AA@ 10054b68     LIBCMT:getqloc.obj
 0002:00009b80       ??_C@_1BG@DINKMLE@?$AAe?$AAn?$AAg?$AAl?$AAi?$AAs?$AAh?$AA?9?$AAu?$AAs?$AA?$AA@ 10054b80     LIBCMT:getqloc.obj
 0002:00009b98       ??_C@_1BI@NMFDBHJE@?$AAe?$AAn?$AAg?$AAl?$AAi?$AAs?$AAh?$AA?9?$AAu?$AAs?$AAa?$AA?$AA@ 10054b98     LIBCMT:getqloc.obj
 0002:00009bb0       ??_C@_1BO@OIHKJKII@?$AAf?$AAr?$AAe?$AAn?$AAc?$AAh?$AA?9?$AAb?$AAe?$AAl?$AAg?$AAi?$AAa?$AAn?$AA?$AA@ 10054bb0     LIBCMT:getqloc.obj
 0002:00009bd0       ??_C@_1CA@NKAELJKI@?$AAf?$AAr?$AAe?$AAn?$AAc?$AAh?$AA?9?$AAc?$AAa?$AAn?$AAa?$AAd?$AAi?$AAa?$AAn?$AA?$AA@ 10054bd0     LIBCMT:getqloc.obj
 0002:00009bf0       ??_C@_1CE@MGKCNLGN@?$AAf?$AAr?$AAe?$AAn?$AAc?$AAh?$AA?9?$AAl?$AAu?$AAx?$AAe?$AAm?$AAb?$AAo?$AAu?$AAr?$AAg?$AA?$AA@ 10054bf0     LIBCMT:getqloc.obj
 0002:00009c14       ??_C@_1BK@CEGEAILM@?$AAf?$AAr?$AAe?$AAn?$AAc?$AAh?$AA?9?$AAs?$AAw?$AAi?$AAs?$AAs?$AA?$AA@ 10054c14     LIBCMT:getqloc.obj
 0002:00009c30       ??_C@_1CA@PAFKEOCC@?$AAg?$AAe?$AAr?$AAm?$AAa?$AAn?$AA?9?$AAa?$AAu?$AAs?$AAt?$AAr?$AAi?$AAa?$AAn?$AA?$AA@ 10054c30     LIBCMT:getqloc.obj
 0002:00009c50       ??_C@_1CI@HCFHGOFD@?$AAg?$AAe?$AAr?$AAm?$AAa?$AAn?$AA?9?$AAl?$AAi?$AAc?$AAh?$AAt?$AAe?$AAn?$AAs?$AAt?$AAe?$AAi?$AAn?$AA?$AA@ 10054c50     LIBCMT:getqloc.obj
 0002:00009c78       ??_C@_1CE@FEDDNPDG@?$AAg?$AAe?$AAr?$AAm?$AAa?$AAn?$AA?9?$AAl?$AAu?$AAx?$AAe?$AAm?$AAb?$AAo?$AAu?$AAr?$AAg?$AA?$AA@ 10054c78     LIBCMT:getqloc.obj
 0002:00009c9c       ??_C@_1BK@LIMINNMN@?$AAg?$AAe?$AAr?$AAm?$AAa?$AAn?$AA?9?$AAs?$AAw?$AAi?$AAs?$AAs?$AA?$AA@ 10054c9c     LIBCMT:getqloc.obj
 0002:00009cb8       ??_C@_1BM@LGMDBEPD@?$AAi?$AAr?$AAi?$AAs?$AAh?$AA?9?$AAe?$AAn?$AAg?$AAl?$AAi?$AAs?$AAh?$AA?$AA@ 10054cb8     LIBCMT:getqloc.obj
 0002:00009cd4       ??_C@_1BM@NNCFBAEE@?$AAi?$AAt?$AAa?$AAl?$AAi?$AAa?$AAn?$AA?9?$AAs?$AAw?$AAi?$AAs?$AAs?$AA?$AA@ 10054cd4     LIBCMT:getqloc.obj
 0002:00009cf0       ??_C@_1BE@FEDJNPIB@?$AAn?$AAo?$AAr?$AAw?$AAe?$AAg?$AAi?$AAa?$AAn?$AA?$AA@ 10054cf0     LIBCMT:getqloc.obj
 0002:00009d04       ??_C@_1CC@CILKDEIE@?$AAn?$AAo?$AAr?$AAw?$AAe?$AAg?$AAi?$AAa?$AAn?$AA?9?$AAb?$AAo?$AAk?$AAm?$AAa?$AAl?$AA?$AA@ 10054d04     LIBCMT:getqloc.obj
 0002:00009d28       ??_C@_1CE@DHMMHEPL@?$AAn?$AAo?$AAr?$AAw?$AAe?$AAg?$AAi?$AAa?$AAn?$AA?9?$AAn?$AAy?$AAn?$AAo?$AAr?$AAs?$AAk?$AA?$AA@ 10054d28     LIBCMT:getqloc.obj
 0002:00009d4c       ??_C@_1CK@OPNMHECD@?$AAp?$AAo?$AAr?$AAt?$AAu?$AAg?$AAu?$AAe?$AAs?$AAe?$AA?9?$AAb?$AAr?$AAa?$AAz?$AAi?$AAl?$AAi?$AAa?$AAn?$AA?$AA@ 10054d4c     LIBCMT:getqloc.obj
 0002:00009d78       ??_C@_1CE@KEEHCDB@?$AAs?$AAp?$AAa?$AAn?$AAi?$AAs?$AAh?$AA?9?$AAa?$AAr?$AAg?$AAe?$AAn?$AAt?$AAi?$AAn?$AAa?$AA?$AA@ 10054d78     LIBCMT:getqloc.obj
 0002:00009d9c       ??_C@_1CA@GIAOLHJD@?$AAs?$AAp?$AAa?$AAn?$AAi?$AAs?$AAh?$AA?9?$AAb?$AAo?$AAl?$AAi?$AAv?$AAi?$AAa?$AA?$AA@ 10054d9c     LIBCMT:getqloc.obj
 0002:00009dbc       ??_C@_1BM@OJNDFNPD@?$AAs?$AAp?$AAa?$AAn?$AAi?$AAs?$AAh?$AA?9?$AAc?$AAh?$AAi?$AAl?$AAe?$AA?$AA@ 10054dbc     LIBCMT:getqloc.obj
 0002:00009dd8       ??_C@_1CC@OCOLPALL@?$AAs?$AAp?$AAa?$AAn?$AAi?$AAs?$AAh?$AA?9?$AAc?$AAo?$AAl?$AAo?$AAm?$AAb?$AAi?$AAa?$AA?$AA@ 10054dd8     LIBCMT:getqloc.obj
 0002:00009dfc       ??_C@_1CG@BPOFMKBB@?$AAs?$AAp?$AAa?$AAn?$AAi?$AAs?$AAh?$AA?9?$AAc?$AAo?$AAs?$AAt?$AAa?$AA?5?$AAr?$AAi?$AAc?$AAa?$AA?$AA@ 10054dfc     LIBCMT:getqloc.obj
 0002:00009e24       ??_C@_1DG@IGOBAPBB@?$AAs?$AAp?$AAa?$AAn?$AAi?$AAs?$AAh?$AA?9?$AAd?$AAo?$AAm?$AAi?$AAn?$AAi?$AAc?$AAa?$AAn?$AA?5?$AAr?$AAe?$AAp?$AAu?$AAb?$AAl?$AAi?$AAc?$AA?$AA@ 10054e24     LIBCMT:getqloc.obj
 0002:00009e5c       ??_C@_1CA@JHAPGEGI@?$AAs?$AAp?$AAa?$AAn?$AAi?$AAs?$AAh?$AA?9?$AAe?$AAc?$AAu?$AAa?$AAd?$AAo?$AAr?$AA?$AA@ 10054e5c     LIBCMT:getqloc.obj
 0002:00009e7c       ??_C@_1CI@LAPALJPP@?$AAs?$AAp?$AAa?$AAn?$AAi?$AAs?$AAh?$AA?9?$AAe?$AAl?$AA?5?$AAs?$AAa?$AAl?$AAv?$AAa?$AAd?$AAo?$AAr?$AA?$AA@ 10054e7c     LIBCMT:getqloc.obj
 0002:00009ea4       ??_C@_1CE@PDGBOFOM@?$AAs?$AAp?$AAa?$AAn?$AAi?$AAs?$AAh?$AA?9?$AAg?$AAu?$AAa?$AAt?$AAe?$AAm?$AAa?$AAl?$AAa?$AA?$AA@ 10054ea4     LIBCMT:getqloc.obj
 0002:00009ec8       ??_C@_1CC@NBEBAODI@?$AAs?$AAp?$AAa?$AAn?$AAi?$AAs?$AAh?$AA?9?$AAh?$AAo?$AAn?$AAd?$AAu?$AAr?$AAa?$AAs?$AA?$AA@ 10054ec8     LIBCMT:getqloc.obj
 0002:00009eec       ??_C@_1CA@LLKGHBMF@?$AAs?$AAp?$AAa?$AAn?$AAi?$AAs?$AAh?$AA?9?$AAm?$AAe?$AAx?$AAi?$AAc?$AAa?$AAn?$AA?$AA@ 10054eec     LIBCMT:getqloc.obj
 0002:00009f0c       ??_C@_1BO@LKNDOIGD@?$AAs?$AAp?$AAa?$AAn?$AAi?$AAs?$AAh?$AA?9?$AAm?$AAo?$AAd?$AAe?$AAr?$AAn?$AA?$AA@ 10054f0c     LIBCMT:getqloc.obj
 0002:00009f2c       ??_C@_1CE@NMDMOEEB@?$AAs?$AAp?$AAa?$AAn?$AAi?$AAs?$AAh?$AA?9?$AAn?$AAi?$AAc?$AAa?$AAr?$AAa?$AAg?$AAu?$AAa?$AA?$AA@ 10054f2c     LIBCMT:getqloc.obj
 0002:00009f50       ??_C@_1BO@LLCBEJGB@?$AAs?$AAp?$AAa?$AAn?$AAi?$AAs?$AAh?$AA?9?$AAp?$AAa?$AAn?$AAa?$AAm?$AAa?$AA?$AA@ 10054f50     LIBCMT:getqloc.obj
 0002:00009f70       ??_C@_1CC@FKPGGIHO@?$AAs?$AAp?$AAa?$AAn?$AAi?$AAs?$AAh?$AA?9?$AAp?$AAa?$AAr?$AAa?$AAg?$AAu?$AAa?$AAy?$AA?$AA@ 10054f70     LIBCMT:getqloc.obj
 0002:00009f94       ??_C@_1BK@CDEIHOOP@?$AAs?$AAp?$AAa?$AAn?$AAi?$AAs?$AAh?$AA?9?$AAp?$AAe?$AAr?$AAu?$AA?$AA@ 10054f94     LIBCMT:getqloc.obj
 0002:00009fb0       ??_C@_1CI@GAHAKKGP@?$AAs?$AAp?$AAa?$AAn?$AAi?$AAs?$AAh?$AA?9?$AAp?$AAu?$AAe?$AAr?$AAt?$AAo?$AA?5?$AAr?$AAi?$AAc?$AAo?$AA?$AA@ 10054fb0     LIBCMT:getqloc.obj
 0002:00009fd8       ??_C@_1CA@NKJBCAGP@?$AAs?$AAp?$AAa?$AAn?$AAi?$AAs?$AAh?$AA?9?$AAu?$AAr?$AAu?$AAg?$AAu?$AAa?$AAy?$AA?$AA@ 10054fd8     LIBCMT:getqloc.obj
 0002:00009ff8       ??_C@_1CE@ODILCONM@?$AAs?$AAp?$AAa?$AAn?$AAi?$AAs?$AAh?$AA?9?$AAv?$AAe?$AAn?$AAe?$AAz?$AAu?$AAe?$AAl?$AAa?$AA?$AA@ 10054ff8     LIBCMT:getqloc.obj
 0002:0000a01c       ??_C@_1CA@OBNMCGFO@?$AAs?$AAw?$AAe?$AAd?$AAi?$AAs?$AAh?$AA?9?$AAf?$AAi?$AAn?$AAl?$AAa?$AAn?$AAd?$AA?$AA@ 1005501c     LIBCMT:getqloc.obj
 0002:0000a03c       ??_C@_1M@PIPDDPPI@?$AAs?$AAw?$AAi?$AAs?$AAs?$AA?$AA@ 1005503c     LIBCMT:getqloc.obj
 0002:0000a048       ??_C@_15PJPFLCCM@?$AAu?$AAk?$AA?$AA@ 10055048     LIBCMT:getqloc.obj
 0002:0000a050       ??_C@_15GMFIMNFM@?$AAu?$AAs?$AA?$AA@ 10055050     LIBCMT:getqloc.obj
 0002:0000a058       ??_C@_17HAEBFAGL@?$AAu?$AAs?$AAa?$AA?$AA@ 10055058     LIBCMT:getqloc.obj
 0002:0000a060       ___rg_country              10055060     LIBCMT:getqloc.obj
 0002:0000a174       ??_C@_1BA@DPFJEPHB@?$AAa?$AAm?$AAe?$AAr?$AAi?$AAc?$AAa?$AA?$AA@ 10055174     LIBCMT:getqloc.obj
 0002:0000a184       ??_C@_1BA@ELOGGFK@?$AAb?$AAr?$AAi?$AAt?$AAa?$AAi?$AAn?$AA?$AA@ 10055184     LIBCMT:getqloc.obj
 0002:0000a194       ??_C@_1M@GHBGIGDA@?$AAc?$AAh?$AAi?$AAn?$AAa?$AA?$AA@ 10055194     LIBCMT:getqloc.obj
 0002:0000a1a0       ??_C@_1M@NCHEJOPO@?$AAc?$AAz?$AAe?$AAc?$AAh?$AA?$AA@ 100551a0     LIBCMT:getqloc.obj
 0002:0000a1ac       ??_C@_1BA@BKPAPBLA@?$AAe?$AAn?$AAg?$AAl?$AAa?$AAn?$AAd?$AA?$AA@ 100551ac     LIBCMT:getqloc.obj
 0002:0000a1bc       ??_C@_1BM@HKBCKIPC@?$AAg?$AAr?$AAe?$AAa?$AAt?$AA?5?$AAb?$AAr?$AAi?$AAt?$AAa?$AAi?$AAn?$AA?$AA@ 100551bc     LIBCMT:getqloc.obj
 0002:0000a1d8       ??_C@_1BA@PPCHPGJB@?$AAh?$AAo?$AAl?$AAl?$AAa?$AAn?$AAd?$AA?$AA@ 100551d8     LIBCMT:getqloc.obj
 0002:0000a1e8       ??_C@_1BE@JBMPEGDG@?$AAh?$AAo?$AAn?$AAg?$AA?9?$AAk?$AAo?$AAn?$AAg?$AA?$AA@ 100551e8     LIBCMT:getqloc.obj
 0002:0000a1fc       ??_C@_1BI@KOELBBPJ@?$AAn?$AAe?$AAw?$AA?9?$AAz?$AAe?$AAa?$AAl?$AAa?$AAn?$AAd?$AA?$AA@ 100551fc     LIBCMT:getqloc.obj
 0002:0000a214       ??_C@_15HIEBHAIO@?$AAn?$AAz?$AA?$AA@ 10055214     LIBCMT:getqloc.obj
 0002:0000a21c       ??_C@_1BC@CHBCPFPI@?$AAp?$AAr?$AA?5?$AAc?$AAh?$AAi?$AAn?$AAa?$AA?$AA@ 1005521c     LIBCMT:getqloc.obj
 0002:0000a230       ??_C@_1BC@JAOIIFKD@?$AAp?$AAr?$AA?9?$AAc?$AAh?$AAi?$AAn?$AAa?$AA?$AA@ 10055230     LIBCMT:getqloc.obj
 0002:0000a244       ??_C@_1BI@BEHPPHKC@?$AAp?$AAu?$AAe?$AAr?$AAt?$AAo?$AA?9?$AAr?$AAi?$AAc?$AAo?$AA?$AA@ 10055244     LIBCMT:getqloc.obj
 0002:0000a25c       ??_C@_1O@PAEOFKDI@?$AAs?$AAl?$AAo?$AAv?$AAa?$AAk?$AA?$AA@ 1005525c     LIBCMT:getqloc.obj
 0002:0000a26c       ??_C@_1BK@FIHMCKAM@?$AAs?$AAo?$AAu?$AAt?$AAh?$AA?5?$AAa?$AAf?$AAr?$AAi?$AAc?$AAa?$AA?$AA@ 1005526c     LIBCMT:getqloc.obj
 0002:0000a288       ??_C@_1BI@NAEOODKB@?$AAs?$AAo?$AAu?$AAt?$AAh?$AA?5?$AAk?$AAo?$AAr?$AAe?$AAa?$AA?$AA@ 10055288     LIBCMT:getqloc.obj
 0002:0000a2a0       ??_C@_1BK@FBDGGIFF@?$AAs?$AAo?$AAu?$AAt?$AAh?$AA?9?$AAa?$AAf?$AAr?$AAi?$AAc?$AAa?$AA?$AA@ 100552a0     LIBCMT:getqloc.obj
 0002:0000a2bc       ??_C@_1BI@GHLEJDPK@?$AAs?$AAo?$AAu?$AAt?$AAh?$AA?9?$AAk?$AAo?$AAr?$AAe?$AAa?$AA?$AA@ 100552bc     LIBCMT:getqloc.obj
 0002:0000a2d4       ??_C@_1CE@PLHLOMJF@?$AAt?$AAr?$AAi?$AAn?$AAi?$AAd?$AAa?$AAd?$AA?5?$AA?$CG?$AA?5?$AAt?$AAo?$AAb?$AAa?$AAg?$AAo?$AA?$AA@ 100552d4     LIBCMT:getqloc.obj
 0002:0000a2f8       ??_C@_1BO@MODIMHHI@?$AAu?$AAn?$AAi?$AAt?$AAe?$AAd?$AA?9?$AAk?$AAi?$AAn?$AAg?$AAd?$AAo?$AAm?$AA?$AA@ 100552f8     LIBCMT:getqloc.obj
 0002:0000a318       ??_C@_1BM@FFHJONBJ@?$AAu?$AAn?$AAi?$AAt?$AAe?$AAd?$AA?9?$AAs?$AAt?$AAa?$AAt?$AAe?$AAs?$AA?$AA@ 10055318     LIBCMT:getqloc.obj
 0002:0000a334       ??_C@_17DNCLJFIF@?$AAA?$AAC?$AAP?$AA?$AA@ 10055334     LIBCMT:getqloc.obj
 0002:0000a33c       ??_C@_17CIKBIHLH@?$AAO?$AAC?$AAP?$AA?$AA@ 1005533c     LIBCMT:getqloc.obj
 0002:0000a348       __load_config_used         10055348     LIBCMT:loadcfg.obj
 0002:0000bb60       ___safe_se_handler_table   10056b60     <linker-defined>
 0002:0000bc70       ___rtc_iaa                 10056c70     LIBCMT:initsect.obj
 0002:0000bd74       ___rtc_izz                 10056d74     LIBCMT:initsect.obj
 0002:0000be78       ___rtc_taa                 10056e78     LIBCMT:initsect.obj
 0002:0000bf7c       ___rtc_tzz                 10056f7c     LIBCMT:initsect.obj
 0003:00003a50       _pci20041digout            1005ba50     xpctarget.obj
 0003:00003a54       _nipcdio24cnfg             1005ba54     xpctarget.obj
 0003:00003a58       _rtddm6604cnfg             1005ba58     xpctarget.obj
 0003:000049cc       _DefaultCOMIOBase          1005c9cc     xpcruntime:xpcimports.obj
 0003:000049dc       _DefaultCOMIRQ             1005c9dc     xpcruntime:xpcimports.obj
 0003:00005590       __half                     1005d590     LIBCMT:pow.obj
 0003:000055b0       ___security_cookie         1005d5b0     LIBCMT:gs_cookie.obj
 0003:000055b4       ___security_cookie_complement 1005d5b4     LIBCMT:gs_cookie.obj
 0003:000055b8       __fltused                  1005d5b8     LIBCMT:fpinit.obj
 0003:000055bc       __ldused                   1005d5bc     LIBCMT:fpinit.obj
 0003:000055c0       __iob                      1005d5c0     LIBCMT:_file.obj
 0003:00005b00       __d_inf                    1005db00     LIBCMT:util.obj
 0003:00005b08       __d_ind                    1005db08     LIBCMT:util.obj
 0003:00005b10       __d_max                    1005db10     LIBCMT:util.obj
 0003:00005b18       __d_min                    1005db18     LIBCMT:util.obj
 0003:00005b20       __d_mzero                  1005db20     LIBCMT:util.obj
 0003:00005b54       ___isa_enabled             1005db54     LIBCMT:cpu_disp.obj
 0003:00005b58       ___nullstring              1005db58     LIBCMT:output.obj
 0003:00005b5c       ___wnullstring             1005db5c     LIBCMT:output.obj
 0003:00005b60       __cfltcvt_tab              1005db60     LIBCMT:cmiscdat.obj
 0003:00005cac       ___ptmbcinfo               1005dcac     LIBCMT:mbctype.obj
 0003:00005da0       __mbctype                  1005dda0     LIBCMT:mbctype.obj
 0003:00005ea8       __mbcasemap                1005dea8     LIBCMT:mbctype.obj
 0003:00005fa8       ___initialmbcinfo          1005dfa8     LIBCMT:mbctype.obj
 0003:000061d0       ___badioinfo               1005e1d0     LIBCMT:ioinit.obj
 0003:00006210       __lookuptrailbytes         1005e210     LIBCMT:read.obj
 0003:00006310       ___abort_behavior          1005e310     LIBCMT:abort.obj
 0003:00006314       ___flsindex                1005e314     LIBCMT:tidtable.obj
 0003:00006318       __matherr_flag             1005e318     LIBCMT:matherr.obj
 0003:00006320       ___wclocalestr             1005e320     LIBCMT:nlsdata.obj
 0003:00006328       ___lc_time_c               1005e328     LIBCMT:nlsdata.obj
 0003:0000648c       ___ptlocinfo               1005e48c     LIBCMT:nlsdata.obj
 0003:00006490       ___initiallocinfo          1005e490     LIBCMT:nlsdata.obj
 0003:00006548       ___initiallocalestructinfo 1005e548     LIBCMT:nlsdata.obj
 0003:00006550       ___mb_cur_max              1005e550     LIBCMT:nlsdata.obj
 0003:00006554       ___globallocalestatus      1005e554     LIBCMT:glstatus.obj
 0003:00006560       __NLG_Destination          1005e560     LIBCMT:exsup.obj
 0003:00006570       ___lconv                   1005e570     LIBCMT:lconv.obj
 0003:00006574       ___lconv_static_decimal    1005e574     LIBCMT:lconv.obj
 0003:00006578       ___lconv_c                 1005e578     LIBCMT:lconv.obj
 0003:000065c8       ___lconv_static_W_decimal  1005e5c8     LIBCMT:lconv.obj
 0003:000065cc       __pctype                   1005e5cc     LIBCMT:ctype.obj
 0003:000065d0       __pwctype                  1005e5d0     LIBCMT:ctype.obj
 0003:00006610       __confh                    1005e610     LIBCMT:initcon.obj
 0003:00006618       __pow10pos                 1005e618     LIBCMT:constpow.obj
 0003:00006778       __pow10neg                 1005e778     LIBCMT:constpow.obj
 0003:00007238       _xmlsize                   1005f238     xpctarget.obj
 0003:0000723c       _pci20098PortA             1005f23c     xpctarget.obj
 0003:00007240       _pci20098PortB             1005f240     xpctarget.obj
 0003:00007244       _siepowercan_firmware_initialized 1005f244     xpctarget.obj
 0003:00007248       _siepowercan_port1_configured 1005f248     xpctarget.obj
 0003:0000724c       _siepowercan_port2_configured 1005f24c     xpctarget.obj
 0003:00007250       _CANAC2_FIRMWARE_LOADED    1005f250     xpctarget.obj
 0003:00007254       _rs232ports                1005f254     xpctarget.obj
 0003:00007264       _NI_AT_MIO_16F_5_commreg2  1005f264     xpctarget.obj
 0003:00007268       _RTD_DM6430_init           1005f268     xpctarget.obj
 0003:0000726c       _RTD_DM6420_init           1005f26c     xpctarget.obj
 0003:00007270       _CANAC2_FIRMWARE_LOADED_mb1 1005f270     xpctarget.obj
 0003:00007274       _CANAC2_FIRMWARE_LOADED_mb2 1005f274     xpctarget.obj
 0003:00007278       _CANAC2_FIRMWARE_LOADED_mb3 1005f278     xpctarget.obj
 0003:00007b6c       ___fastflag                1005fb6c     LIBCMT:fpinit.obj
 0003:00007b70       __C_Exit_Done              1005fb70     LIBCMT:crt0dat.obj
 0003:00007b74       ___argc                    1005fb74     LIBCMT:crt0dat.obj
 0003:00007b78       ___argv                    1005fb78     LIBCMT:crt0dat.obj
 0003:00007b7c       ___wargv                   1005fb7c     LIBCMT:crt0dat.obj
 0003:00007b80       __environ                  1005fb80     LIBCMT:crt0dat.obj
 0003:00007b84       __wenviron                 1005fb84     LIBCMT:crt0dat.obj
 0003:00007b88       __pgmptr                   1005fb88     LIBCMT:crt0dat.obj
 0003:00007b8c       __wpgmptr                  1005fb8c     LIBCMT:crt0dat.obj
 0003:00007b90       __umaskval                 1005fb90     LIBCMT:crt0dat.obj
 0003:00007b94       __exitflag                 1005fb94     LIBCMT:crt0dat.obj
 0003:00007b98       __C_Termination_Done       1005fb98     LIBCMT:crt0dat.obj
 0003:00007b9c       ___winitenv                1005fb9c     LIBCMT:crt0dat.obj
 0003:00007ba0       ___initenv                 1005fba0     LIBCMT:crt0dat.obj
 0003:00007ba4       __cflush                   1005fba4     LIBCMT:_file.obj
 0003:00007ba8       __aenvptr                  1005fba8     LIBCMT:dllcrt0.obj
 0003:00007bac       __wenvptr                  1005fbac     LIBCMT:dllcrt0.obj
 0003:00007bb4       ?_pnhHeap@@3P6AHI@ZA       1005fbb4     LIBCMT:handler.obj
 0003:00007bb8       ___app_type                1005fbb8     LIBCMT:crt0msg.obj
 0003:000081e8       __newmode                  100601e8     LIBCMT:_newmode.obj
 0003:000081ec       __crtheap                  100601ec     LIBCMT:heapinit.obj
 0003:000081f4       ___isa_available           100601f4     LIBCMT:cpu_disp.obj
 0003:000081f8       ___favor                   100601f8     LIBCMT:cpu_disp.obj
 0003:000081fc       ___pInvalidArgHandler      100601fc     LIBCMT:invarg.obj
 0003:00008200       __stdbuf                   10060200     LIBCMT:_sftbuf.obj
 0003:00008358       __maxwait                  10060358     LIBCMT:crtheap.obj
 0003:0000835c       ?__pInconsistency@@3P6AXXZA 1006035c     LIBCMT:hooks.obj
 0003:00008360       ___pPurecall               10060360     LIBCMT:inithelp.obj
 0003:0000837c       ___mblocalename            1006037c     LIBCMT:mbctype.obj
 0003:00008380       ___mbcodepage              10060380     LIBCMT:mbctype.obj
 0003:00008384       ___ismbcodepage            10060384     LIBCMT:mbctype.obj
 0003:00008388       ___mbulinfo                10060388     LIBCMT:mbctype.obj
 0003:00008398       ___ioInitOnce              10060398     LIBCMT:ioinit.obj
 0003:0000839c       ___error_mode              1006039c     LIBCMT:errmode.obj
 0003:000084c0       __outputformat             100604c0     LIBCMT:outputformat.obj
 0003:000084c4       __commode                  100604c4     LIBCMT:ncommode.obj
 0003:000084c8       ___lconv_static_null       100604c8     LIBCMT:lconv.obj
 0003:000084cc       ___lconv_static_W_null     100604cc     LIBCMT:lconv.obj
 0003:000084d0       ___locale_changed          100604d0     LIBCMT:wsetloca.obj
 0003:000084d4       __fmode                    100604d4     LIBCMT:txtmode.obj
 0003:000084e0       _CANAC2_2_receiveindex_mb3 100604e0     <common>
 0003:0000b5b4       _CANAC2_2_receivemaxindex_mb3 100635b4     <common>
 0003:0000b5c0       _CANAC2_2_sendindex_mb3    100635c0     <common>
 0003:0000b8e0       _CANAC2_2_sendmaxindex_mb3 100638e0     <common>
 0003:0000b900       _CANAC2_1_receiveindex_mb3 10063900     <common>
 0003:0000bc20       _CANAC2_1_receivemaxindex_mb3 10063c20     <common>
 0003:0000bc40       _CANAC2_1_sendindex_mb3    10063c40     <common>
 0003:0000bf60       _CANAC2_1_sendmaxindex_mb3 10063f60     <common>
 0003:0000bf80       _CANAC2_2_receive_mb3      10063f80     <common>
 0003:0000c2a0       _CANAC2_2_send_mb3         100642a0     <common>
 0003:0000c5c0       _CANAC2_1_receive_mb3      100645c0     <common>
 0003:0000c8e0       _CANAC2_1_send_mb3         100648e0     <common>
 0003:0000cc00       _CANAC2_2_receiveindex_mb2 10064c00     <common>
 0003:0000cf20       _CANAC2_2_receivemaxindex_mb2 10064f20     <common>
 0003:0000cf40       _CANAC2_2_sendindex_mb2    10064f40     <common>
 0003:0000d260       _CANAC2_2_sendmaxindex_mb2 10065260     <common>
 0003:0000d280       _CANAC2_1_receiveindex_mb2 10065280     <common>
 0003:0000d5a0       _CANAC2_1_receivemaxindex_mb2 100655a0     <common>
 0003:0000d5c0       _CANAC2_1_sendindex_mb2    100655c0     <common>
 0003:0000d8e0       _CANAC2_1_sendmaxindex_mb2 100658e0     <common>
 0003:0000d900       _CANAC2_2_receive_mb2      10065900     <common>
 0003:0000dc20       _CANAC2_2_send_mb2         10065c20     <common>
 0003:0000df40       _CANAC2_1_receive_mb2      10065f40     <common>
 0003:0000e260       _CANAC2_1_send_mb2         10066260     <common>
 0003:0000e580       _CANAC2_2_receiveindex_mb1 10066580     <common>
 0003:0000e8a0       _CANAC2_2_receivemaxindex_mb1 100668a0     <common>
 0003:0000e8c0       _CANAC2_2_sendindex_mb1    100668c0     <common>
 0003:0000ebe0       _CANAC2_2_sendmaxindex_mb1 10066be0     <common>
 0003:0000ec00       _CANAC2_1_receiveindex_mb1 10066c00     <common>
 0003:0000ef20       _CANAC2_1_receivemaxindex_mb1 10066f20     <common>
 0003:0000ef40       _CANAC2_1_sendindex_mb1    10066f40     <common>
 0003:0000f260       _CANAC2_1_sendmaxindex_mb1 10067260     <common>
 0003:0000f280       _CANAC2_2_receive_mb1      10067280     <common>
 0003:0000f5a0       _CANAC2_2_send_mb1         100675a0     <common>
 0003:0000f8c0       _CANAC2_1_receive_mb1      100678c0     <common>
 0003:0000fbe0       _CANAC2_1_send_mb1         10067be0     <common>
 0003:0000ff00       _CANAC2_2_receiveindex     10067f00     <common>
 0003:00010220       _CANAC2_2_receivemaxindex  10068220     <common>
 0003:00010240       _CANAC2_2_sendindex        10068240     <common>
 0003:00010560       _CANAC2_2_sendmaxindex     10068560     <common>
 0003:00010580       _CANAC2_1_receiveindex     10068580     <common>
 0003:000108a0       _CANAC2_1_receivemaxindex  100688a0     <common>
 0003:000108c0       _CANAC2_1_sendindex        100688c0     <common>
 0003:00010be0       _CANAC2_1_sendmaxindex     10068be0     <common>
 0003:00010c00       _CANAC2_2_receive          10068c00     <common>
 0003:00010f20       _CANAC2_2_send             10068f20     <common>
 0003:00011240       _CANAC2_1_receive          10069240     <common>
 0003:00011560       _CANAC2_1_send             10069560     <common>
 0003:00011880       _siepowercan_can_object_buffer_port2 10069880     <common>
 0003:000158a0       _siepowercan_can_object_buffer_port1 1006d8a0     <common>
 0003:000198a0       _rtNaNF                    100718a0     <common>
 0003:000198b4       _rtMinusInfF               100718b4     <common>
 0003:000198b8       _rtInfF                    100718b8     <common>
 0003:000198c0       _rtNaN                     100718c0     <common>
 0003:000198c8       _rtMinusInf                100718c8     <common>
 0003:000198d0       _rtInf                     100718d0     <common>
 0003:000198e0       _feedback_plant_with_best_PID_M_ 100718e0     <common>
 0003:0001af00       _feedback_plant_with_best_PID_Y 10072f00     <common>
 0003:0001afc0       _feedback_plant_with_best_PID_DW 10072fc0     <common>
 0003:0001b1c8       _feedback_plant_with_best_PID_X 100731c8     <common>
 0003:0001b1e0       _feedback_plant_with_best_PID_B 100731e0     <common>
 0003:0001b550       _xpcOutpW                  10073550     <common>
 0003:0001b5a0       _xpcOutpDW                 100735a0     <common>
 0003:0001b5a4       _xpcInpB                   100735a4     <common>
 0003:0001b5a8       _xpcInpW                   100735a8     <common>
 0003:0001b5ac       _xpcInpDW                  100735ac     <common>
 0003:0001b5b0       _slTestRegAssessment       100735b0     <common>
 0003:0001b5b4       _slTestTerminate           100735b4     <common>
 0003:0001b5b8       _slTestEvalOnFail          100735b8     <common>
 0003:0001b5bc       _slTestLogAssessments      100735bc     <common>
 0003:0001b5c0       _slTestInitialize          100735c0     <common>
 0003:0001b5c4       _unRegisterPTPTimeRead     100735c4     <common>
 0003:0001b5c8       _registerPTPTimeRead       100735c8     <common>
 0003:0001b5cc       _slrteGetCurrentStepSize   100735cc     <common>
 0003:0001b5d0       _slrteSetStepSizeDelta     100735d0     <common>
 0003:0001b5d4       _xpceGetIntTimerGranularityNS 100735d4     <common>
 0003:0001b5d8       _sendToAsyncQueueTgtAppSvc 100735d8     <common>
 0003:0001b5dc       _terminateToAsyncQueueTgtAppSvc 100735dc     <common>
 0003:0001b5e0       _startToAsyncQueueTgtAppSvc 100735e0     <common>
 0003:0001b5e4       _getStatusFlags            100735e4     <common>
 0003:0001b5e8       _getCommService            100735e8     <common>
 0003:0001b5ec       _getMemoryService          100735ec     <common>
 0003:0001b5f0       _StreamVideo               100735f0     <common>
 0003:0001b5f4       _StopVideoDisplay          100735f4     <common>
 0003:0001b5f8       _StartVideoDisplay         100735f8     <common>
 0003:0001b5fc       _DestroyVideoDisplay       100735fc     <common>
 0003:0001b600       _CreateVideoDisplay        10073600     <common>
 0003:0001b604       _ConvertUImage             10073604     <common>
 0003:0001b608       _StopVideo                 10073608     <common>
 0003:0001b60c       _ReadFrameBuffer           1007360c     <common>
 0003:0001b610       _StartVideo                10073610     <common>
 0003:0001b614       _GetVideoConfigs           10073614     <common>
 0003:0001b618       _FindUsbVideoDevice        10073618     <common>
 0003:0001b61c       _xpceDeleteSemaphore       1007361c     <common>
 0003:0001b620       _xpceSignalSemaphore       10073620     <common>
 0003:0001b624       _xpceWaitSemaphore         10073624     <common>
 0003:0001b628       _xpceCreateSemaphore       10073628     <common>
 0003:0001b62c       _TBGiveSpinFast            1007362c     <common>
 0003:0001b630       _TBTakeSpinFast            10073630     <common>
 0003:0001b634       _TBDeleteSpin              10073634     <common>
 0003:0001b638       _TBCreateSpin              10073638     <common>
 0003:0001b63c       _xpceScopeAcqOK            1007363c     <common>
 0003:0001b640       _rl32eRestartAcquisition   10073640     <common>
 0003:0001b644       _rl32eSetTargetScopeSigFt  10073644     <common>
 0003:0001b648       _rl32eSetTargetScope       10073648     <common>
 0003:0001b64c       _xpceFSScopeSet            1007364c     <common>
 0003:0001b650       _rl32eSetScope             10073650     <common>
 0003:0001b654       _rl32eAddSignal            10073654     <common>
 0003:0001b658       _rl32eGetSignalNo          10073658     <common>
 0003:0001b65c       _rl32eDefScope             1007365c     <common>
 0003:0001b660       _rl32eScopeExists          10073660     <common>
 0003:0001b664       _xpceUDPClose              10073664     <common>
 0003:0001b668       _xpceUDPReceive            10073668     <common>
 0003:0001b66c       _xpceUDPSend               1007366c     <common>
 0003:0001b670       _xpceUDPOpenReceive        10073670     <common>
 0003:0001b674       _xpceUDPOpenSend           10073674     <common>
 0003:0001b678       _rl32eSendBlock            10073678     <common>
 0003:0001b67c       _rl32eLineStatus           1007367c     <common>
 0003:0001b680       _rl32eReceiveBufferCount   10073680     <common>
 0003:0001b684       _rl32eReceiveChar          10073684     <common>
 0003:0001b688       _rl32eSendChar             10073688     <common>
 0003:0001b68c       _rl32eCloseCOMPort         1007368c     <common>
 0003:0001b690       _rl32eInitCOMPort          10073690     <common>
 0003:0001b694       _xpceGetParamDims          10073694     <common>
 0003:0001b698       _xpceGetParameter          10073698     <common>
 0003:0001b69c       _xpceSetParameter          1007369c     <common>
 0003:0001b6a0       _xpceGetSignalValue        100736a0     <common>
 0003:0001b6a4       _xpceAssignPCIInterrupt    100736a4     <common>
 0003:0001b6a8       _rl32eGetPCIInfoAtSlot     100736a8     <common>
 0003:0001b6ac       _rl32eGetPCIInfo           100736ac     <common>
 0003:0001b6b0       _rl32eShowPCIInfo          100736b0     <common>
 0003:0001b6b4       _rl32eShowPCIDev           100736b4     <common>
 0003:0001b6b8       _xpceGetTET                100736b8     <common>
 0003:0001b6bc       _xpceFTSubtract            100736bc     <common>
 0003:0001b6c0       _xpceFTAdd                 100736c0     <common>
 0003:0001b6c4       _xpceFTReadTime            100736c4     <common>
 0003:0001b6c8       _xpceaddEvent              100736c8     <common>
 0003:0001b6cc       _xpceDeRegisterISR         100736cc     <common>
 0003:0001b6d0       _xpceRegisterISR           100736d0     <common>
 0003:0001b6d4       _xpcIsModelInit            100736d4     <common>
 0003:0001b6d8       _xpcGetElapsedTime         100736d8     <common>
 0003:0001b6dc       _xpcBusyWait               100736dc     <common>
 0003:0001b6e0       _xpcFreePhysicalMemory     100736e0     <common>
 0003:0001b6e4       _xpcAllocPhysicalMemory    100736e4     <common>
 0003:0001b6e8       _xpcReserveMemoryRegion    100736e8     <common>
 0003:0001b6ec       _xpcOutpB                  100736ec     <common>
 0003:0001b6f0       ___unguarded_readlc_active 100736f0     <common>
 0003:0001b700       ___setlc_active            10073700     <common>
 0003:0001b704       __nhandle                  10073704     <common>
 0003:0001b760       ___pioinfo                 10073760     <common>
 0003:0001b860       __pDestructExceptionObject 10073860     <common>
 0003:0001b86c       __pmatherr                 1007386c     <common>
 0003:0001b878       ___use_sse2_mathfcns       10073878     <common>
 0003:0001b884       __debugger_hook_dummy      10073884     <common>
 0003:0001b890       __acmdln                   10073890     <common>
 0003:0001b89c       ___piob                    1007389c     <common>
 0003:0001bbdc       __nstream                  10073bdc     <common>
 0003:0001bbe0       __bufin                    10073be0     <common>
 0003:0001cbe0       ___dyn_tls_init_callback   10074be0     <common>
 0003:0001cbf0       ___onexitend               10074bf0     <common>
 0003:0001cbf4       ___onexitbegin             10074bf4     <common>
 0003:0001cbf8       ___mbctype_initialized     10074bf8     <common>
 0003:0001cbfc       ___env_initialized         10074bfc     <common>
 0004:00000000       __IMPORT_DESCRIPTOR_KERNEL32 10075000     kernel32:KERNEL32.dll
 0004:00000014       __NULL_IMPORT_DESCRIPTOR   10075014     kernel32:KERNEL32.dll
 0004:000001e4       __imp__GetModuleHandleA@4  100751e4     kernel32:KERNEL32.dll
 0004:000001e8       __imp__GetProcAddress@8    100751e8     kernel32:KERNEL32.dll
 0004:000001ec       __imp__HeapAlloc@12        100751ec     kernel32:KERNEL32.dll
 0004:000001f0       __imp__IsDebuggerPresent@0 100751f0     kernel32:KERNEL32.dll
 0004:000001f4       __imp__IsProcessorFeaturePresent@4 100751f4     kernel32:KERNEL32.dll
 0004:000001f8       __imp__EncodePointer@4     100751f8     kernel32:KERNEL32.dll
 0004:000001fc       __imp__DecodePointer@4     100751fc     kernel32:KERNEL32.dll
 0004:00000200       __imp__GetLastError@0      10075200     kernel32:KERNEL32.dll
 0004:00000204       __imp__InterlockedDecrement@4 10075204     kernel32:KERNEL32.dll
 0004:00000208       __imp__ExitProcess@4       10075208     kernel32:KERNEL32.dll
 0004:0000020c       __imp__GetModuleHandleExW@12 1007520c     kernel32:KERNEL32.dll
 0004:00000210       __imp__AreFileApisANSI@0   10075210     kernel32:KERNEL32.dll
 0004:00000214       __imp__MultiByteToWideChar@24 10075214     kernel32:KERNEL32.dll
 0004:00000218       __imp__HeapFree@12         10075218     kernel32:KERNEL32.dll
 0004:0000021c       __imp__HeapReAlloc@16      1007521c     kernel32:KERNEL32.dll
 0004:00000220       __imp__EnterCriticalSection@4 10075220     kernel32:KERNEL32.dll
 0004:00000224       __imp__LeaveCriticalSection@4 10075224     kernel32:KERNEL32.dll
 0004:00000228       __imp__GetStdHandle@4      10075228     kernel32:KERNEL32.dll
 0004:0000022c       __imp__GetFileType@4       1007522c     kernel32:KERNEL32.dll
 0004:00000230       __imp__GetModuleFileNameW@12 10075230     kernel32:KERNEL32.dll
 0004:00000234       __imp__WriteConsoleW@20    10075234     kernel32:KERNEL32.dll
 0004:00000238       __imp__GetCommandLineA@0   10075238     kernel32:KERNEL32.dll
 0004:0000023c       __imp__GetCurrentThreadId@0 1007523c     kernel32:KERNEL32.dll
 0004:00000240       __imp__WriteFile@20        10075240     kernel32:KERNEL32.dll
 0004:00000244       __imp__GetProcessHeap@0    10075244     kernel32:KERNEL32.dll
 0004:00000248       __imp__UnhandledExceptionFilter@4 10075248     kernel32:KERNEL32.dll
 0004:0000024c       __imp__SetUnhandledExceptionFilter@4 1007524c     kernel32:KERNEL32.dll
 0004:00000250       __imp__FlsAlloc@4          10075250     kernel32:KERNEL32.dll
 0004:00000254       __imp__FlsGetValue@4       10075254     kernel32:KERNEL32.dll
 0004:00000258       __imp__FlsSetValue@8       10075258     kernel32:KERNEL32.dll
 0004:0000025c       __imp__FlsFree@4           1007525c     kernel32:KERNEL32.dll
 0004:00000260       __imp__GetCurrentProcess@0 10075260     kernel32:KERNEL32.dll
 0004:00000264       __imp__TerminateProcess@8  10075264     kernel32:KERNEL32.dll
 0004:00000268       __imp__GetStartupInfoW@4   10075268     kernel32:KERNEL32.dll
 0004:0000026c       __imp__GetModuleHandleW@4  1007526c     kernel32:KERNEL32.dll
 0004:00000270       __imp__RaiseException@16   10075270     kernel32:KERNEL32.dll
 0004:00000274       __imp__InitializeCriticalSectionAndSpinCount@8 10075274     kernel32:KERNEL32.dll
 0004:00000278       __imp__DeleteCriticalSection@4 10075278     kernel32:KERNEL32.dll
 0004:0000027c       __imp__FatalAppExitA@8     1007527c     kernel32:KERNEL32.dll
 0004:00000280       __imp__Sleep@4             10075280     kernel32:KERNEL32.dll
 0004:00000284       __imp__InterlockedExchange@8 10075284     kernel32:KERNEL32.dll
 0004:00000288       __imp__FreeLibrary@4       10075288     kernel32:KERNEL32.dll
 0004:0000028c       __imp__LoadLibraryExW@12   1007528c     kernel32:KERNEL32.dll
 0004:00000290       __imp__SetConsoleCtrlHandler@8 10075290     kernel32:KERNEL32.dll
 0004:00000294       __imp__InterlockedIncrement@4 10075294     kernel32:KERNEL32.dll
 0004:00000298       __imp__IsValidCodePage@4   10075298     kernel32:KERNEL32.dll
 0004:0000029c       __imp__GetACP@0            1007529c     kernel32:KERNEL32.dll
 0004:000002a0       __imp__GetOEMCP@0          100752a0     kernel32:KERNEL32.dll
 0004:000002a4       __imp__GetCPInfo@8         100752a4     kernel32:KERNEL32.dll
 0004:000002a8       __imp__CloseHandle@4       100752a8     kernel32:KERNEL32.dll
 0004:000002ac       __imp__RtlUnwind@16        100752ac     kernel32:KERNEL32.dll
 0004:000002b0       __imp__InitOnceExecuteOnce@16 100752b0     kernel32:KERNEL32.dll
 0004:000002b4       __imp__ReadFile@20         100752b4     kernel32:KERNEL32.dll
 0004:000002b8       __imp__GetConsoleMode@8    100752b8     kernel32:KERNEL32.dll
 0004:000002bc       __imp__ReadConsoleW@20     100752bc     kernel32:KERNEL32.dll
 0004:000002c0       __imp__WideCharToMultiByte@32 100752c0     kernel32:KERNEL32.dll
 0004:000002c4       __imp__GetConsoleCP@0      100752c4     kernel32:KERNEL32.dll
 0004:000002c8       __imp__DeleteFileW@4       100752c8     kernel32:KERNEL32.dll
 0004:000002cc       __imp__SetFilePointer@16   100752cc     kernel32:KERNEL32.dll
 0004:000002d0       __imp__OutputDebugStringW@4 100752d0     kernel32:KERNEL32.dll
 0004:000002d4       __imp__LoadLibraryW@4      100752d4     kernel32:KERNEL32.dll
 0004:000002d8       __imp__SetLastError@4      100752d8     kernel32:KERNEL32.dll
 0004:000002dc       __imp__GetCurrentThread@0  100752dc     kernel32:KERNEL32.dll
 0004:000002e0       __imp__GetModuleFileNameA@12 100752e0     kernel32:KERNEL32.dll
 0004:000002e4       __imp__QueryPerformanceCounter@4 100752e4     kernel32:KERNEL32.dll
 0004:000002e8       __imp__GetSystemTimeAsFileTime@4 100752e8     kernel32:KERNEL32.dll
 0004:000002ec       __imp__GetTickCount64@0    100752ec     kernel32:KERNEL32.dll
 0004:000002f0       __imp__GetEnvironmentStringsW@0 100752f0     kernel32:KERNEL32.dll
 0004:000002f4       __imp__FreeEnvironmentStringsW@4 100752f4     kernel32:KERNEL32.dll
 0004:000002f8       __imp__HeapSize@12         100752f8     kernel32:KERNEL32.dll
 0004:000002fc       __imp__GetTimeFormatEx@24  100752fc     kernel32:KERNEL32.dll
 0004:00000300       __imp__GetDateFormatEx@28  10075300     kernel32:KERNEL32.dll
 0004:00000304       __imp__CompareStringEx@36  10075304     kernel32:KERNEL32.dll
 0004:00000308       __imp__GetLocaleInfoEx@16  10075308     kernel32:KERNEL32.dll
 0004:0000030c       __imp__GetUserDefaultLocaleName@8 1007530c     kernel32:KERNEL32.dll
 0004:00000310       __imp__LCMapStringEx@36    10075310     kernel32:KERNEL32.dll
 0004:00000314       __imp__IsValidLocaleName@4 10075314     kernel32:KERNEL32.dll
 0004:00000318       __imp__EnumSystemLocalesEx@16 10075318     kernel32:KERNEL32.dll
 0004:0000031c       __imp__GetStringTypeW@16   1007531c     kernel32:KERNEL32.dll
 0004:00000320       __imp__FlushFileBuffers@4  10075320     kernel32:KERNEL32.dll
 0004:00000324       __imp__SetStdHandle@8      10075324     kernel32:KERNEL32.dll
 0004:00000328       __imp__SetFilePointerEx@20 10075328     kernel32:KERNEL32.dll
 0004:0000032c       __imp__CreateFileW@28      1007532c     kernel32:KERNEL32.dll
 0004:00000330       __imp__SetEndOfFile@4      10075330     kernel32:KERNEL32.dll
 0004:00000334       \177KERNEL32_NULL_THUNK_DATA 10075334     kernel32:KERNEL32.dll

 entry point at        0001:0001fdd4

