 Pump2Test0_1_xpc

 Timestamp is 5ab0fac2 (Tue Mar 20 13:12:50 2018)

 Preferred load address is 10000000

 Start         Length     Name                   Class
 0001:00000000 000444c8H .text$mn                CODE
 0002:00000000 00000104H .CRT$XCA                DATA
 0002:00000104 00000104H .CRT$XCZ                DATA
 0002:00000208 00000104H .CRT$XIA                DATA
 0002:0000030c 00000118H .CRT$XIC                DATA
 0002:00000424 00000104H .CRT$XIZ                DATA
 0002:00000528 00000104H .CRT$XPA                DATA
 0002:0000062c 00000109H .CRT$XPX                DATA
 0002:00000738 00000104H .CRT$XPXA               DATA
 0002:0000083c 00000104H .CRT$XPZ                DATA
 0002:00000940 00000104H .CRT$XTA                DATA
 0002:00000a44 00000104H .CRT$XTZ                DATA
 0002:00000b50 00007bb0H .rdata                  DATA
 0002:00008700 000001c9H .rdata$debug            DATA
 0002:000088d0 0000010eH .rdata$sxdata           DATA
 0002:000089e0 00000104H .rtc$IAA                DATA
 0002:00008ae4 00000104H .rtc$IZZ                DATA
 0002:00008be8 00000104H .rtc$TAA                DATA
 0002:00008cec 00000104H .rtc$TZZ                DATA
 0002:00008df0 00000991H .xdata$x                DATA
 0002:00009790 000001e5H .edata                  DATA
 0003:00000000 00005caaH .data                   DATA
 0003:00005cc0 00015724H .bss                    DATA
 0004:00000000 000001b0H .idata$5                DATA
 0004:000001b0 00000014H .idata$2                DATA
 0004:000001c4 00000014H .idata$3                DATA
 0004:000001d8 000001b0H .idata$4                DATA
 0004:00000388 0000076bH .idata$6                DATA

  Address         Publics by Value              Rva+Base       Lib:Object

 0000:00000000       ___guard_fids_table        00000000     <absolute>
 0000:00000000       ___guard_flags             00000000     <absolute>
 0000:00000000       ___guard_fids_count        00000000     <absolute>
 0000:00000000       __except_list              00000000     <absolute>
 0000:00000003       ___safe_se_handler_count   00000003     <absolute>
 0000:00000000       ___ImageBase               10000000     <linker-defined>
 0001:00000410       _Pump2Test0_1              10001410 f   Pump2Test0_1.obj
 0001:00002720       _MdlInitializeSizes        10003720 f   Pump2Test0_1.obj
 0001:00002730       _MdlInitializeSampleTimes  10003730 f   Pump2Test0_1.obj
 0001:00002740       _MdlInitialize             10003740 f   Pump2Test0_1.obj
 0001:00002750       _MdlStart                  10003750 f   Pump2Test0_1.obj
 0001:00002760       _MdlOutputs                10003760 f   Pump2Test0_1.obj
 0001:00002770       _MdlUpdate                 10003770 f   Pump2Test0_1.obj
 0001:00002780       _MdlTerminate              10003780 f   Pump2Test0_1.obj
 0001:00003ca0       _Pump2Test0_1_GetCAPIStaticMap 10004ca0 f   Pump2Test0_1_capi.obj
 0001:00003cb0       _Pump2Test0_1_InitializeDataMapInfo 10004cb0 f   Pump2Test0_1_capi.obj
 0001:00003d40       _rtGetInf                  10004d40 f   rtGetInf.obj
 0001:00003de0       _rtGetInfF                 10004de0 f   rtGetInf.obj
 0001:00003e00       _rtGetMinusInf             10004e00 f   rtGetInf.obj
 0001:00003ea0       _rtGetMinusInfF            10004ea0 f   rtGetInf.obj
 0001:00003f10       _rtGetNaN                  10004f10 f   rtGetNaN.obj
 0001:00003fb0       _rtGetNaNF                 10004fb0 f   rtGetNaN.obj
 0001:00004060       _rt_GetMxIdFromDTypeIdForRSim 10005060 f   rt_logging.obj
 0001:000040c0       _rt_GetMxIdFromDTypeId     100050c0 f   rt_logging.obj
 0001:00004120       _rt_CreateLogVarWithConvert 10005120 f   rt_logging.obj
 0001:00004bd0       _rt_CreateLogVar           10005bd0 f   rt_logging.obj
 0001:00004c60       _rt_CreateStructLogVar     10005c60 f   rt_logging.obj
 0001:00004cd0       _rt_StartDataLoggingWithStartTime 10005cd0 f   rt_logging.obj
 0001:000052c0       _rt_StartDataLogging       100062c0 f   rt_logging.obj
 0001:00005300       _rt_UpdateLogVar           10006300 f   rt_logging.obj
 0001:000066e0       _rt_UpdateStructLogVar     100076e0 f   rt_logging.obj
 0001:00006790       _rt_UpdateTXYLogVars       10007790 f   rt_logging.obj
 0001:000067b0       _rt_UpdateTXXFYLogVars     100077b0 f   rt_logging.obj
 0001:00006c70       _rt_StopDataLoggingImpl    10007c70 f   rt_logging.obj
 0001:00006fd0       _rt_StopDataLogging        10007fd0 f   rt_logging.obj
 0001:0000db80       _rt_FillStateSigInfoFromMMI 1000eb80 f   rt_logging_mmi.obj
 0001:0000df80       _rt_CleanUpForStateLogWithMMI 1000ef80 f   rt_logging_mmi.obj
 0001:0000e220       _rt_GetLookupIndex         1000f220 f   rt_look.obj
 0001:0000e3a0       _rt_Lookup                 1000f3a0 f   rt_look1d.obj
 0001:0000e470       _rt_mxCreateCharMatrixFromStrings 1000f470 f   rt_matrx.obj
 0001:0000e5f0       _rt_mxCreateString         1000f5f0 f   rt_matrx.obj
 0001:0000e6b0       _rt_mxCreateDoubleMatrix   1000f6b0 f   rt_matrx.obj
 0001:0000e710       _rt_mxCreateNumericArray   1000f710 f   rt_matrx.obj
 0001:0000e760       _rt_mxDuplicateArray       1000f760 f   rt_matrx.obj
 0001:0000e7e0       _rt_mxGetDimensions        1000f7e0 f   rt_matrx.obj
 0001:0000e830       _rt_mxGetEps               1000f830 f   rt_matrx.obj
 0001:0000e840       _rt_mxGetString            1000f840 f   rt_matrx.obj
 0001:0000ea20       _rt_InitInfAndNaN          1000fa20 f   rt_nonfinite.obj
 0001:0000ea70       _rtIsInf                   1000fa70 f   rt_nonfinite.obj
 0001:0000eac0       _rtIsInfF                  1000fac0 f   rt_nonfinite.obj
 0001:0000eb00       _rtIsNaN                   1000fb00 f   rt_nonfinite.obj
 0001:0000eb30       _rtIsNaNF                  1000fb30 f   rt_nonfinite.obj
 0001:0000ebb0       _rtPrintfNoOp              1000fbb0 f   rt_printf.obj
 0001:0000ebe0       _rtwCAPI_EncodePath        1000fbe0 f   rtw_modelmap_utils.obj
 0001:0000ed30       _rtwCAPI_HasStates         1000fd30 f   rtw_modelmap_utils.obj
 0001:0000eda0       _rtwCAPI_GetNumStateRecords 1000fda0 f   rtw_modelmap_utils.obj
 0001:0000ee10       _rtwCAPI_GetNumStateRecordsForRTWLogging 1000fe10 f   rtw_modelmap_utils.obj
 0001:0000eee0       _rtwCAPI_GetNumContStateRecords 1000fee0 f   rtw_modelmap_utils.obj
 0001:0000efe0       _rtwCAPI_FreeFullPaths     1000ffe0 f   rtw_modelmap_utils.obj
 0001:0000f080       _rtwCAPI_UpdateFullPaths   10010080 f   rtw_modelmap_utils.obj
 0001:0000f290       _rtwCAPI_GetFullStateBlockPath 10010290 f   rtw_modelmap_utils.obj
 0001:0000f410       _rtwCAPI_GetStateWidth     10010410 f   rtw_modelmap_utils.obj
 0001:0000f480       _rtwCAPI_GetStateRecordInfo 10010480 f   rtw_modelmap_utils.obj
 0001:0000fa20       _rtwCAPI_GetNumSigLogRecords 10010a20 f   rtw_modelmap_utils.obj
 0001:0000fa90       _rtwCAPI_GetNumSigLogRecordsForRTWLogging 10010a90 f   rtw_modelmap_utils.obj
 0001:0000fb70       _rtwCAPI_GetSigLogRecordInfo 10010b70 f   rtw_modelmap_utils.obj
 0001:00010010       _rtwCAPI_CountSysRan       10011010 f   rtw_modelmap_utils.obj
 0001:000100d0       _rtwCAPI_FillSysRan        100110d0 f   rtw_modelmap_utils.obj
 0001:000101d0       _rtwCAPI_GetSigAddrFromMap 100111d0 f   rtw_modelmap_utils.obj
 0001:00010940       _Pump2Test0_1_ChangeStepSize 10011940 f   xpctarget.obj
 0001:000109b0       _changeStepSize            100119b0 f   xpctarget.obj
 0001:000109d0       _SLRTSetErrorStatus        100119d0 f   xpctarget.obj
 0001:000109e0       _updateDiscreteEvents      100119e0 f   xpctarget.obj
 0001:000109f0       _DllMain@12                100119f0 f   xpctarget.obj
 0001:00010a00       _getrlmdlinfo              10011a00 f   xpctarget.obj
 0001:00010c10       _getDLMVersion             10011c10 f   xpctarget.obj
 0001:00010c20       _getRefMdlPath             10011c20 f   xpctarget.obj
 0001:00010c80       _getRefMdlSignalNumber     10011c80 f   xpctarget.obj
 0001:00010e00       _getNumRef                 10011e00 f   appmappingData.obj
 0001:00011ac0       _adnipcim                  10012ac0 f   adnipcim.obj
 0001:00012890       _danipcim                  10013890 f   danipcim.obj
 0001:00012b80       _niMIdentify               10013b80 f   xpcionim.obj
 0001:00012cb0       _niMconfig                 10013cb0 f   xpcionim.obj
 0001:00012db0       _niM_AISetup               10013db0 f   xpcionim.obj
 0001:000133b0       _niM_aiConfigureChannel    100143b0 f   xpcionim.obj
 0001:00013430       _niM_configureTimebase     10014430 f   xpcionim.obj
 0001:00013460       _niM_pllReset              10014460 f   xpcionim.obj
 0001:000134b0       _niM_analogTriggerReset    100144b0 f   xpcionim.obj
 0001:00013540       _niM_Private_Data          10014540 f   xpcionim.obj
 0001:000136d0       _niM_SetPFIFilter          100146d0 f   xpcionim.obj
 0001:00013770       _niM_SetPFI_Select         10014770 f   xpcionim.obj
 0001:00013810       _niM_SetPFI_DO             10014810 f   xpcionim.obj
 0001:00013860       _niM_whichBank             10014860 f   xpcionim.obj
 0001:000138b0       _niM_resetCtr              100148b0 f   xpcionim.obj
 0001:000138e0       _niM_Cont_Pulse_Train_Generation 100148e0 f   xpcionim.obj
 0001:00013b20       _niM_CtrArm                10014b20 f   xpcionim.obj
 0001:00013b50       _niM_CtrDisarm             10014b50 f   xpcionim.obj
 0001:00013b80       _niM_PeriodConfigure       10014b80 f   xpcionim.obj
 0001:00013de0       _niM_CtrReadArm            10014de0 f   xpcionim.obj
 0001:00013e10       _niM_CtrReadDisarm         10014e10 f   xpcionim.obj
 0001:00013e40       _niM_Counter_Reset_All     10014e40 f   xpcionim.obj
 0001:00013f20       _niM_eepromReadMSeries     10014f20 f   xpcionim.obj
 0001:00014060       _niM_aiGetScalingCoefficients 10015060 f   xpcionim.obj
 0001:000141e0       _niM_aoGetScalingCoefficients 100151e0 f   xpcionim.obj
 0001:00014280       _niM_aiPolynomialScaler    10015280 f   xpcionim.obj
 0001:000142f0       _niM_aoLinearScaler        100152f0 f   xpcionim.obj
 0001:00014320       _niM_AO_Setup              10015320 f   xpcionim.obj
 0001:00014540       _niM_aoConfigureDAC        10015540 f   xpcionim.obj
 0001:00014cf0       _ShowPCIDevice             10015cf0 f   xpcruntime:xpcimports.obj
 0001:00014e00       _GetPCIDeviceFull          10015e00 f   xpcruntime:xpcimports.obj
 0001:00014e60       _xpcGetPciConfigAtSlot     10015e60 f   xpcruntime:xpcimports.obj
 0001:00015220       _xpceuploadevent           10016220 f   xpcruntime:xpcimports.obj
 0001:000156e0       _xpcInitProcs              100166e0 f   xpcruntime:xpcimports.obj
 0001:0001699f       __heap_alloc               1001799f f i LIBCMT:malloc.obj
 0001:000169dc       _malloc                    100179dc f   LIBCMT:malloc.obj
 0001:00016a70       _memset                    10017a70 f   LIBCMT:memset.obj
 0001:00016b00       __get_printf_count_output  10017b00 f   LIBCMT:printf.obj
 0001:00016b15       __printf_l                 10017b15 f   LIBCMT:printf.obj
 0001:00016b2c       __printf_p                 10017b2c f   LIBCMT:printf.obj
 0001:00016b42       __printf_p_l               10017b42 f   LIBCMT:printf.obj
 0001:00016b59       __printf_s_l               10017b59 f   LIBCMT:printf.obj
 0001:00016b70       __set_printf_count_output  10017b70 f   LIBCMT:printf.obj
 0001:00016b98       _printf                    10017b98 f   LIBCMT:printf.obj
 0001:00016c47       _printf_s                  10017c47 f   LIBCMT:printf.obj
 0001:00016c5d       __fpmath                   10017c5d f   LIBCMT:fpinit.obj
 0001:00016c74       ___setfflag                10017c74 f   LIBCMT:fpinit.obj
 0001:00016c87       __cfltcvt_init             10017c87 f   LIBCMT:fpinit.obj
 0001:00016ce7       ___raise_securityfailure   10017ce7 f   LIBCMT:gs_report.obj
 0001:00016d24       ___report_gsfailure        10017d24 f   LIBCMT:gs_report.obj
 0001:00016e1f       ___report_rangecheckfailure 10017e1f f   LIBCMT:gs_report.obj
 0001:00016e2b       ___report_securityfailure  10017e2b f   LIBCMT:gs_report.obj
 0001:00016efb       ___report_securityfailureEx 10017efb f   LIBCMT:gs_report.obj
 0001:00017011       ___copy_path_to_wide_string 10018011 f   LIBCMT:crt0dat.obj
 0001:000170c3       ___copy_to_char            100180c3 f   LIBCMT:crt0dat.obj
 0001:00017178       ___crtCorExitProcess       10018178 f   LIBCMT:crt0dat.obj
 0001:000171ac       ___crtExitProcess          100181ac f   LIBCMT:crt0dat.obj
 0001:000171c2       ___freeCrtMemory           100181c2 f   LIBCMT:crt0dat.obj
 0001:000172cf       __amsg_exit                100182cf f   LIBCMT:crt0dat.obj
 0001:000172eb       __c_exit                   100182eb f   LIBCMT:crt0dat.obj
 0001:000172fa       __cexit                    100182fa f   LIBCMT:crt0dat.obj
 0001:00017309       __cinit                    10018309 f   LIBCMT:crt0dat.obj
 0001:0001738d       __exit                     1001838d f   LIBCMT:crt0dat.obj
 0001:000173a1       __exit_app                 100183a1 f   LIBCMT:crt0dat.obj
 0001:000173af       __get_pgmptr               100183af f   LIBCMT:crt0dat.obj
 0001:000173de       __get_wpgmptr              100183de f   LIBCMT:crt0dat.obj
 0001:0001740d       __init_pointers            1001840d f   LIBCMT:crt0dat.obj
 0001:0001747b       __initterm_e               1001847b f   LIBCMT:crt0dat.obj
 0001:0001749d       __lockexit                 1001849d f   LIBCMT:crt0dat.obj
 0001:000174a6       __unlockexit               100184a6 f   LIBCMT:crt0dat.obj
 0001:000175de       _exit                      100185de f   LIBCMT:crt0dat.obj
 0001:000175f2       _calloc                    100185f2 f   LIBCMT:calloc.obj
 0001:00017632       _free                      10018632 f   LIBCMT:free.obj
 0001:0001766a       _realloc                   1001866a f   LIBCMT:realloc.obj
 0001:00017720       _memcpy                    10018720 f   LIBCMT:memcpy.obj
 0001:00017d70       _strcmp                    10018d70 f   LIBCMT:strcmp.obj
 0001:00017e00       _strlen                    10018e00 f   LIBCMT:strlen.obj
 0001:00017e90       _memmove                   10018e90 f   LIBCMT:memmove.obj
 0001:000184e0       _strchr                    100194e0 f   LIBCMT:strchr.obj
 0001:0001854e       ___from_strstr_to_strchr   1001954e     LIBCMT:strchr.obj
 0001:00018610       _strncat                   10019610 f   LIBCMT:strncat.obj
 0001:00018750       _strncpy                   10019750 f   LIBCMT:strncpy.obj
 0001:00018874       ___initstdio               10019874 f   LIBCMT:_file.obj
 0001:000188e7       ___endstdio                100198e7 f   LIBCMT:_file.obj
 0001:0001890e       ___iob_func                1001990e f   LIBCMT:_file.obj
 0001:00018914       __lock_file                10019914 f   LIBCMT:_file.obj
 0001:00018953       __lock_file2               10019953 f   LIBCMT:_file.obj
 0001:00018983       __unlock_file              10019983 f   LIBCMT:_file.obj
 0001:000189bd       __unlock_file2             100199bd f   LIBCMT:_file.obj
 0001:000189ea       __fclose_nolock            100199ea f   LIBCMT:fclose.obj
 0001:00018a56       _fclose                    10019a56 f   LIBCMT:fclose.obj
 0001:00018acd       __fsopen                   10019acd f   LIBCMT:fopen.obj
 0001:00018b91       _fopen                     10019b91 f   LIBCMT:fopen.obj
 0001:00018ba6       _fopen_s                   10019ba6 f   LIBCMT:fopen.obj
 0001:00018beb       __fprintf_l                10019beb f   LIBCMT:fprintf.obj
 0001:00018c05       __fprintf_p                10019c05 f   LIBCMT:fprintf.obj
 0001:00018c1e       __fprintf_p_l              10019c1e f   LIBCMT:fprintf.obj
 0001:00018c38       __fprintf_s_l              10019c38 f   LIBCMT:fprintf.obj
 0001:00018c52       _fprintf                   10019c52 f   LIBCMT:fprintf.obj
 0001:00018d64       _fprintf_s                 10019d64 f   LIBCMT:fprintf.obj
 0001:00018d7d       __fread_nolock             10019d7d f   LIBCMT:fread.obj
 0001:00018d98       __fread_nolock_s           10019d98 f   LIBCMT:fread.obj
 0001:00018f5d       _fread                     10019f5d f   LIBCMT:fread.obj
 0001:00018f78       _fread_s                   10019f78 f   LIBCMT:fread.obj
 0001:00019009       __fwrite_nolock            1001a009 f   LIBCMT:fwrite.obj
 0001:00019162       _fwrite                    1001a162 f   LIBCMT:fwrite.obj
 0001:000191e4       __unlink                   1001a1e4 f   LIBCMT:unlink.obj
 0001:000191ed       _remove                    1001a1ed f   LIBCMT:unlink.obj
 0001:0001922f       _rewind                    1001a22f f   LIBCMT:rewind.obj
 0001:000192ee       __scprintf                 1001a2ee f   LIBCMT:sprintf.obj
 0001:00019301       __scprintf_l               1001a301 f   LIBCMT:sprintf.obj
 0001:00019318       __scprintf_p               1001a318 f   LIBCMT:sprintf.obj
 0001:0001932b       __scprintf_p_l             1001a32b f   LIBCMT:sprintf.obj
 0001:00019342       __snprintf_s               1001a342 f   LIBCMT:sprintf.obj
 0001:00019361       __snprintf_s_l             1001a361 f   LIBCMT:sprintf.obj
 0001:00019381       __sprintf_l                1001a381 f   LIBCMT:sprintf.obj
 0001:0001939b       __sprintf_p                1001a39b f   LIBCMT:sprintf.obj
 0001:000193b7       __sprintf_p_l              1001a3b7 f   LIBCMT:sprintf.obj
 0001:000193d4       __sprintf_s_l              1001a3d4 f   LIBCMT:sprintf.obj
 0001:000193f1       _sprintf                   1001a3f1 f   LIBCMT:sprintf.obj
 0001:00019475       _sprintf_s                 1001a475 f   LIBCMT:sprintf.obj
 0001:000194a0       _floor                     1001a4a0 f   LIBCMT:floor_pentium4.obj
 0001:000194e0       __floor_pentium4           1001a4e0 f   LIBCMT:floor_pentium4.obj
 0001:000195c1       _ldexp                     1001a5c1 f   LIBCMT:ldexp.obj
 0001:000197ad       @__security_check_cookie@4 1001a7ad f   LIBCMT:secchk.obj
 0001:000197c0       __ftoui3                   1001a7c0 f   LIBCMT:ftol3.obj
 0001:000197cf       __ftoul3                   1001a7cf f   LIBCMT:ftol3.obj
 0001:000197de       __ftol3                    1001a7de f   LIBCMT:ftol3.obj
 0001:000197eb       __ftol3_NaN                1001a7eb f   LIBCMT:ftol3.obj
 0001:00019803       __ftol3_work               1001a803 f   LIBCMT:ftol3.obj
 0001:00019889       __ftol3_common             1001a889 f   LIBCMT:ftol3.obj
 0001:0001994b       __ftol3_arg_error          1001a94b f   LIBCMT:ftol3.obj
 0001:0001995d       __ftol3_except             1001a95d f   LIBCMT:ftol3.obj
 0001:000199a1       __dtoui3                   1001a9a1 f   LIBCMT:ftol3.obj
 0001:000199b0       __dtoul3                   1001a9b0 f   LIBCMT:ftol3.obj
 0001:000199bf       __dtol3                    1001a9bf f   LIBCMT:ftol3.obj
 0001:000199cc       __dtol3_NaN                1001a9cc f   LIBCMT:ftol3.obj
 0001:000199e9       __dtol3_work               1001a9e9 f   LIBCMT:ftol3.obj
 0001:00019ace       __ultod3                   1001aace f   LIBCMT:ftol3.obj
 0001:00019b5f       __ltod3                    1001ab5f f   LIBCMT:ftol3.obj
 0001:00019b8d       __invoke_watson_if_error   1001ab8d f i LIBCMT:wassert.obj
 0001:00019bad       __wassert                  1001abad f   LIBCMT:wassert.obj
 0001:0001a260       _strcpy                    1001b260 f   LIBCMT:strcat.obj
 0001:0001a270       _strcat                    1001b270 f   LIBCMT:strcat.obj
 0001:0001a358       __CRT_INIT@12              1001b358 f   LIBCMT:dllcrt0.obj
 0001:0001a4ca       __DllMainCRTStartup@12     1001b4ca f   LIBCMT:dllcrt0.obj
 0001:0001a5fb       ___DllXcptFilter           1001b5fb f   LIBCMT:dllcrt0.obj
 0001:0001a620       ?_query_new_handler@@YAP6AHI@ZXZ 1001b620 f   LIBCMT:handler.obj
 0001:0001a62d       ?_set_new_handler@@YAP6AHI@ZH@Z 1001b62d f   LIBCMT:handler.obj
 0001:0001a636       ?_set_new_handler@@YAP6AHI@ZP6AHI@Z@Z 1001b636 f   LIBCMT:handler.obj
 0001:0001a66b       __callnewh                 1001b66b f   LIBCMT:handler.obj
 0001:0001a691       __initp_heap_handler       1001b691 f   LIBCMT:handler.obj
 0001:0001a69e       __FF_MSGBANNER             1001b69e f   LIBCMT:crt0msg.obj
 0001:0001a6d7       __GET_RTERRMSG             1001b6d7 f   LIBCMT:crt0msg.obj
 0001:0001a6fb       __NMSG_WRITE               1001b6fb f   LIBCMT:crt0msg.obj
 0001:0001a8b8       ___doserrno                1001b8b8 f   LIBCMT:dosmap.obj
 0001:0001a8cb       __dosmaperr                1001b8cb f   LIBCMT:dosmap.obj
 0001:0001a8ec       __errno                    1001b8ec f   LIBCMT:dosmap.obj
 0001:0001a8ff       __get_doserrno             1001b8ff f   LIBCMT:dosmap.obj
 0001:0001a922       __get_errno                1001b922 f   LIBCMT:dosmap.obj
 0001:0001a945       __get_errno_from_oserr     1001b945 f   LIBCMT:dosmap.obj
 0001:0001a986       __set_doserrno             1001b986 f   LIBCMT:dosmap.obj
 0001:0001a9a5       __set_errno                1001b9a5 f   LIBCMT:dosmap.obj
 0001:0001a9c4       __get_heap_handle          1001b9c4 f   LIBCMT:heapinit.obj
 0001:0001a9ca       __heap_init                1001b9ca f   LIBCMT:heapinit.obj
 0001:0001a9df       __heap_term                1001b9df f   LIBCMT:heapinit.obj
 0001:0001a9e7       __VEC_memset               1001b9e7 f   LIBCMT:p4_memset.obj
 0001:0001aaaf       ___isa_available_init      1001baaf f   LIBCMT:cpu_disp.obj
 0001:0001ac28       ?_invalid_parameter@@YAXPBG00II@Z 1001bc28 f   LIBCMT:invarg.obj
 0001:0001ac2d       ?_invoke_watson@@YAXPBG00II@Z 1001bc2d f   LIBCMT:invarg.obj
 0001:0001ac45       __call_reportfault         1001bc45 f   LIBCMT:invarg.obj
 0001:0001ad6a       __get_invalid_parameter_handler 1001bd6a f   LIBCMT:invarg.obj
 0001:0001ad77       __initp_misc_invarg        1001bd77 f   LIBCMT:invarg.obj
 0001:0001ad84       __invalid_parameter        1001bd84 f   LIBCMT:invarg.obj
 0001:0001adaf       __invalid_parameter_noinfo 1001bdaf f   LIBCMT:invarg.obj
 0001:0001adbf       __invalid_parameter_noinfo_noreturn 1001bdbf f   LIBCMT:invarg.obj
 0001:0001adda       __invoke_watson            1001bdda f   LIBCMT:invarg.obj
 0001:0001ae05       __set_invalid_parameter_handler 1001be05 f   LIBCMT:invarg.obj
 0001:0001ae2a       __vprintf_l                1001be2a f   LIBCMT:vprintf.obj
 0001:0001ae45       __vprintf_p                1001be45 f   LIBCMT:vprintf.obj
 0001:0001ae5f       __vprintf_p_l              1001be5f f   LIBCMT:vprintf.obj
 0001:0001ae7a       __vprintf_s_l              1001be7a f   LIBCMT:vprintf.obj
 0001:0001ae95       _vprintf                   1001be95 f   LIBCMT:vprintf.obj
 0001:0001aeaf       _vprintf_helper            1001beaf f   LIBCMT:vprintf.obj
 0001:0001af3c       _vprintf_s                 1001bf3c f   LIBCMT:vprintf.obj
 0001:0001af56       __ftbuf                    1001bf56 f   LIBCMT:_sftbuf.obj
 0001:0001af87       __stbuf                    1001bf87 f   LIBCMT:_sftbuf.obj
 0001:0001b02d       ??0_LocaleUpdate@@QAE@PAUlocaleinfo_struct@@@Z 1001c02d f i LIBCMT:output.obj
 0001:0001b0b5       ??1_LocaleUpdate@@QAE@XZ   1001c0b5 f i LIBCMT:output.obj
 0001:0001b0c3       ?GetLocaleT@_LocaleUpdate@@QAEPAUlocaleinfo_struct@@XZ 1001c0c3 f i LIBCMT:output.obj
 0001:0001b0c6       __output_l                 1001c0c6 f   LIBCMT:output.obj
 0001:0001bc46       _get_int64_arg             1001cc46 f i LIBCMT:output.obj
 0001:0001bc59       _get_int_arg               1001cc59 f i LIBCMT:output.obj
 0001:0001bc69       _get_short_arg             1001cc69 f i LIBCMT:output.obj
 0001:0001bd70       __SEH_prolog4              1001cd70 f   LIBCMT:sehprolg4.obj
 0001:0001bdb5       __SEH_epilog4              1001cdb5 f   LIBCMT:sehprolg4.obj
 0001:0001be10       __except_handler4          1001ce10 f   LIBCMT:chandler4.obj
 0001:0001bfa4       ?strrchr@@YAPADPADH@Z      1001cfa4 f i LIBCMT:cvt.obj
 0001:0001bfad       __cfltcvt                  1001cfad f   LIBCMT:cvt.obj
 0001:0001bfce       __cfltcvt_l                1001cfce f   LIBCMT:cvt.obj
 0001:0001c054       __cftoa                    1001d054 f   LIBCMT:cvt.obj
 0001:0001c072       __cftoa_l                  1001d072 f   LIBCMT:cvt.obj
 0001:0001c3ce       __cftoe                    1001d3ce f   LIBCMT:cvt.obj
 0001:0001c53d       __cftoe_l                  1001d53d f   LIBCMT:cvt.obj
 0001:0001c60b       __cftof                    1001d60b f   LIBCMT:cvt.obj
 0001:0001c712       __cftof_l                  1001d712 f   LIBCMT:cvt.obj
 0001:0001c7d3       __cftog                    1001d7d3 f   LIBCMT:cvt.obj
 0001:0001c7f1       __cftog_l                  1001d7f1 f   LIBCMT:cvt.obj
 0001:0001c8f0       __cropzeros                1001d8f0 f   LIBCMT:cvt.obj
 0001:0001c901       __cropzeros_l              1001d901 f   LIBCMT:cvt.obj
 0001:0001c981       __fassign                  1001d981 f   LIBCMT:cvt.obj
 0001:0001c999       __fassign_l                1001d999 f   LIBCMT:cvt.obj
 0001:0001c9db       __forcdecpt                1001d9db f   LIBCMT:cvt.obj
 0001:0001c9ec       __forcdecpt_l              1001d9ec f   LIBCMT:cvt.obj
 0001:0001ca60       __positive                 1001da60 f   LIBCMT:cvt.obj
 0001:0001caa2       __setdefaultprecision      1001daa2 f   LIBCMT:fp8.obj
 0001:0001cac9       __initp_misc_cfltcvt_tab   1001dac9 f   LIBCMT:cmiscdat.obj
 0001:0001cae8       __crt_debugger_hook        1001dae8 f   LIBCMT:dbghook.obj
 0001:0001cb1d       ___crtCloseThreadpoolTimer 1001db1d f   LIBCMT:winapisupp.obj
 0001:0001cb34       ___crtCloseThreadpoolWait  1001db34 f   LIBCMT:winapisupp.obj
 0001:0001cb4b       ___crtCreateEventExW       1001db4b f   LIBCMT:winapisupp.obj
 0001:0001cb86       ___crtCreateSemaphoreExW   1001db86 f   LIBCMT:winapisupp.obj
 0001:0001cbc0       ___crtCreateSymbolicLinkW  1001dbc0 f   LIBCMT:winapisupp.obj
 0001:0001cbe9       ___crtCreateThreadpoolTimer 1001dbe9 f   LIBCMT:winapisupp.obj
 0001:0001cc0a       ___crtCreateThreadpoolWait 1001dc0a f   LIBCMT:winapisupp.obj
 0001:0001cc2b       ___crtFlsAlloc             1001dc2b f   LIBCMT:winapisupp.obj
 0001:0001cc49       ___crtFlsFree              1001dc49 f   LIBCMT:winapisupp.obj
 0001:0001cc68       ___crtFlsGetValue          1001dc68 f   LIBCMT:winapisupp.obj
 0001:0001cc87       ___crtFlsSetValue          1001dc87 f   LIBCMT:winapisupp.obj
 0001:0001cca9       ___crtFlushProcessWriteBuffers 1001dca9 f   LIBCMT:winapisupp.obj
 0001:0001ccb9       ___crtFreeLibraryWhenCallbackReturns 1001dcb9 f   LIBCMT:winapisupp.obj
 0001:0001ccd3       ___crtGetCurrentProcessorNumber 1001dcd3 f   LIBCMT:winapisupp.obj
 0001:0001cce5       ___crtGetFileInformationByHandleEx 1001dce5 f   LIBCMT:winapisupp.obj
 0001:0001cd11       ___crtGetLogicalProcessorInformation 1001dd11 f   LIBCMT:winapisupp.obj
 0001:0001cd37       ___crtGetShowWindowMode    1001dd37 f   LIBCMT:winapisupp.obj
 0001:0001cd5a       ___crtGetTickCount64       1001dd5a f   LIBCMT:winapisupp.obj
 0001:0001cd72       ___crtInitializeCriticalSectionEx 1001dd72 f   LIBCMT:winapisupp.obj
 0001:0001cda0       ___crtIsPackagedApp        1001dda0 f   LIBCMT:winapisupp.obj
 0001:0001cde0       ___crtLoadWinApiPointers   1001dde0 f   LIBCMT:winapisupp.obj
 0001:0001d06b       ___crtSetFileInformationByHandle 1001e06b f   LIBCMT:winapisupp.obj
 0001:0001d097       ___crtSetThreadStackGuarantee 1001e097 f   LIBCMT:winapisupp.obj
 0001:0001d0b2       ___crtSetThreadpoolTimer   1001e0b2 f   LIBCMT:winapisupp.obj
 0001:0001d0d2       ___crtSetThreadpoolWait    1001e0d2 f   LIBCMT:winapisupp.obj
 0001:0001d0ef       ___crtSetUnhandledExceptionFilter 1001e0ef f   LIBCMT:winapisupp.obj
 0001:0001d0fd       ___crtSleep                1001e0fd f   LIBCMT:winapisupp.obj
 0001:0001d10b       ___crtTerminateProcess     1001e10b f   LIBCMT:winapisupp.obj
 0001:0001d120       ___crtUnhandledException   1001e120 f   LIBCMT:winapisupp.obj
 0001:0001d136       ___crtWaitForThreadpoolTimerCallbacks 1001e136 f   LIBCMT:winapisupp.obj
 0001:0001d150       __RTC_Initialize           1001e150 f   LIBCMT:initsect.obj
 0001:0001d170       __RTC_Terminate            1001e170 f   LIBCMT:initsect.obj
 0001:0001d190       __lock                     1001e190 f   LIBCMT:mlock.obj
 0001:0001d1c4       __lockerr_exit             1001e1c4 f   LIBCMT:mlock.obj
 0001:0001d1e4       __mtdeletelocks            1001e1e4 f   LIBCMT:mlock.obj
 0001:0001d238       __mtinitlocknum            1001e238 f   LIBCMT:mlock.obj
 0001:0001d2e1       __mtinitlocks              1001e2e1 f   LIBCMT:mlock.obj
 0001:0001d31a       __unlock                   1001e31a f   LIBCMT:mlock.obj
 0001:0001d330       __FindPESection            1001e330 f   LIBCMT:pesect.obj
 0001:0001d380       __IsNonwritableInCurrentImage 1001e380 f   LIBCMT:pesect.obj
 0001:0001d440       __ValidateImageBase        1001e440 f   LIBCMT:pesect.obj
 0001:0001d471       ___onexitinit              1001e471 f   LIBCMT:onexit.obj
 0001:0001d4a0       __onexit                   1001e4a0 f   LIBCMT:onexit.obj
 0001:0001d59c       _atexit                    1001e59c f   LIBCMT:onexit.obj
 0001:0001d5b1       __calloc_crt               1001e5b1 f   LIBCMT:crtheap.obj
 0001:0001d5f9       __malloc_crt               1001e5f9 f   LIBCMT:crtheap.obj
 0001:0001d640       __realloc_crt              1001e640 f   LIBCMT:crtheap.obj
 0001:0001d68a       __recalloc_crt             1001e68a f   LIBCMT:crtheap.obj
 0001:0001d6d8       __set_malloc_crt_max_wait  1001e6d8 f   LIBCMT:crtheap.obj
 0001:0001d6eb       _wait_a_bit                1001e6eb f i LIBCMT:crtheap.obj
 0001:0001d70f       ?_inconsistency@@YAXXZ     1001e70f f   LIBCMT:hooks.obj
 0001:0001d747       ?terminate@@YAXXZ          1001e747 f   LIBCMT:hooks.obj
 0001:0001d77b       ?unexpected@@YAXXZ         1001e77b f   LIBCMT:hooks.obj
 0001:0001d78e       __initp_eh_hooks           1001e78e f   LIBCMT:hooks.obj
 0001:0001d79f       ___getlocaleinfo           1001e79f f   LIBCMT:inithelp.obj
 0001:0001d978       __initp_misc_purevirt      1001e978 f   LIBCMT:inithelp.obj
 0001:0001d985       ___fpecode                 1001e985 f   LIBCMT:winsig.obj
 0001:0001d98e       ___get_sigabrt             1001e98e f   LIBCMT:winsig.obj
 0001:0001d99b       ___pxcptinfoptrs           1001e99b f   LIBCMT:winsig.obj
 0001:0001d9a4       __initp_misc_winsig        1001e9a4 f   LIBCMT:winsig.obj
 0001:0001da65       _raise                     1001ea65 f   LIBCMT:winsig.obj
 0001:0001dc5a       _signal                    1001ec5a f   LIBCMT:winsig.obj
 0001:0001deb1       __initp_misc_rand_s        1001eeb1 f   LIBCMT:rand_s.obj
 0001:0001debe       _rand_s                    1001eebe f   LIBCMT:rand_s.obj
 0001:0001dfc4       ___initmbctable            1001efc4 f   LIBCMT:mbctype.obj
 0001:0001e27b       ___updatetmbcinfo          1001f27b f   LIBCMT:mbctype.obj
 0001:0001e321       __getmbcp                  1001f321 f   LIBCMT:mbctype.obj
 0001:0001e352       __setmbcp                  1001f352 f   LIBCMT:mbctype.obj
 0001:0001e4fa       __setmbcp_nolock           1001f4fa f   LIBCMT:mbctype.obj
 0001:0001e6e5       __calloc_impl              1001f6e5 f   LIBCMT:calloc_impl.obj
 0001:0001e75f       __fcloseall                1001f75f f   LIBCMT:closeall.obj
 0001:0001e7fc       __fflush_nolock            1001f7fc f   LIBCMT:fflush.obj
 0001:0001e842       __flush                    1001f842 f   LIBCMT:fflush.obj
 0001:0001e8a6       __flushall                 1001f8a6 f   LIBCMT:fflush.obj
 0001:0001e8af       _fflush                    1001f8af f   LIBCMT:fflush.obj
 0001:0001e9ec       __fileno                   1001f9ec f   LIBCMT:fileno.obj
 0001:0001ea10       __close                    1001fa10 f   LIBCMT:close.obj
 0001:0001eaeb       __close_nolock             1001faeb f   LIBCMT:close.obj
 0001:0001eb85       __freebuf                  1001fb85 f   LIBCMT:_freebuf.obj
 0001:0001ebb5       __getstream                1001fbb5 f   LIBCMT:stream.obj
 0001:0001ecd4       __openfile                 1001fcd4 f   LIBCMT:_open.obj
 0001:0001ef50       __local_unwind4            1001ff50 f   LIBCMT:exsup4.obj
 0001:0001f026       __seh_longjmp_unwind4@4    10020026 f   LIBCMT:exsup4.obj
 0001:0001f042       @_EH4_CallFilterFunc@8     10020042 f   LIBCMT:exsup4.obj
 0001:0001f059       @_EH4_TransferToHandler@8  10020059 f   LIBCMT:exsup4.obj
 0001:0001f072       @_EH4_GlobalUnwind2@8      10020072 f   LIBCMT:exsup4.obj
 0001:0001f08b       @_EH4_LocalUnwind@16       1002008b f   LIBCMT:exsup4.obj
 0001:0001f0a2       __vfprintf_l               100200a2 f   LIBCMT:vfprintf.obj
 0001:0001f0c0       __vfprintf_p               100200c0 f   LIBCMT:vfprintf.obj
 0001:0001f0dd       __vfprintf_p_l             100200dd f   LIBCMT:vfprintf.obj
 0001:0001f0fb       __vfprintf_s_l             100200fb f   LIBCMT:vfprintf.obj
 0001:0001f119       _vfprintf                  10020119 f   LIBCMT:vfprintf.obj
 0001:0001f136       _vfprintf_helper           10020136 f   LIBCMT:vfprintf.obj
 0001:0001f247       _vfprintf_s                10020247 f   LIBCMT:vfprintf.obj
 0001:0001f264       __ioinit                   10020264 f   LIBCMT:ioinit.obj
 0001:0001f518       __ioterm                   10020518 f   LIBCMT:ioinit.obj
 0001:0001f56a       __filbuf                   1002056a f   LIBCMT:_filbuf.obj
 0001:0001f68b       _memcpy_s                  1002068b f   LIBCMT:memcpy_s.obj
 0001:0001f70a       __read                     1002070a f   LIBCMT:read.obj
 0001:0001f81e       __read_nolock              1002081e f   LIBCMT:read.obj
 0001:0001ffaf       __flsbuf                   10020faf f   LIBCMT:_flsbuf.obj
 0001:000200fe       __write                    100210fe f   LIBCMT:write.obj
 0001:000201ed       __write_nolock             100211ed f   LIBCMT:write.obj
 0001:00020a52       __wremove                  10021a52 f   LIBCMT:wunlink.obj
 0001:00020a80       __wunlink                  10021a80 f   LIBCMT:wunlink.obj
 0001:00020a89       __lseek                    10021a89 f   LIBCMT:lseek.obj
 0001:00020b78       __lseek_nolock             10021b78 f   LIBCMT:lseek.obj
 0001:00020c1f       __vscprintf                10021c1f f   LIBCMT:vsprintf.obj
 0001:00020c39       __vscprintf_helper         10021c39 f   LIBCMT:vsprintf.obj
 0001:00020c95       __vscprintf_l              10021c95 f   LIBCMT:vsprintf.obj
 0001:00020cb0       __vscprintf_p              10021cb0 f   LIBCMT:vsprintf.obj
 0001:00020cca       __vscprintf_p_l            10021cca f   LIBCMT:vsprintf.obj
 0001:00020ce5       __vsprintf_l               10021ce5 f   LIBCMT:vsprintf.obj
 0001:00020d69       _vsprintf                  10021d69 f   LIBCMT:vsprintf.obj
 0001:00020d81       __vsnprintf_c              10021d81 f   LIBCMT:vsnprnc.obj
 0001:00020da8       __vsnprintf_c_l            10021da8 f   LIBCMT:vsnprnc.obj
 0001:00020dd0       __vsnprintf_helper         10021dd0 f   LIBCMT:vsnprnc.obj
 0001:00020e9a       __vsnprintf_s              10021e9a f   LIBCMT:vsnprnc.obj
 0001:00020eb8       __vsnprintf_s_l            10021eb8 f   LIBCMT:vsnprnc.obj
 0001:00020fb8       __vsprintf_p               10021fb8 f   LIBCMT:vsnprnc.obj
 0001:00020fdf       __vsprintf_p_l             10021fdf f   LIBCMT:vsnprnc.obj
 0001:00021007       __vsprintf_s_l             10022007 f   LIBCMT:vsnprnc.obj
 0001:0002107c       _vsprintf_s                1002207c f   LIBCMT:vsnprnc.obj
 0001:00021097       ___libm_error_support      10022097 f   LIBCMT:libm_error.obj
 0001:0002137f       ___libm_setusermatherr     1002237f f   LIBCMT:libm_error.obj
 0001:000213ab       __sse2_mathfcns_init       100223ab f   LIBCMT:mathfcns.obj
 0001:000213ba       __set_SSE2_enable          100223ba f   LIBCMT:mathfcns.obj
 0001:000213d9       __floor_default            100223d9 f   LIBCMT:floor.obj
 0001:000214b0       __chgsign                  100224b0 f   LIBCMT:ieeemisc.obj
 0001:000214dd       __chgsignf                 100224dd f   LIBCMT:ieeemisc.obj
 0001:000214fe       __copysign                 100224fe f   LIBCMT:ieeemisc.obj
 0001:00021526       __copysignf                10022526 f   LIBCMT:ieeemisc.obj
 0001:00021542       __finite                   10022542 f   LIBCMT:ieeemisc.obj
 0001:0002155a       __fpclass                  1002255a f   LIBCMT:ieeemisc.obj
 0001:000215f6       __isnan                    100225f6 f   LIBCMT:ieeemisc.obj
 0001:00021629       __logb                     10022629 f   LIBCMT:ieeemisc.obj
 0001:0002170a       __nextafter                1002270a f   LIBCMT:ieeemisc.obj
 0001:000219aa       __scalb                    100229aa f   LIBCMT:ieeemisc.obj
 0001:000219c2       __add_exp                  100229c2 f   LIBCMT:util.obj
 0001:000219f1       __decomp                   100229f1 f   LIBCMT:util.obj
 0001:00021ac3       __get_exp                  10022ac3 f   LIBCMT:util.obj
 0001:00021adc       __set_bexp                 10022adc f   LIBCMT:util.obj
 0001:00021b05       __set_exp                  10022b05 f   LIBCMT:util.obj
 0001:00021b34       __sptype                   10022b34 f   LIBCMT:util.obj
 0001:00021b8f       __errcode                  10022b8f f   LIBCMT:fpexcept.obj
 0001:00021bc1       __except1                  10022bc1 f   LIBCMT:fpexcept.obj
 0001:00021c89       __except2                  10022c89 f   LIBCMT:fpexcept.obj
 0001:00021d89       __handle_exc               10022d89 f   LIBCMT:fpexcept.obj
 0001:00021f67       __handle_qnan1             10022f67 f   LIBCMT:fpexcept.obj
 0001:00021fb7       __handle_qnan2             10022fb7 f   LIBCMT:fpexcept.obj
 0001:00022017       __raise_exc                10023017 f   LIBCMT:fpexcept.obj
 0001:00022038       __raise_exc_ex             10023038 f   LIBCMT:fpexcept.obj
 0001:0002231d       __raise_excf               1002331d f   LIBCMT:fpexcept.obj
 0001:0002233e       __set_errno_from_matherr   1002333e f   LIBCMT:fpexcept.obj
 0001:0002236b       __umatherr                 1002336b f   LIBCMT:fpexcept.obj
 0001:0002240b       ___clrfp_sse2              1002340b f   LIBCMT:fpctrl.obj
 0001:0002242c       ___ctrlfp_sse2             1002342c f   LIBCMT:fpctrl.obj
 0001:00022465       ___fclrf_sse2              10023465 f   LIBCMT:fpctrl.obj
 0001:00022482       ___get_fpsr_sse2           10023482 f   LIBCMT:fpctrl.obj
 0001:0002249e       ___set_fpsr_sse2           1002349e f   LIBCMT:fpctrl.obj
 0001:00022514       ___set_statfp_sse2         10023514 f   LIBCMT:fpctrl.obj
 0001:0002252d       ___statfp_sse2             1002352d f   LIBCMT:fpctrl.obj
 0001:00022542       __clrfp                    10023542 f   LIBCMT:fpctrl.obj
 0001:00022553       __ctrlfp                   10023553 f   LIBCMT:fpctrl.obj
 0001:0002257e       __set_statfp               1002357e f   LIBCMT:fpctrl.obj
 0001:000225d6       __statfp                   100235d6 f   LIBCMT:fpctrl.obj
 0001:000225e6       _wcscat_s                  100235e6 f   LIBCMT:wcscat_s.obj
 0001:00022652       _wcscpy_s                  10023652 f   LIBCMT:wcscpy_s.obj
 0001:000226ae       _wcslen                    100236ae f   LIBCMT:wcslen.obj
 0001:000226c7       _wcsncat_s                 100236c7 f   LIBCMT:wcsncat_s.obj
 0001:00022795       __set_abort_behavior       10023795 f   LIBCMT:abort.obj
 0001:000227b4       _abort                     100237b4 f   LIBCMT:abort.obj
 0001:000227f7       ___set_app_type            100237f7 f   LIBCMT:errmode.obj
 0001:00022804       __set_error_mode           10023804 f   LIBCMT:errmode.obj
 0001:00022960       __i64tow_s                 10023960 f   LIBCMT:xtows.obj
 0001:00022991       __itow_s                   10023991 f   LIBCMT:xtows.obj
 0001:000229ba       __ltow_s                   100239ba f   LIBCMT:xtows.obj
 0001:000229e4       __ui64tow_s                100239e4 f   LIBCMT:xtows.obj
 0001:000229ff       __ultow_s                  100239ff f   LIBCMT:xtows.obj
 0001:00022b0a       _setvbuf                   10023b0a f   LIBCMT:setvbuf.obj
 0001:00022c10       __fwprintf_l               10023c10 f   LIBCMT:fwprintf.obj
 0001:00022c2a       __fwprintf_p               10023c2a f   LIBCMT:fwprintf.obj
 0001:00022c43       __fwprintf_p_l             10023c43 f   LIBCMT:fwprintf.obj
 0001:00022c5d       __fwprintf_s_l             10023c5d f   LIBCMT:fwprintf.obj
 0001:00022c77       _fwprintf                  10023c77 f   LIBCMT:fwprintf.obj
 0001:00022d0b       _fwprintf_s                10023d0b f   LIBCMT:fwprintf.obj
 0001:00022d24       __vsnwprintf_s             10023d24 f   LIBCMT:vswprnc.obj
 0001:00022d42       __vsnwprintf_s_l           10023d42 f   LIBCMT:vswprnc.obj
 0001:00022e46       __vswprintf_c              10023e46 f   LIBCMT:vswprnc.obj
 0001:00022e6d       __vswprintf_c_l            10023e6d f   LIBCMT:vswprnc.obj
 0001:00022e95       __vswprintf_helper         10023e95 f   LIBCMT:vswprnc.obj
 0001:00022f90       __vswprintf_p              10023f90 f   LIBCMT:vswprnc.obj
 0001:00022fb7       __vswprintf_p_l            10023fb7 f   LIBCMT:vswprnc.obj
 0001:00022fdf       __vswprintf_s_l            10023fdf f   LIBCMT:vswprnc.obj
 0001:00023056       _vswprintf_s               10024056 f   LIBCMT:vswprnc.obj
 0001:00023071       ___crtMessageBoxW          10024071 f   LIBCMT:crtmboxw.obj
 0001:00023257       ___crtMessageBoxWaitThreadW@4 10024257 f   LIBCMT:crtmboxw.obj
 0001:00023275       __XcptFilter               10024275 f   LIBCMT:winxfltr.obj
 0001:000233d0       ___CppXcptFilter           100243d0 f   LIBCMT:winxfltr.obj
 0001:00023422       ___get_flsindex            10024422 f   LIBCMT:tidtable.obj
 0001:00023428       ___threadhandle            10024428 f   LIBCMT:tidtable.obj
 0001:0002342e       ___threadid                1002442e f   LIBCMT:tidtable.obj
 0001:00023434       __freefls@4                10024434 f   LIBCMT:tidtable.obj
 0001:00023569       __freeptd                  10024569 f   LIBCMT:tidtable.obj
 0001:0002359f       __getptd                   1002459f f   LIBCMT:tidtable.obj
 0001:000235b7       __getptd_noexit            100245b7 f   LIBCMT:tidtable.obj
 0001:00023626       __initptd                  10024626 f   LIBCMT:tidtable.obj
 0001:000236d9       __mtinit                   100246d9 f   LIBCMT:tidtable.obj
 0001:0002374f       __mtterm                   1002474f f   LIBCMT:tidtable.obj
 0001:0002376c       __set_pgmptr               1002476c f i LIBCMT:stdargv.obj
 0001:00023779       __setargv                  10024779 f   LIBCMT:stdargv.obj
 0001:000239a8       __setenvp                  100249a8 f   LIBCMT:stdenvp.obj
 0001:00023a89       ___security_init_cookie    10024a89 f   LIBCMT:gs_support.obj
 0001:00023b25       ___crtGetEnvironmentStringsA 10024b25 f   LIBCMT:a_env.obj
 0001:00023bb2       _wcsncpy_s                 10024bb2 f   LIBCMT:wcsncpy_s.obj
 0001:00023c70       __output_s_l               10024c70 f   LIBCMT:outputs.obj
 0001:000248f8       __output_p_l               100258f8 f   LIBCMT:outputp.obj
 0001:00025c30       __validate_param_reuseA    10026c30 f   LIBCMT:outputp.obj
 0001:00025d66       _get_crtdouble_arg         10026d66 f i LIBCMT:outputp.obj
 0001:00025e65       __isatty                   10026e65 f   LIBCMT:isatty.obj
 0001:00025eb9       ___addlocaleref            10026eb9 f   LIBCMT:localref.obj
 0001:00025f4e       ___freetlocinfo            10026f4e f   LIBCMT:localref.obj
 0001:000260a8       ___removelocaleref         100270a8 f   LIBCMT:localref.obj
 0001:00026148       ___updatetlocinfo          10027148 f   LIBCMT:localref.obj
 0001:000261c8       __updatetlocinfoEx_nolock  100271c8 f   LIBCMT:localref.obj
 0001:00026213       ___iswcsym                 10027213 f i LIBCMT:_wctype.obj
 0001:00026237       ___iswcsymf                10027237 f i LIBCMT:_wctype.obj
 0001:0002625b       __isleadbyte_l             1002725b f i LIBCMT:_wctype.obj
 0001:00026295       __iswalnum_l               10027295 f i LIBCMT:_wctype.obj
 0001:000262a9       __iswalpha_l               100272a9 f i LIBCMT:_wctype.obj
 0001:000262bd       __iswblank_l               100272bd f i LIBCMT:_wctype.obj
 0001:000262d8       __iswcntrl_l               100272d8 f i LIBCMT:_wctype.obj
 0001:000262e9       __iswcsym_l                100272e9 f i LIBCMT:_wctype.obj
 0001:0002630d       __iswcsymf_l               1002730d f i LIBCMT:_wctype.obj
 0001:00026331       __iswdigit_l               10027331 f i LIBCMT:_wctype.obj
 0001:00026342       __iswgraph_l               10027342 f i LIBCMT:_wctype.obj
 0001:00026356       __iswlower_l               10027356 f i LIBCMT:_wctype.obj
 0001:00026367       __iswprint_l               10027367 f i LIBCMT:_wctype.obj
 0001:0002637b       __iswpunct_l               1002737b f i LIBCMT:_wctype.obj
 0001:0002638c       __iswspace_l               1002738c f i LIBCMT:_wctype.obj
 0001:0002639d       __iswupper_l               1002739d f i LIBCMT:_wctype.obj
 0001:000263ae       __iswxdigit_l              100273ae f i LIBCMT:_wctype.obj
 0001:000263c2       _isleadbyte                100273c2 f i LIBCMT:_wctype.obj
 0001:000263d3       _iswalnum                  100273d3 f i LIBCMT:_wctype.obj
 0001:000263e7       _iswalpha                  100273e7 f i LIBCMT:_wctype.obj
 0001:000263fb       _iswascii                  100273fb f i LIBCMT:_wctype.obj
 0001:0002640d       _iswblank                  1002740d f i LIBCMT:_wctype.obj
 0001:00026428       _iswcntrl                  10027428 f i LIBCMT:_wctype.obj
 0001:00026439       _iswdigit                  10027439 f i LIBCMT:_wctype.obj
 0001:0002644a       _iswgraph                  1002744a f i LIBCMT:_wctype.obj
 0001:0002645e       _iswlower                  1002745e f i LIBCMT:_wctype.obj
 0001:0002646f       _iswprint                  1002746f f i LIBCMT:_wctype.obj
 0001:00026483       _iswpunct                  10027483 f i LIBCMT:_wctype.obj
 0001:00026494       _iswspace                  10027494 f i LIBCMT:_wctype.obj
 0001:000264a5       _iswupper                  100274a5 f i LIBCMT:_wctype.obj
 0001:000264b6       _iswxdigit                 100274b6 f i LIBCMT:_wctype.obj
 0001:000264ca       __wctomb_l                 100274ca f   LIBCMT:wctomb.obj
 0001:00026519       __wctomb_s_l               10027519 f   LIBCMT:wctomb.obj
 0001:0002663d       _wctomb                    1002763d f   LIBCMT:wctomb.obj
 0001:00026670       _wctomb_s                  10027670 f   LIBCMT:wctomb.obj
 0001:00026690       __aulldvrm                 10027690 f   LIBCMT:ulldvrm.obj
 0001:00026725       ___isascii                 10027725 f i LIBCMT:_ctype.obj
 0001:00026735       ___iscsym                  10027735 f i LIBCMT:_ctype.obj
 0001:00026755       ___iscsymf                 10027755 f i LIBCMT:_ctype.obj
 0001:00026772       ___toascii                 10027772 f i LIBCMT:_ctype.obj
 0001:0002677d       __isalnum_l                1002777d f i LIBCMT:_ctype.obj
 0001:000267d5       __isalpha_l                100277d5 f i LIBCMT:_ctype.obj
 0001:0002682d       __isblank_l                1002782d f i LIBCMT:_ctype.obj
 0001:00026887       __iscntrl_l                10027887 f i LIBCMT:_ctype.obj
 0001:000268d9       __iscsym_l                 100278d9 f i LIBCMT:_ctype.obj
 0001:000268fa       __iscsymf_l                100278fa f i LIBCMT:_ctype.obj
 0001:0002691b       __isdigit_l                1002791b f i LIBCMT:_ctype.obj
 0001:0002696d       __isgraph_l                1002796d f i LIBCMT:_ctype.obj
 0001:000269c5       __islower_l                100279c5 f i LIBCMT:_ctype.obj
 0001:00026a17       __isprint_l                10027a17 f i LIBCMT:_ctype.obj
 0001:00026a6f       __ispunct_l                10027a6f f i LIBCMT:_ctype.obj
 0001:00026ac1       __isspace_l                10027ac1 f i LIBCMT:_ctype.obj
 0001:00026b13       __isupper_l                10027b13 f i LIBCMT:_ctype.obj
 0001:00026b65       __isxdigit_l               10027b65 f i LIBCMT:_ctype.obj
 0001:00026bbd       _isalnum                   10027bbd f i LIBCMT:_ctype.obj
 0001:00026bea       _isalpha                   10027bea f i LIBCMT:_ctype.obj
 0001:00026c17       _isblank                   10027c17 f i LIBCMT:_ctype.obj
 0001:00026c4c       _iscntrl                   10027c4c f i LIBCMT:_ctype.obj
 0001:00026c77       _isdigit                   10027c77 f i LIBCMT:_ctype.obj
 0001:00026ca2       _isgraph                   10027ca2 f i LIBCMT:_ctype.obj
 0001:00026ccf       _islower                   10027ccf f i LIBCMT:_ctype.obj
 0001:00026cfa       _isprint                   10027cfa f i LIBCMT:_ctype.obj
 0001:00026d27       _ispunct                   10027d27 f i LIBCMT:_ctype.obj
 0001:00026d52       _isspace                   10027d52 f i LIBCMT:_ctype.obj
 0001:00026d7d       _isupper                   10027d7d f i LIBCMT:_ctype.obj
 0001:00026da8       _isxdigit                  10027da8 f i LIBCMT:_ctype.obj
 0001:00026dd5       __tolower                  10027dd5 f   LIBCMT:tolower.obj
 0001:00026de0       __tolower_l                10027de0 f   LIBCMT:tolower.obj
 0001:00026f23       _tolower                   10027f23 f   LIBCMT:tolower.obj
 0001:00026f4f       _strcpy_s                  10027f4f f   LIBCMT:strcpy_s.obj
 0001:00026fb0       _strrchr                   10027fb0 f   LIBCMT:strrchr.obj
 0001:000270e7       __fptostr                  100280e7 f   LIBCMT:_fptostr.obj
 0001:00027197       ___crt_atoflt_l            10028197 f   LIBCMT:atodbl.obj
 0001:0002723b       __atodbl                   1002823b f   LIBCMT:atodbl.obj
 0001:00027250       __atodbl_l                 10028250 f   LIBCMT:atodbl.obj
 0001:000272de       __atoflt                   100282de f   LIBCMT:atodbl.obj
 0001:000272f3       __atoflt_l                 100282f3 f   LIBCMT:atodbl.obj
 0001:0002730b       __atoldbl                  1002830b f   LIBCMT:atodbl.obj
 0001:00027320       __atoldbl_l                10028320 f   LIBCMT:atodbl.obj
 0001:000273af       ___dtold                   100283af f   LIBCMT:cfout.obj
 0001:00027477       __fltout2                  10028477 f   LIBCMT:cfout.obj
 0001:00027510       __alldvrm                  10028510 f   LIBCMT:lldvrm.obj
 0001:000275f0       __aullshr                  100285f0 f   LIBCMT:ullshr.obj
 0001:0002760f       __get_output_format        1002860f f   LIBCMT:outputformat.obj
 0001:00027615       __set_output_format        10028615 f   LIBCMT:outputformat.obj
 0001:00027647       __controlfp_s              10028647 f   LIBCMT:contrlfp.obj
 0001:000276a4       __fptrap                   100286a4 f   LIBCMT:crt0fp.obj
 0001:000276ad       __msize                    100286ad f   LIBCMT:msize.obj
 0001:000276de       __recalloc                 100286de f   LIBCMT:recalloc.obj
 0001:00027747       _strncpy_s                 10028747 f   LIBCMT:strncpy_s.obj
 0001:000278cf       __MallocaIsSizeInRange     100288cf f i LIBCMT:a_loc.obj
 0001:000278e0       __MarkAllocaS              100288e0 f i LIBCMT:a_loc.obj
 0001:000278f4       ___crtGetLocaleInfoA       100288f4 f   LIBCMT:a_loc.obj
 0001:0002792e       __freea                    1002892e f i LIBCMT:a_loc.obj
 0001:0002794c       _GetTableIndexFromLcid     1002894c f   LIBCMT:winapinls.obj
 0001:00027981       _GetTableIndexFromLocaleName 10028981 f   LIBCMT:winapinls.obj
 0001:000279cf       ___crtCompareStringEx      100289cf f   LIBCMT:winapinls.obj
 0001:00027a1b       ___crtDownlevelLCIDToLocaleName 10028a1b f   LIBCMT:winapinls.obj
 0001:00027a97       ___crtDownlevelLocaleNameToLCID 10028a97 f   LIBCMT:winapinls.obj
 0001:00027ad5       ___crtEnumSystemLocalesEx  10028ad5 f   LIBCMT:winapinls.obj
 0001:00027b12       ___crtGetDateFormatEx      10028b12 f   LIBCMT:winapinls.obj
 0001:00027b5b       ___crtGetLocaleInfoEx      10028b5b f   LIBCMT:winapinls.obj
 0001:00027b8a       ___crtGetTimeFormatEx      10028b8a f   LIBCMT:winapinls.obj
 0001:00027bbf       ___crtGetUserDefaultLocaleName 10028bbf f   LIBCMT:winapinls.obj
 0001:00027bea       ___crtIsValidLocaleName    10028bea f   LIBCMT:winapinls.obj
 0001:00027c15       ___crtLCMapStringEx        10028c15 f   LIBCMT:winapinls.obj
 0001:00027c61       ___wcsnicmp_ascii          10028c61 f   LIBCMT:winapinls.obj
 0001:00027ef3       ___crtLCMapStringA         10028ef3 f   LIBCMT:a_map.obj
 0001:00028031       ___crtGetStringTypeA       10029031 f   LIBCMT:a_str.obj
 0001:00028071       __commit                   10029071 f   LIBCMT:commit.obj
 0001:0002815a       ___lock_fhandle            1002915a f   LIBCMT:osfinfo.obj
 0001:000281e8       __alloc_osfhnd             100291e8 f   LIBCMT:osfinfo.obj
 0001:00028391       __free_osfhnd              10029391 f   LIBCMT:osfinfo.obj
 0001:00028417       __get_osfhandle            10029417 f   LIBCMT:osfinfo.obj
 0001:0002847e       __open_osfhandle           1002947e f   LIBCMT:osfinfo.obj
 0001:00028594       __set_osfhnd               10029594 f   LIBCMT:osfinfo.obj
 0001:00028616       __unlock_fhandle           10029616 f   LIBCMT:osfinfo.obj
 0001:0002863c       __open                     1002963c f   LIBCMT:open.obj
 0001:000286ec       __sopen                    100296ec f   LIBCMT:open.obj
 0001:0002871f       __sopen_helper             1002971f f   LIBCMT:open.obj
 0001:000287e8       __sopen_nolock             100297e8 f   LIBCMT:open.obj
 0001:00028836       __sopen_s                  10029836 f   LIBCMT:open.obj
 0001:00028854       __mbsnbcmp                 10029854 f   LIBCMT:mbsnbcmp.obj
 0001:0002886c       __mbsnbcmp_l               1002986c f   LIBCMT:mbsnbcmp.obj
 0001:00028983       __mbsnbicmp                10029983 f   LIBCMT:mbsnbicm.obj
 0001:0002899b       __mbsnbicmp_l              1002999b f   LIBCMT:mbsnbicm.obj
 0001:00028b60       __global_unwind2           10029b60 f   LIBCMT:exsup.obj
 0001:00028bc5       __local_unwind2            10029bc5 f   LIBCMT:exsup.obj
 0001:00028c49       __abnormal_termination     10029c49 f   LIBCMT:exsup.obj
 0001:00028c6c       __NLG_Notify1              10029c6c f   LIBCMT:exsup.obj
 0001:00028c75       __NLG_Notify               10029c75 f   LIBCMT:exsup.obj
 0001:00028c8c       __NLG_Dispatch2            10029c8c     LIBCMT:exsup.obj
 0001:00028c8c       __NLG_Dispatch             10029c8c     LIBCMT:exsup.obj
 0001:00028c94       __NLG_Call                 10029c94 f   LIBCMT:exsup.obj
 0001:00028c96       __NLG_Return2              10029c96     LIBCMT:exsup.obj
 0001:00028c97       __getbuf                   10029c97 f   LIBCMT:_getbuf.obj
 0001:00028cdd       __lseeki64                 10029cdd f   LIBCMT:lseeki64.obj
 0001:00028dd9       __lseeki64_nolock          10029dd9 f   LIBCMT:lseeki64.obj
 0001:00028e4c       __mbtowc_l                 10029e4c f   LIBCMT:mbtowc.obj
 0001:00028f41       _mbtowc                    10029f41 f   LIBCMT:mbtowc.obj
 0001:00028f59       __putwch                   10029f59 f   LIBCMT:putwch.obj
 0001:00028fa5       __putwch_nolock            10029fa5 f   LIBCMT:putwch.obj
 0001:00028ff0       __alloca_probe             10029ff0 f   LIBCMT:chkstk.obj
 0001:00028ff0       __chkstk                   10029ff0 f   LIBCMT:chkstk.obj
 0001:0002901b       __matherr                  1002a01b f   LIBCMT:matherr.obj
 0001:0002901e       __frnd                     1002a01e f   LIBCMT:frnd.obj
 0001:00029032       __vfwprintf_l              1002a032 f   LIBCMT:vfwprint.obj
 0001:00029050       __vfwprintf_p              1002a050 f   LIBCMT:vfwprint.obj
 0001:0002906d       __vfwprintf_p_l            1002a06d f   LIBCMT:vfwprint.obj
 0001:0002908b       __vfwprintf_s_l            1002a08b f   LIBCMT:vfwprint.obj
 0001:000290a9       _vfwprintf                 1002a0a9 f   LIBCMT:vfwprint.obj
 0001:000290c6       _vfwprintf_helper          1002a0c6 f   LIBCMT:vfwprint.obj
 0001:00029159       _vfwprintf_s               1002a159 f   LIBCMT:vfwprint.obj
 0001:00029176       __woutput_l                1002a176 f   LIBCMT:woutput.obj
 0001:00029e55       __woutput_s_l              1002ae55 f   LIBCMT:woutputs.obj
 0001:0002ab6c       __validate_param_reuseW    1002bb6c f   LIBCMT:woutputp.obj
 0001:0002ace4       __woutput_p_l              1002bce4 f   LIBCMT:woutputp.obj
 0001:0002c10d       __ismbbalnum               1002d10d f   LIBCMT:ismbbyte.obj
 0001:0002c126       __ismbbalnum_l             1002d126 f   LIBCMT:ismbbyte.obj
 0001:0002c140       __ismbbalpha               1002d140 f   LIBCMT:ismbbyte.obj
 0001:0002c159       __ismbbalpha_l             1002d159 f   LIBCMT:ismbbyte.obj
 0001:0002c173       __ismbbblank               1002d173 f   LIBCMT:ismbbyte.obj
 0001:0002c194       __ismbbblank_l             1002d194 f   LIBCMT:ismbbyte.obj
 0001:0002c1b6       __ismbbgraph               1002d1b6 f   LIBCMT:ismbbyte.obj
 0001:0002c1cf       __ismbbgraph_l             1002d1cf f   LIBCMT:ismbbyte.obj
 0001:0002c1e9       __ismbbkalnum              1002d1e9 f   LIBCMT:ismbbyte.obj
 0001:0002c1ff       __ismbbkalnum_l            1002d1ff f   LIBCMT:ismbbyte.obj
 0001:0002c216       __ismbbkana                1002d216 f   LIBCMT:ismbbyte.obj
 0001:0002c227       __ismbbkana_l              1002d227 f   LIBCMT:ismbbyte.obj
 0001:0002c273       __ismbbkprint              1002d273 f   LIBCMT:ismbbyte.obj
 0001:0002c289       __ismbbkprint_l            1002d289 f   LIBCMT:ismbbyte.obj
 0001:0002c2a0       __ismbbkpunct              1002d2a0 f   LIBCMT:ismbbyte.obj
 0001:0002c2b6       __ismbbkpunct_l            1002d2b6 f   LIBCMT:ismbbyte.obj
 0001:0002c2cd       __ismbblead                1002d2cd f   LIBCMT:ismbbyte.obj
 0001:0002c2e3       __ismbblead_l              1002d2e3 f   LIBCMT:ismbbyte.obj
 0001:0002c2fa       __ismbbprint               1002d2fa f   LIBCMT:ismbbyte.obj
 0001:0002c313       __ismbbprint_l             1002d313 f   LIBCMT:ismbbyte.obj
 0001:0002c32d       __ismbbpunct               1002d32d f   LIBCMT:ismbbyte.obj
 0001:0002c343       __ismbbpunct_l             1002d343 f   LIBCMT:ismbbyte.obj
 0001:0002c35a       __ismbbtrail               1002d35a f   LIBCMT:ismbbyte.obj
 0001:0002c370       __ismbbtrail_l             1002d370 f   LIBCMT:ismbbyte.obj
 0001:0002c5ad       __strtol_l                 1002d5ad f   LIBCMT:strtol.obj
 0001:0002c5c8       __strtoul_l                1002d5c8 f   LIBCMT:strtol.obj
 0001:0002c5e3       _strtol                    1002d5e3 f   LIBCMT:strtol.obj
 0001:0002c60d       _strtoul                   1002d60d f   LIBCMT:strtol.obj
 0001:0002c637       ___free_lconv_mon          1002d637 f   LIBCMT:initmon.obj
 0001:0002c733       ___init_monetary           1002d733 f   LIBCMT:initmon.obj
 0001:0002cb0c       ___free_lconv_num          1002db0c f   LIBCMT:initnum.obj
 0001:0002cb73       ___init_numeric            1002db73 f   LIBCMT:initnum.obj
 0001:0002cdb1       ___free_lc_time            1002ddb1 f   LIBCMT:inittime.obj
 0001:0002d131       ___init_time               1002e131 f   LIBCMT:inittime.obj
 0001:0002d9a0       _localeconv                1002e9a0 f   LIBCMT:lconv.obj
 0001:0002d9c6       __iswctype_l               1002e9c6 f   LIBCMT:iswctype.obj
 0001:0002d9d8       _is_wctype                 1002e9d8 f   LIBCMT:iswctype.obj
 0001:0002d9e1       _iswctype                  1002e9e1 f   LIBCMT:iswctype.obj
 0001:0002da37       ____lc_codepage_func       1002ea37 f   LIBCMT:initctyp.obj
 0001:0002da5d       ____lc_collate_cp_func     1002ea5d f   LIBCMT:initctyp.obj
 0001:0002da83       ____lc_locale_name_func    1002ea83 f   LIBCMT:initctyp.obj
 0001:0002daab       ____mb_cur_max_func        1002eaab f   LIBCMT:initctyp.obj
 0001:0002dad1       ____mb_cur_max_l_func      1002ead1 f   LIBCMT:initctyp.obj
 0001:0002dae8       ___init_ctype              1002eae8 f   LIBCMT:initctyp.obj
 0001:0002de80       ___pctype_func             1002ee80 f   LIBCMT:ctype.obj
 0001:0002dea9       ___pwctype_func            1002eea9 f   LIBCMT:ctype.obj
 0001:0002deaf       __isctype                  1002eeaf f   LIBCMT:isctype.obj
 0001:0002dede       __isctype_l                1002eede f   LIBCMT:isctype.obj
 0001:0002df8f       ___init_dummy              1002ef8f f   LIBCMT:wsetloca.obj
 0001:0002df92       __locterm                  1002ef92 f   LIBCMT:wsetloca.obj
 0001:0002dfe4       ____setlc_active_func      1002efe4 f   LIBCMT:wsetloca.obj
 0001:0002dfea       ____unguarded_readlc_active_add_func 1002efea f   LIBCMT:wsetloca.obj
 0001:0002dff0       ___copy_locale_name        1002eff0 f   LIBCMT:wsetloca.obj
 0001:0002e054       ___create_locale           1002f054 f   LIBCMT:wsetloca.obj
 0001:0002e05d       ___free_locale             1002f05d f   LIBCMT:wsetloca.obj
 0001:0002e062       ___get_current_locale      1002f062 f   LIBCMT:wsetloca.obj
 0001:0002e067       ___lc_lctowcs              1002f067 f   LIBCMT:wsetloca.obj
 0001:0002e0d5       ___lc_wcstolc              1002f0d5 f   LIBCMT:wsetloca.obj
 0001:0002e201       __configthreadlocale       1002f201 f   LIBCMT:wsetloca.obj
 0001:0002e287       __create_locale            1002f287 f   LIBCMT:wsetloca.obj
 0001:0002e2e9       __expandlocale             1002f2e9 f   LIBCMT:wsetloca.obj
 0001:0002e5e0       __free_locale              1002f5e0 f   LIBCMT:wsetloca.obj
 0001:0002e697       __get_current_locale       1002f697 f   LIBCMT:wsetloca.obj
 0001:0002e746       __wcreate_locale           1002f746 f   LIBCMT:wsetloca.obj
 0001:0002e81d       __wcscats                  1002f81d f   LIBCMT:wsetloca.obj
 0001:0002e85c       __wsetlocale               1002f85c f   LIBCMT:wsetloca.obj
 0001:0002f19e       __CopyMan                  1003019e f i LIBCMT:intrncvt.obj
 0001:0002f1bb       __FillZeroMan              100301bb f i LIBCMT:intrncvt.obj
 0001:0002f1ca       __IncMan                   100301ca f i LIBCMT:intrncvt.obj
 0001:0002f22c       __IsZeroMan                1003022c f i LIBCMT:intrncvt.obj
 0001:0002f249       __RoundMan                 10030249 f i LIBCMT:intrncvt.obj
 0001:0002f34a       __ShrMan                   1003034a f i LIBCMT:intrncvt.obj
 0001:0002f3d8       __ZeroTail                 100303d8 f i LIBCMT:intrncvt.obj
 0001:0002f420       ___addl                    10030420 f i LIBCMT:intrncvt.obj
 0001:0002f444       __ld12cvt                  10030444 f i LIBCMT:intrncvt.obj
 0001:0002f9af       __ld12tod                  100309af f   LIBCMT:intrncvt.obj
 0001:0002ff21       __ld12tof                  10030f21 f   LIBCMT:intrncvt.obj
 0001:00030493       __ld12told                 10031493 f   LIBCMT:intrncvt.obj
 0001:00030562       ___STRINGTOLD_L            10031562 f   LIBCMT:strgtold.obj
 0001:000305bd       ___ld12mul                 100315bd f i LIBCMT:strgtold.obj
 0001:00030889       ___multtenpow12            10031889 f i LIBCMT:strgtold.obj
 0001:00030bdc       ___shl_12                  10031bdc f i LIBCMT:strgtold.obj
 0001:00030c0d       ___shr_12                  10031c0d f i LIBCMT:strgtold.obj
 0001:00030c3d       ___strgtold12_l            10031c3d f   LIBCMT:strgtold.obj
 0001:000313e5       _$I10_OUTPUT               100323e5 f   LIBCMT:x10fout.obj
 0001:00031db9       ___add_12                  10032db9 f i LIBCMT:x10fout.obj
 0001:00031f65       ___control87_2             10032f65 f   LIBCMT:ieee87.obj
 0001:000325d9       __clearfp                  100335d9 f   LIBCMT:ieee87.obj
 0001:000326b9       __control87                100336b9 f i LIBCMT:ieee87.obj
 0001:000329bb       __controlfp                100339bb f   LIBCMT:ieee87.obj
 0001:00032cc6       __fpreset                  10033cc6 f   LIBCMT:ieee87.obj
 0001:00032d93       __set_controlfp            10033d93 f   LIBCMT:ieee87.obj
 0001:00032e06       __statusfp                 10033e06 f   LIBCMT:ieee87.obj
 0001:00032ea0       __statusfp2                10033ea0 f   LIBCMT:ieee87.obj
 0001:00032f00       __alloca_probe_16          10033f00 f   LIBCMT:alloca16.obj
 0001:00032f16       __alloca_probe_8           10033f16     LIBCMT:alloca16.obj
 0001:00032f2c       _wcsnlen                   10033f2c f   LIBCMT:wcslen_s.obj
 0001:00032fd3       __wopen                    10033fd3 f   LIBCMT:wopen.obj
 0001:00033083       __wsopen                   10034083 f   LIBCMT:wopen.obj
 0001:000330b6       __wsopen_helper            100340b6 f   LIBCMT:wopen.obj
 0001:0003317f       __wsopen_nolock            1003417f f   LIBCMT:wopen.obj
 0001:000338d2       __wsopen_s                 100348d2 f   LIBCMT:wopen.obj
 0001:000338f0       _strncmp                   100348f0 f   LIBCMT:strncmp.obj
 0001:00033968       __strnicmp                 10034968 f   LIBCMT:strnicmp.obj
 0001:000339d3       __strnicmp_l               100349d3 f   LIBCMT:strnicmp.obj
 0001:00033a84       ___termconout              10034a84 f   LIBCMT:initcon.obj
 0001:00033a9b       ___initconout              10034a9b f   LIBCMT:initcon.obj
 0001:00033aba       __fputwc_nolock            10034aba f   LIBCMT:fputwc.obj
 0001:00033c40       _fputwc                    10034c40 f   LIBCMT:fputwc.obj
 0001:00033cb7       _putwc                     10034cb7 f   LIBCMT:fputwc.obj
 0001:00033ea1       __wcstol_l                 10034ea1 f   LIBCMT:wcstol.obj
 0001:00033eb9       __wcstoul_l                10034eb9 f   LIBCMT:wcstol.obj
 0001:00033ed1       _wcstol                    10034ed1 f   LIBCMT:wcstol.obj
 0001:00033ee9       _wcstoul                   10034ee9 f   LIBCMT:wcstol.obj
 0001:00033f01       ___init_collate            10034f01 f   LIBCMT:initcoll.obj
 0001:00034021       _memcmp                    10035021 f   LIBCMT:memcmp.obj
 0001:00036f35       _wcscmp                    10037f35 f   LIBCMT:wcscmp.obj
 0001:00036f73       _wcscspn                   10037f73 f   LIBCMT:wcscspn.obj
 0001:00036fbe       _wcsncmp                   10037fbe f   LIBCMT:wcsncmp.obj
 0001:00036ff4       _wcspbrk                   10037ff4 f   LIBCMT:wcspbrk.obj
 0001:000375f8       ___get_qualified_locale    100385f8 f   LIBCMT:getqloc.obj
 0001:00037e68       ___get_qualified_locale_downlevel 10038e68 f   LIBCMT:getqloc_downlevel.obj
 0001:00038084       ___mtold12                 10039084 f   LIBCMT:mantold.obj
 0001:00038264       __chsize                   10039264 f   LIBCMT:chsize.obj
 0001:0003827e       __chsize_nolock            1003927e f   LIBCMT:chsize.obj
 0001:00038434       __chsize_s                 10039434 f   LIBCMT:chsize.obj
 0001:00038522       __get_fmode                10039522 f   LIBCMT:setmode.obj
 0001:0003854c       __set_fmode                1003954c f   LIBCMT:setmode.obj
 0001:00038587       __setmode                  10039587 f   LIBCMT:setmode.obj
 0001:0003868c       __setmode_nolock           1003968c f   LIBCMT:setmode.obj
 0001:00038760       ___ascii_strnicmp          10039760 f   LIBCMT:_strnicm.obj
 0001:000387c1       __flswbuf                  100397c1 f   LIBCMT:_flswbuf.obj
 0001:00038923       __wchartodigit             10039923 f   LIBCMT:wchtodig.obj
 0001:00038ac2       __wtoi                     10039ac2 f   LIBCMT:wtox.obj
 0001:00038acb       __wtoi64                   10039acb f   LIBCMT:wtox.obj
 0001:00038adf       __wtoi64_l                 10039adf f   LIBCMT:wtox.obj
 0001:00038af6       __wtoi_l                   10039af6 f   LIBCMT:wtox.obj
 0001:00038aff       __wtol                     10039aff f   LIBCMT:wtox.obj
 0001:00038b13       __wtol_l                   10039b13 f   LIBCMT:wtox.obj
 0001:00038b2a       __wtoll                    10039b2a f   LIBCMT:wtox.obj
 0001:00038b3e       __wtoll_l                  10039b3e f   LIBCMT:wtox.obj
 0001:00038b55       _wcschr                    10039b55 f   LIBCMT:wcschr.obj
 0001:00038c03       __wcsicmp                  10039c03 f   LIBCMT:wcsicmp.obj
 0001:00038c96       __wcsicmp_l                10039c96 f   LIBCMT:wcsicmp.obj
 0001:00038d71       __wcsnicmp                 10039d71 f   LIBCMT:wcsnicmp.obj
 0001:00038e27       __wcsnicmp_l               10039e27 f   LIBCMT:wcsnicmp.obj
 0001:000391f0       __wcstof_l                 1003a1f0 f   LIBCMT:wcstoq.obj
 0001:000392a3       __wcstoi64                 1003a2a3 f   LIBCMT:wcstoq.obj
 0001:000392cd       __wcstoi64_l               1003a2cd f   LIBCMT:wcstoq.obj
 0001:000392e8       __wcstoimax_l              1003a2e8 f   LIBCMT:wcstoq.obj
 0001:000392f1       __wcstold_l                1003a2f1 f   LIBCMT:wcstoq.obj
 0001:000392fa       __wcstoll_l                1003a2fa f   LIBCMT:wcstoq.obj
 0001:00039303       __wcstoui64                1003a303 f   LIBCMT:wcstoq.obj
 0001:0003932d       __wcstoui64_l              1003a32d f   LIBCMT:wcstoq.obj
 0001:00039348       __wcstoull_l               1003a348 f   LIBCMT:wcstoq.obj
 0001:00039351       __wcstoumax_l              1003a351 f   LIBCMT:wcstoq.obj
 0001:0003935a       _wcstof                    1003a35a f   LIBCMT:wcstoq.obj
 0001:0003936f       _wcstoimax                 1003a36f f   LIBCMT:wcstoq.obj
 0001:00039378       _wcstold                   1003a378 f   LIBCMT:wcstoq.obj
 0001:00039381       _wcstoll                   1003a381 f   LIBCMT:wcstoq.obj
 0001:0003938a       _wcstoull                  1003a38a f   LIBCMT:wcstoq.obj
 0001:00039393       _wcstoumax                 1003a393 f   LIBCMT:wcstoq.obj
 0001:0003939c       __towlower_l               1003a39c f   LIBCMT:towlower.obj
 0001:0003944d       _towlower                  1003a44d f   LIBCMT:towlower.obj
 0001:0003945e       __wcstod_l                 1003a45e f   LIBCMT:wcstod.obj
 0001:00039559       _wcstod                    1003a559 f   LIBCMT:wcstod.obj
 0001:00039570       __allmul                   1003a570 f   LIBCMT:llmul.obj
 0001:000395a4       ___crtLCMapStringW         1003a5a4 f   LIBCMT:w_map.obj
 0001:000395d3       __wfltin2                  1003a5d3 f   LIBCMT:wcfin.obj
 0001:00039680       ___WSTRINGTOLD_L           1003a680 f   LIBCMT:wstrgtold.obj
 0001:000396db       ___wstrgtold12_l           1003a6db f   LIBCMT:wstrgtold.obj
 0001:00039f2c       _GetModuleHandleA@4        1003af2c f   kernel32:KERNEL32.dll
 0001:00039f32       _GetProcAddress@8          1003af32 f   kernel32:KERNEL32.dll
 0001:00039f38       _HeapAlloc@12              1003af38 f   kernel32:KERNEL32.dll
 0001:00039f3e       _IsDebuggerPresent@0       1003af3e f   kernel32:KERNEL32.dll
 0001:00039f44       _IsProcessorFeaturePresent@4 1003af44 f   kernel32:KERNEL32.dll
 0001:00039f4a       _EncodePointer@4           1003af4a f   kernel32:KERNEL32.dll
 0001:00039f50       _DecodePointer@4           1003af50 f   kernel32:KERNEL32.dll
 0001:00039f56       _GetLastError@0            1003af56 f   kernel32:KERNEL32.dll
 0001:00039f5c       _ExitProcess@4             1003af5c f   kernel32:KERNEL32.dll
 0001:00039f62       _GetModuleHandleExW@12     1003af62 f   kernel32:KERNEL32.dll
 0001:00039f68       _AreFileApisANSI@0         1003af68 f   kernel32:KERNEL32.dll
 0001:00039f6e       _MultiByteToWideChar@24    1003af6e f   kernel32:KERNEL32.dll
 0001:00039f74       _WideCharToMultiByte@32    1003af74 f   kernel32:KERNEL32.dll
 0001:00039f7a       _HeapFree@12               1003af7a f   kernel32:KERNEL32.dll
 0001:00039f80       _HeapReAlloc@16            1003af80 f   kernel32:KERNEL32.dll
 0001:00039f86       _EnterCriticalSection@4    1003af86 f   kernel32:KERNEL32.dll
 0001:00039f8c       _LeaveCriticalSection@4    1003af8c f   kernel32:KERNEL32.dll
 0001:00039f92       _GetStdHandle@4            1003af92 f   kernel32:KERNEL32.dll
 0001:00039f98       _GetFileType@4             1003af98 f   kernel32:KERNEL32.dll
 0001:00039f9e       _GetModuleFileNameW@12     1003af9e f   kernel32:KERNEL32.dll
 0001:00039fa4       _WriteConsoleW@20          1003afa4 f   kernel32:KERNEL32.dll
 0001:00039faa       _GetCommandLineA@0         1003afaa f   kernel32:KERNEL32.dll
 0001:00039fb0       _GetCurrentThreadId@0      1003afb0 f   kernel32:KERNEL32.dll
 0001:00039fb6       _WriteFile@20              1003afb6 f   kernel32:KERNEL32.dll
 0001:00039fbc       _GetProcessHeap@0          1003afbc f   kernel32:KERNEL32.dll
 0001:00039fc2       _UnhandledExceptionFilter@4 1003afc2 f   kernel32:KERNEL32.dll
 0001:00039fc8       _SetUnhandledExceptionFilter@4 1003afc8 f   kernel32:KERNEL32.dll
 0001:00039fce       _SetLastError@4            1003afce f   kernel32:KERNEL32.dll
 0001:00039fd4       _InitializeCriticalSectionAndSpinCount@8 1003afd4 f   kernel32:KERNEL32.dll
 0001:00039fda       _CreateEventW@16           1003afda f   kernel32:KERNEL32.dll
 0001:00039fe0       _Sleep@4                   1003afe0 f   kernel32:KERNEL32.dll
 0001:00039fe6       _GetCurrentProcess@0       1003afe6 f   kernel32:KERNEL32.dll
 0001:00039fec       _TerminateProcess@8        1003afec f   kernel32:KERNEL32.dll
 0001:00039ff2       _TlsAlloc@0                1003aff2 f   kernel32:KERNEL32.dll
 0001:00039ff8       _TlsGetValue@4             1003aff8 f   kernel32:KERNEL32.dll
 0001:00039ffe       _TlsSetValue@8             1003affe f   kernel32:KERNEL32.dll
 0001:0003a004       _TlsFree@4                 1003b004 f   kernel32:KERNEL32.dll
 0001:0003a00a       _GetStartupInfoW@4         1003b00a f   kernel32:KERNEL32.dll
 0001:0003a010       _GetTickCount@0            1003b010 f   kernel32:KERNEL32.dll
 0001:0003a016       _GetModuleHandleW@4        1003b016 f   kernel32:KERNEL32.dll
 0001:0003a01c       _CreateSemaphoreW@16       1003b01c f   kernel32:KERNEL32.dll
 0001:0003a022       _DeleteCriticalSection@4   1003b022 f   kernel32:KERNEL32.dll
 0001:0003a028       _FatalAppExitA@8           1003b028 f   kernel32:KERNEL32.dll
 0001:0003a02e       _SetConsoleCtrlHandler@8   1003b02e f   kernel32:KERNEL32.dll
 0001:0003a034       _FreeLibrary@4             1003b034 f   kernel32:KERNEL32.dll
 0001:0003a03a       _LoadLibraryExW@12         1003b03a f   kernel32:KERNEL32.dll
 0001:0003a040       _IsValidCodePage@4         1003b040 f   kernel32:KERNEL32.dll
 0001:0003a046       _GetACP@0                  1003b046 f   kernel32:KERNEL32.dll
 0001:0003a04c       _GetOEMCP@0                1003b04c f   kernel32:KERNEL32.dll
 0001:0003a052       _GetCPInfo@8               1003b052 f   kernel32:KERNEL32.dll
 0001:0003a058       _CloseHandle@4             1003b058 f   kernel32:KERNEL32.dll
 0001:0003a05e       _RtlUnwind@16              1003b05e f   kernel32:KERNEL32.dll
 0001:0003a064       _ReadFile@20               1003b064 f   kernel32:KERNEL32.dll
 0001:0003a06a       _GetConsoleMode@8          1003b06a f   kernel32:KERNEL32.dll
 0001:0003a070       _ReadConsoleW@20           1003b070 f   kernel32:KERNEL32.dll
 0001:0003a076       _GetConsoleCP@0            1003b076 f   kernel32:KERNEL32.dll
 0001:0003a07c       _DeleteFileW@4             1003b07c f   kernel32:KERNEL32.dll
 0001:0003a082       _SetFilePointerEx@20       1003b082 f   kernel32:KERNEL32.dll
 0001:0003a088       _RaiseException@16         1003b088 f   kernel32:KERNEL32.dll
 0001:0003a08e       _OutputDebugStringW@4      1003b08e f   kernel32:KERNEL32.dll
 0001:0003a094       _GetCurrentThread@0        1003b094 f   kernel32:KERNEL32.dll
 0001:0003a09a       _GetModuleFileNameA@12     1003b09a f   kernel32:KERNEL32.dll
 0001:0003a0a0       _QueryPerformanceCounter@4 1003b0a0 f   kernel32:KERNEL32.dll
 0001:0003a0a6       _GetCurrentProcessId@0     1003b0a6 f   kernel32:KERNEL32.dll
 0001:0003a0ac       _GetSystemTimeAsFileTime@4 1003b0ac f   kernel32:KERNEL32.dll
 0001:0003a0b2       _GetEnvironmentStringsW@0  1003b0b2 f   kernel32:KERNEL32.dll
 0001:0003a0b8       _FreeEnvironmentStringsW@4 1003b0b8 f   kernel32:KERNEL32.dll
 0001:0003a0be       _HeapSize@12               1003b0be f   kernel32:KERNEL32.dll
 0001:0003a0c4       _GetDateFormatW@24         1003b0c4 f   kernel32:KERNEL32.dll
 0001:0003a0ca       _GetTimeFormatW@24         1003b0ca f   kernel32:KERNEL32.dll
 0001:0003a0d0       _CompareStringW@24         1003b0d0 f   kernel32:KERNEL32.dll
 0001:0003a0d6       _LCMapStringW@24           1003b0d6 f   kernel32:KERNEL32.dll
 0001:0003a0dc       _GetLocaleInfoW@16         1003b0dc f   kernel32:KERNEL32.dll
 0001:0003a0e2       _IsValidLocale@8           1003b0e2 f   kernel32:KERNEL32.dll
 0001:0003a0e8       _GetUserDefaultLCID@0      1003b0e8 f   kernel32:KERNEL32.dll
 0001:0003a0ee       _EnumSystemLocalesW@8      1003b0ee f   kernel32:KERNEL32.dll
 0001:0003a0f4       _GetStringTypeW@16         1003b0f4 f   kernel32:KERNEL32.dll
 0001:0003a0fa       _FlushFileBuffers@4        1003b0fa f   kernel32:KERNEL32.dll
 0001:0003a100       _SetStdHandle@8            1003b100 f   kernel32:KERNEL32.dll
 0001:0003a106       _CreateFileW@28            1003b106 f   kernel32:KERNEL32.dll
 0001:0003a10c       _SetEndOfFile@4            1003b10c f   kernel32:KERNEL32.dll
 0002:00000000       ___xc_a                    10046000     LIBCMT:crt0init.obj
 0002:00000104       ___xc_z                    10046104     LIBCMT:crt0init.obj
 0002:00000208       ___xi_a                    10046208     LIBCMT:crt0init.obj
 0002:00000424       ___xi_z                    10046424     LIBCMT:crt0init.obj
 0002:00000528       ___xp_a                    10046528     LIBCMT:crt0init.obj
 0002:0000083c       ___xp_z                    1004683c     LIBCMT:crt0init.obj
 0002:00000940       ___xt_a                    10046940     LIBCMT:crt0init.obj
 0002:00000a44       ___xt_z                    10046a44     LIBCMT:crt0init.obj
 0002:00000b88       _Pump2Test0_1_M            10046b88     Pump2Test0_1.obj
 0002:00000b90       __real@0000000000000000    10046b90     Pump2Test0_1.obj
 0002:00000ba0       __real@3f847ae147ae147b    10046ba0     Pump2Test0_1.obj
 0002:00000bb0       __real@3fb999999999999a    10046bb0     Pump2Test0_1.obj
 0002:00000bc0       __real@3fe999999999999a    10046bc0     Pump2Test0_1.obj
 0002:00000bd0       __real@3ff0000000000000    10046bd0     Pump2Test0_1.obj
 0002:00000be0       __real@4008000000000000    10046be0     Pump2Test0_1.obj
 0002:00000bf0       __real@4059000000000000    10046bf0     Pump2Test0_1.obj
 0002:00000c00       __real@409f400000000000    10046c00     Pump2Test0_1.obj
 0002:00000c10       __real@40d3880000000000    10046c10     Pump2Test0_1.obj
 0002:00000c20       __real@41f0000000000000    10046c20     Pump2Test0_1.obj
 0002:00000c30       __xmm@41f00000000000000000000000000000 10046c30     Pump2Test0_1.obj
 0002:000010e0       _Pump2Test0_1_ConstB       100470e0     Pump2Test0_1_data.obj
 0002:000010e8       _Pump2Test0_1_ConstP       100470e8     Pump2Test0_1_data.obj
 0002:0000166c       __real@00000000            1004766c     rtGetNaN.obj
 0002:00001ed0       __real@41dfffffffc00000    10047ed0     rt_logging.obj
 0002:00001ee0       __real@41efffffffe00000    10047ee0     rt_logging.obj
 0002:00001ef0       __real@bfbf9add3afd2773    10047ef0     rt_logging.obj
 0002:00001f00       __real@bff0000000000000    10047f00     rt_logging.obj
 0002:00001f10       __real@c000000000000000    10047f10     rt_logging.obj
 0002:00001f38       __real@3cb0000000000000    10047f38     rt_matrx.obj
 0002:00001f48       __real@3fe0000000000000    10047f48     rt_matrx.obj
 0002:00001f54       _serialfifoground          10047f54     xpc_datatype_ground.obj
 0002:00001f60       _bcmsg1553ground           10047f60     xpc_datatype_ground.obj
 0002:00001f70       _bcstatground              10047f70     xpc_datatype_ground.obj
 0002:00001f88       _bmmsg1553ground           10047f88     xpc_datatype_ground.obj
 0002:00001fa8       _ptsetfilename             10047fa8     xpctarget.obj
 0002:00001fac       _xmlfile                   10047fac     xpctarget.obj
 0002:00001fb8       _Pump2Test0_1_BIOMAP       10047fb8     appmappingData.obj
 0002:00002114       _Pump2Test0_1_SPTMAP       10048114     appmappingData.obj
 0002:00002118       _Pump2Test0_1_LBLMAP       10048118     appmappingData.obj
 0002:00002274       _Pump2Test0_1_dtmap        10048274     appmappingData.obj
 0002:00002280       _Pump2Test0_1_SIDMAP       10048280     appmappingData.obj
 0002:000023e0       _Pump2Test0_1_SBIO         100483e0     appmappingData.obj
 0002:00002458       _Pump2Test0_1_SLBL         10048458     appmappingData.obj
 0002:000024cc       _Pump2Test0_1_PTIDSMAP     100484cc     appmappingData.obj
 0002:000024d4       _Pump2Test0_1_PTNAMESMAP   100484d4     appmappingData.obj
 0002:000024e0       _appInfo                   100484e0     appmappingData.obj
 0002:00002648       __real@417312d000000000    10048648     adnipcim.obj
 0002:00002654       __real@46fffe00            10048654     danipcim.obj
 0002:00002658       __FPinit                   10048658     LIBCMT:fpinit.obj
 0002:00002664       ??_C@_1BI@BGOHAHKC@?$AAm?$AAs?$AAc?$AAo?$AAr?$AAe?$AAe?$AA?4?$AAd?$AAl?$AAl?$AA?$AA@ 10048664     LIBCMT:crt0dat.obj
 0002:0000267c       ??_C@_0P@MIGLKIOC@CorExitProcess?$AA@ 1004867c     LIBCMT:crt0dat.obj
 0002:00002764       ??_C@_17LGKOMLJ@?$AA?4?$AA?4?$AA?4?$AA?$AA@ 10048764     LIBCMT:wassert.obj
 0002:0000276c       ??_C@_13LBAGMAIH@?$AA?6?$AA?$AA@ 1004876c     LIBCMT:wassert.obj
 0002:00002770       ??_C@_15IABLJNFO@?$AA?6?$AA?6?$AA?$AA@ 10048770     LIBCMT:wassert.obj
 0002:00002778       ??_C@_1CE@OJBNHDMO@?$AAA?$AAs?$AAs?$AAe?$AAr?$AAt?$AAi?$AAo?$AAn?$AA?5?$AAf?$AAa?$AAi?$AAl?$AAe?$AAd?$AA?$CB?$AA?$AA@ 10048778     LIBCMT:wassert.obj
 0002:0000279c       ??_C@_1BE@PHKBBGE@?$AAP?$AAr?$AAo?$AAg?$AAr?$AAa?$AAm?$AA?3?$AA?5?$AA?$AA@ 1004879c     LIBCMT:wassert.obj
 0002:000027b0       ??_C@_1CO@EAEJAADC@?$AA?$DM?$AAp?$AAr?$AAo?$AAg?$AAr?$AAa?$AAm?$AA?5?$AAn?$AAa?$AAm?$AAe?$AA?5?$AAu?$AAn?$AAk?$AAn?$AAo?$AAw?$AAn?$AA?$DO?$AA?$AA@ 100487b0     LIBCMT:wassert.obj
 0002:000027e0       ??_C@_1O@HEMHKNDC@?$AAF?$AAi?$AAl?$AAe?$AA?3?$AA?5?$AA?$AA@ 100487e0     LIBCMT:wassert.obj
 0002:000027f0       ??_C@_1O@KCAFKHJE@?$AAL?$AAi?$AAn?$AAe?$AA?3?$AA?5?$AA?$AA@ 100487f0     LIBCMT:wassert.obj
 0002:00002800       ??_C@_1BK@PEDCIPMA@?$AAE?$AAx?$AAp?$AAr?$AAe?$AAs?$AAs?$AAi?$AAo?$AAn?$AA?3?$AA?5?$AA?$AA@ 10048800     LIBCMT:wassert.obj
 0002:00002820       ??_C@_1OA@EGMLFBHJ@?$AAF?$AAo?$AAr?$AA?5?$AAi?$AAn?$AAf?$AAo?$AAr?$AAm?$AAa?$AAt?$AAi?$AAo?$AAn?$AA?5?$AAo?$AAn?$AA?5?$AAh?$AAo?$AAw?$AA?5?$AAy?$AAo?$AAu?$AAr?$AA?5?$AAp?$AAr?$AAo?$AAg@ 10048820     LIBCMT:wassert.obj
 0002:00002900       ??_C@_1HK@POCJMFGK@?$AA?$CI?$AAP?$AAr?$AAe?$AAs?$AAs?$AA?5?$AAR?$AAe?$AAt?$AAr?$AAy?$AA?5?$AAt?$AAo?$AA?5?$AAd?$AAe?$AAb?$AAu?$AAg?$AA?5?$AAt?$AAh?$AAe?$AA?5?$AAa?$AAp?$AAp?$AAl?$AAi?$AAc@ 10048900     LIBCMT:wassert.obj
 0002:00002980       ??_C@_1EK@MBDPDCGA@?$AAM?$AAi?$AAc?$AAr?$AAo?$AAs?$AAo?$AAf?$AAt?$AA?5?$AAV?$AAi?$AAs?$AAu?$AAa?$AAl?$AA?5?$AAC?$AA?$CL?$AA?$CL?$AA?5?$AAR?$AAu?$AAn?$AAt?$AAi?$AAm?$AAe?$AA?5?$AAL?$AAi?$AAb@ 10048980     LIBCMT:wassert.obj
 0002:000029cc       __pDefaultRawDllMain       100489cc     LIBCMT:dllcrt0.obj
 0002:000029cc       __pRawDllMain              100489cc     LIBCMT:dllcrt0.obj
 0002:000029d0       ?ProcessDetach@NativeDll@<CrtImplementationDetails>@@0IB 100489d0     LIBCMT:handler.obj
 0002:000029d4       ?ProcessAttach@NativeDll@<CrtImplementationDetails>@@0IB 100489d4     LIBCMT:handler.obj
 0002:000029d8       ?ThreadAttach@NativeDll@<CrtImplementationDetails>@@0IB 100489d8     LIBCMT:handler.obj
 0002:000029dc       ?ThreadDetach@NativeDll@<CrtImplementationDetails>@@0IB 100489dc     LIBCMT:handler.obj
 0002:000029e0       ?ProcessVerifier@NativeDll@<CrtImplementationDetails>@@0IB 100489e0     LIBCMT:handler.obj
 0002:00002aa0       ??_C@_1FK@PGACCAFB@?$AAR?$AA6?$AA0?$AA0?$AA2?$AA?$AN?$AA?6?$AA?9?$AA?5?$AAf?$AAl?$AAo?$AAa?$AAt?$AAi?$AAn?$AAg?$AA?5?$AAp?$AAo?$AAi?$AAn?$AAt?$AA?5?$AAs?$AAu?$AAp?$AAp?$AAo?$AAr?$AAt?$AA?5@ 10048aa0     LIBCMT:crt0msg.obj
 0002:00002b00       ??_C@_1FE@LLNEDJMD@?$AAR?$AA6?$AA0?$AA0?$AA8?$AA?$AN?$AA?6?$AA?9?$AA?5?$AAn?$AAo?$AAt?$AA?5?$AAe?$AAn?$AAo?$AAu?$AAg?$AAh?$AA?5?$AAs?$AAp?$AAa?$AAc?$AAe?$AA?5?$AAf?$AAo?$AAr?$AA?5?$AAa?$AAr@ 10048b00     LIBCMT:crt0msg.obj
 0002:00002b58       ??_C@_1FI@HONFMGBI@?$AAR?$AA6?$AA0?$AA0?$AA9?$AA?$AN?$AA?6?$AA?9?$AA?5?$AAn?$AAo?$AAt?$AA?5?$AAe?$AAn?$AAo?$AAu?$AAg?$AAh?$AA?5?$AAs?$AAp?$AAa?$AAc?$AAe?$AA?5?$AAf?$AAo?$AAr?$AA?5?$AAe?$AAn@ 10048b58     LIBCMT:crt0msg.obj
 0002:00002bb0       ??_C@_1EG@BEHAGFJD@?$AAR?$AA6?$AA0?$AA1?$AA0?$AA?$AN?$AA?6?$AA?9?$AA?5?$AAa?$AAb?$AAo?$AAr?$AAt?$AA?$CI?$AA?$CJ?$AA?5?$AAh?$AAa?$AAs?$AA?5?$AAb?$AAe?$AAe?$AAn?$AA?5?$AAc?$AAa?$AAl?$AAl?$AAe?$AAd@ 10048bb0     LIBCMT:crt0msg.obj
 0002:00002bf8       ??_C@_1FI@LOGNIKDM@?$AAR?$AA6?$AA0?$AA1?$AA6?$AA?$AN?$AA?6?$AA?9?$AA?5?$AAn?$AAo?$AAt?$AA?5?$AAe?$AAn?$AAo?$AAu?$AAg?$AAh?$AA?5?$AAs?$AAp?$AAa?$AAc?$AAe?$AA?5?$AAf?$AAo?$AAr?$AA?5?$AAt?$AAh@ 10048bf8     LIBCMT:crt0msg.obj
 0002:00002c50       ??_C@_1FK@BEOGODMC@?$AAR?$AA6?$AA0?$AA1?$AA7?$AA?$AN?$AA?6?$AA?9?$AA?5?$AAu?$AAn?$AAe?$AAx?$AAp?$AAe?$AAc?$AAt?$AAe?$AAd?$AA?5?$AAm?$AAu?$AAl?$AAt?$AAi?$AAt?$AAh?$AAr?$AAe?$AAa?$AAd?$AA?5@ 10048c50     LIBCMT:crt0msg.obj
 0002:00002cb0       ??_C@_1EC@JIBHAOPH@?$AAR?$AA6?$AA0?$AA1?$AA8?$AA?$AN?$AA?6?$AA?9?$AA?5?$AAu?$AAn?$AAe?$AAx?$AAp?$AAe?$AAc?$AAt?$AAe?$AAd?$AA?5?$AAh?$AAe?$AAa?$AAp?$AA?5?$AAe?$AAr?$AAr?$AAo?$AAr?$AA?$AN?$AA?6@ 10048cb0     LIBCMT:crt0msg.obj
 0002:00002cf8       ??_C@_1FC@ECHBIFBC@?$AAR?$AA6?$AA0?$AA1?$AA9?$AA?$AN?$AA?6?$AA?9?$AA?5?$AAu?$AAn?$AAa?$AAb?$AAl?$AAe?$AA?5?$AAt?$AAo?$AA?5?$AAo?$AAp?$AAe?$AAn?$AA?5?$AAc?$AAo?$AAn?$AAs?$AAo?$AAl?$AAe?$AA?5@ 10048cf8     LIBCMT:crt0msg.obj
 0002:00002d50       ??_C@_1GK@FHCKBEFA@?$AAR?$AA6?$AA0?$AA2?$AA4?$AA?$AN?$AA?6?$AA?9?$AA?5?$AAn?$AAo?$AAt?$AA?5?$AAe?$AAn?$AAo?$AAu?$AAg?$AAh?$AA?5?$AAs?$AAp?$AAa?$AAc?$AAe?$AA?5?$AAf?$AAo?$AAr?$AA?5?$AA_?$AAo@ 10048d50     LIBCMT:crt0msg.obj
 0002:00002dc0       ??_C@_1EM@MAADIHMB@?$AAR?$AA6?$AA0?$AA2?$AA5?$AA?$AN?$AA?6?$AA?9?$AA?5?$AAp?$AAu?$AAr?$AAe?$AA?5?$AAv?$AAi?$AAr?$AAt?$AAu?$AAa?$AAl?$AA?5?$AAf?$AAu?$AAn?$AAc?$AAt?$AAi?$AAo?$AAn?$AA?5?$AAc@ 10048dc0     LIBCMT:crt0msg.obj
 0002:00002e10       ??_C@_1GK@MCAAGJMO@?$AAR?$AA6?$AA0?$AA2?$AA6?$AA?$AN?$AA?6?$AA?9?$AA?5?$AAn?$AAo?$AAt?$AA?5?$AAe?$AAn?$AAo?$AAu?$AAg?$AAh?$AA?5?$AAs?$AAp?$AAa?$AAc?$AAe?$AA?5?$AAf?$AAo?$AAr?$AA?5?$AAs?$AAt@ 10048e10     LIBCMT:crt0msg.obj
 0002:00002e80       ??_C@_1GK@MFGOKLAG@?$AAR?$AA6?$AA0?$AA2?$AA7?$AA?$AN?$AA?6?$AA?9?$AA?5?$AAn?$AAo?$AAt?$AA?5?$AAe?$AAn?$AAo?$AAu?$AAg?$AAh?$AA?5?$AAs?$AAp?$AAa?$AAc?$AAe?$AA?5?$AAf?$AAo?$AAr?$AA?5?$AAl?$AAo@ 10048e80     LIBCMT:crt0msg.obj
 0002:00002ef0       ??_C@_1EK@HHFLMAOL@?$AAR?$AA6?$AA0?$AA2?$AA8?$AA?$AN?$AA?6?$AA?9?$AA?5?$AAu?$AAn?$AAa?$AAb?$AAl?$AAe?$AA?5?$AAt?$AAo?$AA?5?$AAi?$AAn?$AAi?$AAt?$AAi?$AAa?$AAl?$AAi?$AAz?$AAe?$AA?5?$AAh?$AAe@ 10048ef0     LIBCMT:crt0msg.obj
 0002:00002f3c       ??_C@_1DO@BMFCDCD@?$AAR?$AA6?$AA0?$AA3?$AA0?$AA?$AN?$AA?6?$AA?9?$AA?5?$AAC?$AAR?$AAT?$AA?5?$AAn?$AAo?$AAt?$AA?5?$AAi?$AAn?$AAi?$AAt?$AAi?$AAa?$AAl?$AAi?$AAz?$AAe?$AAd?$AA?$AN?$AA?6?$AA?$AA@ 10048f3c     LIBCMT:crt0msg.obj
 0002:00002f80       ??_C@_1MG@ENCOOIDF@?$AAR?$AA6?$AA0?$AA3?$AA1?$AA?$AN?$AA?6?$AA?9?$AA?5?$AAA?$AAt?$AAt?$AAe?$AAm?$AAp?$AAt?$AA?5?$AAt?$AAo?$AA?5?$AAi?$AAn?$AAi?$AAt?$AAi?$AAa?$AAl?$AAi?$AAz?$AAe?$AA?5?$AAt@ 10048f80     LIBCMT:crt0msg.obj
 0002:00003048       ??_C@_1GG@GOPILAJP@?$AAR?$AA6?$AA0?$AA3?$AA2?$AA?$AN?$AA?6?$AA?9?$AA?5?$AAn?$AAo?$AAt?$AA?5?$AAe?$AAn?$AAo?$AAu?$AAg?$AAh?$AA?5?$AAs?$AAp?$AAa?$AAc?$AAe?$AA?5?$AAf?$AAo?$AAr?$AA?5?$AAl?$AAo@ 10049048     LIBCMT:crt0msg.obj
 0002:000030b0       ??_C@_1BOO@KGEDBGAJ@?$AAR?$AA6?$AA0?$AA3?$AA3?$AA?$AN?$AA?6?$AA?9?$AA?5?$AAA?$AAt?$AAt?$AAe?$AAm?$AAp?$AAt?$AA?5?$AAt?$AAo?$AA?5?$AAu?$AAs?$AAe?$AA?5?$AAM?$AAS?$AAI?$AAL?$AA?5?$AAc?$AAo?$AAd@ 100490b0     LIBCMT:crt0msg.obj
 0002:000032a0       ??_C@_1GG@MKFPEKFO@?$AAR?$AA6?$AA0?$AA3?$AA4?$AA?$AN?$AA?6?$AA?9?$AA?5?$AAi?$AAn?$AAc?$AAo?$AAn?$AAs?$AAi?$AAs?$AAt?$AAe?$AAn?$AAt?$AA?5?$AAo?$AAn?$AAe?$AAx?$AAi?$AAt?$AA?5?$AAb?$AAe?$AAg@ 100492a0     LIBCMT:crt0msg.obj
 0002:00003308       ??_C@_1BO@BFCDCGC@?$AAD?$AAO?$AAM?$AAA?$AAI?$AAN?$AA?5?$AAe?$AAr?$AAr?$AAo?$AAr?$AA?$AN?$AA?6?$AA?$AA@ 10049308     LIBCMT:crt0msg.obj
 0002:00003328       ??_C@_1BK@KMOMNAAI@?$AAS?$AAI?$AAN?$AAG?$AA?5?$AAe?$AAr?$AAr?$AAo?$AAr?$AA?$AN?$AA?6?$AA?$AA@ 10049328     LIBCMT:crt0msg.obj
 0002:00003344       ??_C@_1BM@JBBEPPHI@?$AAT?$AAL?$AAO?$AAS?$AAS?$AA?5?$AAe?$AAr?$AAr?$AAo?$AAr?$AA?$AN?$AA?6?$AA?$AA@ 10049344     LIBCMT:crt0msg.obj
 0002:00003360       ??_C@_15JNBOKNOG@?$AA?$AN?$AA?6?$AA?$AA@ 10049360     LIBCMT:crt0msg.obj
 0002:00003368       ??_C@_1BO@BKOMIGKJ@?$AAr?$AAu?$AAn?$AAt?$AAi?$AAm?$AAe?$AA?5?$AAe?$AAr?$AAr?$AAo?$AAr?$AA?5?$AA?$AA@ 10049368     LIBCMT:crt0msg.obj
 0002:00003388       ??_C@_1DE@JNGNBFGO@?$AAR?$AAu?$AAn?$AAt?$AAi?$AAm?$AAe?$AA?5?$AAE?$AAr?$AAr?$AAo?$AAr?$AA?$CB?$AA?6?$AA?6?$AAP?$AAr?$AAo?$AAg?$AAr?$AAa?$AAm?$AA?3?$AA?5?$AA?$AA@ 10049388     LIBCMT:crt0msg.obj
 0002:000033bc       ??_C@_06OJHGLDPL@?$CInull?$CJ?$AA@ 100493bc     LIBCMT:output.obj
 0002:000033c4       ??_C@_1O@CEDCILHN@?$AA?$CI?$AAn?$AAu?$AAl?$AAl?$AA?$CJ?$AA?$AA@ 100493c4     LIBCMT:output.obj
 0002:000033d8       ___lookuptable             100493d8     LIBCMT:output.obj
 0002:00003434       ??_C@_05KLBDPFGC@e?$CL000?$AA@ 10049434     LIBCMT:cvt.obj
 0002:0000343c       ??_C@_1BK@MGMFAEKH@?$AAk?$AAe?$AAr?$AAn?$AAe?$AAl?$AA3?$AA2?$AA?4?$AAd?$AAl?$AAl?$AA?$AA@ 1004943c     LIBCMT:winapisupp.obj
 0002:00003458       ??_C@_08KNHFBNJ@FlsAlloc?$AA@ 10049458     LIBCMT:winapisupp.obj
 0002:00003464       ??_C@_07PEJMOBNF@FlsFree?$AA@ 10049464     LIBCMT:winapisupp.obj
 0002:0000346c       ??_C@_0M@GDNOONDI@FlsGetValue?$AA@ 1004946c     LIBCMT:winapisupp.obj
 0002:00003478       ??_C@_0M@JCPCPOEF@FlsSetValue?$AA@ 10049478     LIBCMT:winapisupp.obj
 0002:00003484       ??_C@_0BM@HCFOFFN@InitializeCriticalSectionEx?$AA@ 10049484     LIBCMT:winapisupp.obj
 0002:000034a0       ??_C@_0P@DLHPPCNH@CreateEventExW?$AA@ 100494a0     LIBCMT:winapisupp.obj
 0002:000034b0       ??_C@_0BD@KIEEOEEH@CreateSemaphoreExW?$AA@ 100494b0     LIBCMT:winapisupp.obj
 0002:000034c4       ??_C@_0BI@BKLFFAPO@SetThreadStackGuarantee?$AA@ 100494c4     LIBCMT:winapisupp.obj
 0002:000034dc       ??_C@_0BG@OGFAJCKC@CreateThreadpoolTimer?$AA@ 100494dc     LIBCMT:winapisupp.obj
 0002:000034f4       ??_C@_0BD@LPLEMMDI@SetThreadpoolTimer?$AA@ 100494f4     LIBCMT:winapisupp.obj
 0002:00003508       ??_C@_0CA@FMNJENH@WaitForThreadpoolTimerCallbacks?$AA@ 10049508     LIBCMT:winapisupp.obj
 0002:00003528       ??_C@_0BF@DCFCCNOC@CloseThreadpoolTimer?$AA@ 10049528     LIBCMT:winapisupp.obj
 0002:00003540       ??_C@_0BF@FLABGKKM@CreateThreadpoolWait?$AA@ 10049540     LIBCMT:winapisupp.obj
 0002:00003558       ??_C@_0BC@MGCOHNA@SetThreadpoolWait?$AA@ 10049558     LIBCMT:winapisupp.obj
 0002:0000356c       ??_C@_0BE@OCIOMIMP@CloseThreadpoolWait?$AA@ 1004956c     LIBCMT:winapisupp.obj
 0002:00003580       ??_C@_0BJ@LKGHFHBO@FlushProcessWriteBuffers?$AA@ 10049580     LIBCMT:winapisupp.obj
 0002:0000359c       ??_C@_0BP@KALKKPMO@FreeLibraryWhenCallbackReturns?$AA@ 1004959c     LIBCMT:winapisupp.obj
 0002:000035bc       ??_C@_0BK@DFNBACLA@GetCurrentProcessorNumber?$AA@ 100495bc     LIBCMT:winapisupp.obj
 0002:000035d8       ??_C@_0BP@KHGALBC@GetLogicalProcessorInformation?$AA@ 100495d8     LIBCMT:winapisupp.obj
 0002:000035f8       ??_C@_0BE@FKKLLFLM@CreateSymbolicLinkW?$AA@ 100495f8     LIBCMT:winapisupp.obj
 0002:0000360c       ??_C@_0BJ@OHNKDLIJ@SetDefaultDllDirectories?$AA@ 1004960c     LIBCMT:winapisupp.obj
 0002:00003628       ??_C@_0BE@LJANKFHF@EnumSystemLocalesEx?$AA@ 10049628     LIBCMT:winapisupp.obj
 0002:0000363c       ??_C@_0BA@IHGNDAEB@CompareStringEx?$AA@ 1004963c     LIBCMT:winapisupp.obj
 0002:0000364c       ??_C@_0BA@EPCJIIPD@GetDateFormatEx?$AA@ 1004964c     LIBCMT:winapisupp.obj
 0002:0000365c       ??_C@_0BA@ONOKGCMP@GetLocaleInfoEx?$AA@ 1004965c     LIBCMT:winapisupp.obj
 0002:0000366c       ??_C@_0BA@CIJJKCJJ@GetTimeFormatEx?$AA@ 1004966c     LIBCMT:winapisupp.obj
 0002:0000367c       ??_C@_0BJ@PBCCBIPI@GetUserDefaultLocaleName?$AA@ 1004967c     LIBCMT:winapisupp.obj
 0002:00003698       ??_C@_0BC@CELBKLLA@IsValidLocaleName?$AA@ 10049698     LIBCMT:winapisupp.obj
 0002:000036ac       ??_C@_0O@KKBNKAPF@LCMapStringEx?$AA@ 100496ac     LIBCMT:winapisupp.obj
 0002:000036bc       ??_C@_0BE@JOGNEJCI@GetCurrentPackageId?$AA@ 100496bc     LIBCMT:winapisupp.obj
 0002:000036d0       ??_C@_0P@CDHHOHKP@GetTickCount64?$AA@ 100496d0     LIBCMT:winapisupp.obj
 0002:000036e0       ??_C@_0BO@KPCLFDJJ@GetFileInformationByHandleExW?$AA@ 100496e0     LIBCMT:winapisupp.obj
 0002:00003700       ??_C@_0BM@MHIDLABK@SetFileInformationByHandleW?$AA@ 10049700     LIBCMT:winapisupp.obj
 0002:0000371c       ??_C@_1BK@GAEMIDIL@?$AAA?$AAD?$AAV?$AAA?$AAP?$AAI?$AA3?$AA2?$AA?4?$AAD?$AAL?$AAL?$AA?$AA@ 1004971c     LIBCMT:rand_s.obj
 0002:00003738       ??_C@_0BC@JEAENNKH@SystemFunction036?$AA@ 10049738     LIBCMT:rand_s.obj
 0002:0000375c       ??_C@_1M@HPNHIDJI@?$AAj?$AAa?$AA?9?$AAJ?$AAP?$AA?$AA@ 1004975c     LIBCMT:mbctype.obj
 0002:00003768       ??_C@_1M@BIBDDEMK@?$AAz?$AAh?$AA?9?$AAC?$AAN?$AA?$AA@ 10049768     LIBCMT:mbctype.obj
 0002:00003774       ??_C@_1M@JLOOOEGK@?$AAk?$AAo?$AA?9?$AAK?$AAR?$AA?$AA@ 10049774     LIBCMT:mbctype.obj
 0002:00003780       ??_C@_1M@CLNBBOPM@?$AAz?$AAh?$AA?9?$AAT?$AAW?$AA?$AA@ 10049780     LIBCMT:mbctype.obj
 0002:00003818       ??_C@_03MGHMBJCF@log?$AA@  10049818     LIBCMT:libm_error.obj
 0002:0000381c       ??_C@_05HGHHAHAP@log10?$AA@ 1004981c     LIBCMT:libm_error.obj
 0002:00003824       ??_C@_03KHJOGHMM@exp?$AA@  10049824     LIBCMT:libm_error.obj
 0002:00003828       ??_C@_03JGHBODFD@pow?$AA@  10049828     LIBCMT:libm_error.obj
 0002:0000382c       ??_C@_04FIHNOPOL@asin?$AA@ 1004982c     LIBCMT:libm_error.obj
 0002:00003834       ??_C@_04PDIFKINK@acos?$AA@ 10049834     LIBCMT:libm_error.obj
 0002:0000383c       ??_C@_05EOHGHCHD@exp10?$AA@ 1004983c     LIBCMT:libm_error.obj
 0002:00003844       ??_C@_04MLLJIGOK@atan?$AA@ 10049844     LIBCMT:libm_error.obj
 0002:0000384c       ??_C@_04GFPJNGEK@ceil?$AA@ 1004984c     LIBCMT:libm_error.obj
 0002:00003854       ??_C@_05PBJFFIGL@floor?$AA@ 10049854     LIBCMT:libm_error.obj
 0002:0000385c       ??_C@_04EHEDPDJG@modf?$AA@ 1004985c     LIBCMT:libm_error.obj
 0002:00003864       ??_C@_03BLEJJJBH@sin?$AA@  10049864     LIBCMT:libm_error.obj
 0002:00003868       ??_C@_03LALBNOCG@cos?$AA@  10049868     LIBCMT:libm_error.obj
 0002:0000386c       ??_C@_03IIINPABG@tan?$AA@  1004986c     LIBCMT:libm_error.obj
 0002:00003870       ??_C@_04EIAKFFMI@sqrt?$AA@ 10049870     LIBCMT:libm_error.obj
 0002:00003878       ??_C@_04COOMCNPB@sinh?$AA@ 10049878     LIBCMT:fpexcept.obj
 0002:00003880       ??_C@_04HPJJNFIM@cosh?$AA@ 10049880     LIBCMT:fpexcept.obj
 0002:00003888       ??_C@_04FJHINJAO@tanh?$AA@ 10049888     LIBCMT:fpexcept.obj
 0002:00003890       ??_C@_05KNGEOGJB@atan2?$AA@ 10049890     LIBCMT:fpexcept.obj
 0002:00003898       ??_C@_04ODHECPBC@fabs?$AA@ 10049898     LIBCMT:fpexcept.obj
 0002:000038a0       ??_C@_05CEJMAHNP@ldexp?$AA@ 100498a0     LIBCMT:fpexcept.obj
 0002:000038a8       ??_C@_05KBKMEMPO@_cabs?$AA@ 100498a8     LIBCMT:fpexcept.obj
 0002:000038b0       ??_C@_06MEIMCGCF@_hypot?$AA@ 100498b0     LIBCMT:fpexcept.obj
 0002:000038b8       ??_C@_04KEPJIHGP@fmod?$AA@ 100498b8     LIBCMT:fpexcept.obj
 0002:000038c0       ??_C@_05GKKHEGJL@frexp?$AA@ 100498c0     LIBCMT:fpexcept.obj
 0002:000038c8       ??_C@_03MJLDFKDL@_y0?$AA@  100498c8     LIBCMT:fpexcept.obj
 0002:000038cc       ??_C@_03NAKIGLHK@_y1?$AA@  100498cc     LIBCMT:fpexcept.obj
 0002:000038d0       ??_C@_03ONILCKOB@_yn?$AA@  100498d0     LIBCMT:fpexcept.obj
 0002:000038d4       ??_C@_05JGDBENOH@_logb?$AA@ 100498d4     LIBCMT:fpexcept.obj
 0002:000038dc       ??_C@_0L@KDOEJCKC@_nextafter?$AA@ 100498dc     LIBCMT:fpexcept.obj
 0002:000038e8       ??_C@_1BG@GOEBHBDC@?$AAU?$AAS?$AAE?$AAR?$AA3?$AA2?$AA?4?$AAD?$AAL?$AAL?$AA?$AA@ 100498e8     LIBCMT:crtmboxw.obj
 0002:00003900       ??_C@_0M@DLDCCGNP@MessageBoxW?$AA@ 10049900     LIBCMT:crtmboxw.obj
 0002:0000390c       ??_C@_0BA@HNOPNCHB@GetActiveWindow?$AA@ 1004990c     LIBCMT:crtmboxw.obj
 0002:0000391c       ??_C@_0BD@HHGDFDBJ@GetLastActivePopup?$AA@ 1004991c     LIBCMT:crtmboxw.obj
 0002:00003930       ??_C@_0BK@DEKFELLI@GetUserObjectInformationW?$AA@ 10049930     LIBCMT:crtmboxw.obj
 0002:0000394c       ??_C@_0BI@DFKBFLJE@GetProcessWindowStation?$AA@ 1004994c     LIBCMT:crtmboxw.obj
 0002:00003968       __XcptActTab               10049968     LIBCMT:winxfltr.obj
 0002:000039f8       __XcptActTabCount          100499f8     LIBCMT:winxfltr.obj
 0002:000039fc       __XcptActTabSize           100499fc     LIBCMT:winxfltr.obj
 0002:00003a00       __First_FPE_Indx           10049a00     LIBCMT:winxfltr.obj
 0002:00003a04       __Num_FPE                  10049a04     LIBCMT:winxfltr.obj
 0002:00003a08       ___lookuptable_s           10049a08     LIBCMT:outputs.obj
 0002:00003a64       ??_C@_03KOEHGMDN@Sun?$AA@  10049a64     LIBCMT:nlsdata.obj
 0002:00003a68       ??_C@_03PDAGKDH@Mon?$AA@   10049a68     LIBCMT:nlsdata.obj
 0002:00003a6c       ??_C@_03NAGEINEP@Tue?$AA@  10049a6c     LIBCMT:nlsdata.obj
 0002:00003a70       ??_C@_03MHOMLAJA@Wed?$AA@  10049a70     LIBCMT:nlsdata.obj
 0002:00003a74       ??_C@_03IOFIKPDN@Thu?$AA@  10049a74     LIBCMT:nlsdata.obj
 0002:00003a78       ??_C@_03IDIOELNC@Fri?$AA@  10049a78     LIBCMT:nlsdata.obj
 0002:00003a7c       ??_C@_03FEFJNEK@Sat?$AA@   10049a7c     LIBCMT:nlsdata.obj
 0002:00003a80       ??_C@_06OOPIFAJ@Sunday?$AA@ 10049a80     LIBCMT:nlsdata.obj
 0002:00003a88       ??_C@_06JLEDEDGH@Monday?$AA@ 10049a88     LIBCMT:nlsdata.obj
 0002:00003a90       ??_C@_07BAAGCFCM@Tuesday?$AA@ 10049a90     LIBCMT:nlsdata.obj
 0002:00003a98       ??_C@_09DLIGFAKA@Wednesday?$AA@ 10049a98     LIBCMT:nlsdata.obj
 0002:00003aa4       ??_C@_08HACCIKIA@Thursday?$AA@ 10049aa4     LIBCMT:nlsdata.obj
 0002:00003ab0       ??_C@_06JECMNKMI@Friday?$AA@ 10049ab0     LIBCMT:nlsdata.obj
 0002:00003ab8       ??_C@_08INBOOONO@Saturday?$AA@ 10049ab8     LIBCMT:nlsdata.obj
 0002:00003ac4       ??_C@_03JIHJHPIE@Jan?$AA@  10049ac4     LIBCMT:nlsdata.obj
 0002:00003ac8       ??_C@_03HJBDCHOM@Feb?$AA@  10049ac8     LIBCMT:nlsdata.obj
 0002:00003acc       ??_C@_03ODNJBKGA@Mar?$AA@  10049acc     LIBCMT:nlsdata.obj
 0002:00003ad0       ??_C@_03LEOLGMJP@Apr?$AA@  10049ad0     LIBCMT:nlsdata.obj
 0002:00003ad4       ??_C@_03CNMDKL@May?$AA@    10049ad4     LIBCMT:nlsdata.obj
 0002:00003ad8       ??_C@_03IDFGHECI@Jun?$AA@  10049ad8     LIBCMT:nlsdata.obj
 0002:00003adc       ??_C@_03LBGABGKK@Jul?$AA@  10049adc     LIBCMT:nlsdata.obj
 0002:00003ae0       ??_C@_03IFJFEIGA@Aug?$AA@  10049ae0     LIBCMT:nlsdata.obj
 0002:00003ae4       ??_C@_03GGCAPAJC@Sep?$AA@  10049ae4     LIBCMT:nlsdata.obj
 0002:00003ae8       ??_C@_03BMAOKBAD@Oct?$AA@  10049ae8     LIBCMT:nlsdata.obj
 0002:00003aec       ??_C@_03JPJOFNIA@Nov?$AA@  10049aec     LIBCMT:nlsdata.obj
 0002:00003af0       ??_C@_03MKABNOCG@Dec?$AA@  10049af0     LIBCMT:nlsdata.obj
 0002:00003af4       ??_C@_07CGJPFGJA@January?$AA@ 10049af4     LIBCMT:nlsdata.obj
 0002:00003afc       ??_C@_08GNJGEPFN@February?$AA@ 10049afc     LIBCMT:nlsdata.obj
 0002:00003b08       ??_C@_05HPCKOFNC@March?$AA@ 10049b08     LIBCMT:nlsdata.obj
 0002:00003b10       ??_C@_05DMJDNLEJ@April?$AA@ 10049b10     LIBCMT:nlsdata.obj
 0002:00003b18       ??_C@_04CNLMGBGM@June?$AA@ 10049b18     LIBCMT:nlsdata.obj
 0002:00003b20       ??_C@_04MIEPOIFP@July?$AA@ 10049b20     LIBCMT:nlsdata.obj
 0002:00003b28       ??_C@_06LBBHFDDG@August?$AA@ 10049b28     LIBCMT:nlsdata.obj
 0002:00003b30       ??_C@_09BHHEALKD@September?$AA@ 10049b30     LIBCMT:nlsdata.obj
 0002:00003b3c       ??_C@_07JJNFCEND@October?$AA@ 10049b3c     LIBCMT:nlsdata.obj
 0002:00003b44       ??_C@_08HCHEGEOA@November?$AA@ 10049b44     LIBCMT:nlsdata.obj
 0002:00003b50       ??_C@_08EDHMEBNP@December?$AA@ 10049b50     LIBCMT:nlsdata.obj
 0002:00003b5c       ??_C@_02DEDBPAFC@AM?$AA@   10049b5c     LIBCMT:nlsdata.obj
 0002:00003b60       ??_C@_02CJNFDJBF@PM?$AA@   10049b60     LIBCMT:nlsdata.obj
 0002:00003b64       ??_C@_08BPBNCDIB@MM?1dd?1yy?$AA@ 10049b64     LIBCMT:nlsdata.obj
 0002:00003b70       ??_C@_0BE@CKGJFCPC@dddd?0?5MMMM?5dd?0?5yyyy?$AA@ 10049b70     LIBCMT:nlsdata.obj
 0002:00003b84       ??_C@_08JCCMCCIL@HH?3mm?3ss?$AA@ 10049b84     LIBCMT:nlsdata.obj
 0002:00003b90       ??_C@_17MBGCMIPB@?$AAS?$AAu?$AAn?$AA?$AA@ 10049b90     LIBCMT:nlsdata.obj
 0002:00003b98       ??_C@_17KBOMKBF@?$AAM?$AAo?$AAn?$AA?$AA@ 10049b98     LIBCMT:nlsdata.obj
 0002:00003ba0       ??_C@_17BMKGEGOJ@?$AAT?$AAu?$AAe?$AA?$AA@ 10049ba0     LIBCMT:nlsdata.obj
 0002:00003ba8       ??_C@_17CJEDCEPE@?$AAW?$AAe?$AAd?$AA?$AA@ 10049ba8     LIBCMT:nlsdata.obj
 0002:00003bb0       ??_C@_17PDPHAADD@?$AAT?$AAh?$AAu?$AA?$AA@ 10049bb0     LIBCMT:nlsdata.obj
 0002:00003bb8       ??_C@_17HFOLPPLP@?$AAF?$AAr?$AAi?$AA?$AA@ 10049bb8     LIBCMT:nlsdata.obj
 0002:00003bc0       ??_C@_17GGIBDPIH@?$AAS?$AAa?$AAt?$AA?$AA@ 10049bc0     LIBCMT:nlsdata.obj
 0002:00003bc8       ??_C@_1O@IHNHDHPB@?$AAS?$AAu?$AAn?$AAd?$AAa?$AAy?$AA?$AA@ 10049bc8     LIBCMT:nlsdata.obj
 0002:00003bd8       ??_C@_1O@MMNBFLIA@?$AAM?$AAo?$AAn?$AAd?$AAa?$AAy?$AA?$AA@ 10049bd8     LIBCMT:nlsdata.obj
 0002:00003be8       ??_C@_1BA@ENFBFFEK@?$AAT?$AAu?$AAe?$AAs?$AAd?$AAa?$AAy?$AA?$AA@ 10049be8     LIBCMT:nlsdata.obj
 0002:00003bf8       ??_C@_1BE@EBOGMDOH@?$AAW?$AAe?$AAd?$AAn?$AAe?$AAs?$AAd?$AAa?$AAy?$AA?$AA@ 10049bf8     LIBCMT:nlsdata.obj
 0002:00003c0c       ??_C@_1BC@HHMNLIHE@?$AAT?$AAh?$AAu?$AAr?$AAs?$AAd?$AAa?$AAy?$AA?$AA@ 10049c0c     LIBCMT:nlsdata.obj
 0002:00003c20       ??_C@_1O@PDICJHAG@?$AAF?$AAr?$AAi?$AAd?$AAa?$AAy?$AA?$AA@ 10049c20     LIBCMT:nlsdata.obj
 0002:00003c30       ??_C@_1BC@ENMNNPAJ@?$AAS?$AAa?$AAt?$AAu?$AAr?$AAd?$AAa?$AAy?$AA?$AA@ 10049c30     LIBCMT:nlsdata.obj
 0002:00003c44       ??_C@_17DKNBKCHM@?$AAJ?$AAa?$AAn?$AA?$AA@ 10049c44     LIBCMT:nlsdata.obj
 0002:00003c4c       ??_C@_17LMDJEKJN@?$AAF?$AAe?$AAb?$AA?$AA@ 10049c4c     LIBCMT:nlsdata.obj
 0002:00003c54       ??_C@_17CKNLEDEC@?$AAM?$AAa?$AAr?$AA?$AA@ 10049c54     LIBCMT:nlsdata.obj
 0002:00003c5c       ??_C@_17LFPOIHDD@?$AAA?$AAp?$AAr?$AA?$AA@ 10049c5c     LIBCMT:nlsdata.obj
 0002:00003c64       ??_C@_17PNNKMEED@?$AAM?$AAa?$AAy?$AA?$AA@ 10049c64     LIBCMT:nlsdata.obj
 0002:00003c6c       ??_C@_17KCJGOCPB@?$AAJ?$AAu?$AAn?$AA?$AA@ 10049c6c     LIBCMT:nlsdata.obj
 0002:00003c74       ??_C@_17IJPCKHK@?$AAJ?$AAu?$AAl?$AA?$AA@ 10049c74     LIBCMT:nlsdata.obj
 0002:00003c7c       ??_C@_17ICPELBCN@?$AAA?$AAu?$AAg?$AA?$AA@ 10049c7c     LIBCMT:nlsdata.obj
 0002:00003c84       ??_C@_17HCHCOKMG@?$AAS?$AAe?$AAp?$AA?$AA@ 10049c84     LIBCMT:nlsdata.obj
 0002:00003c8c       ??_C@_17FNLKOI@?$AAO?$AAc?$AAt?$AA?$AA@ 10049c8c     LIBCMT:nlsdata.obj
 0002:00003c94       ??_C@_17BBDMLCIG@?$AAN?$AAo?$AAv?$AA?$AA@ 10049c94     LIBCMT:nlsdata.obj
 0002:00003c9c       ??_C@_17EGKACKIF@?$AAD?$AAe?$AAc?$AA?$AA@ 10049c9c     LIBCMT:nlsdata.obj
 0002:00003ca4       ??_C@_1BA@EFMEIEBA@?$AAJ?$AAa?$AAn?$AAu?$AAa?$AAr?$AAy?$AA?$AA@ 10049ca4     LIBCMT:nlsdata.obj
 0002:00003cb4       ??_C@_1BC@JGDDFFAM@?$AAF?$AAe?$AAb?$AAr?$AAu?$AAa?$AAr?$AAy?$AA?$AA@ 10049cb4     LIBCMT:nlsdata.obj
 0002:00003cc8       ??_C@_1M@IKEENEDF@?$AAM?$AAa?$AAr?$AAc?$AAh?$AA?$AA@ 10049cc8     LIBCMT:nlsdata.obj
 0002:00003cd4       ??_C@_1M@GJNLMHFD@?$AAA?$AAp?$AAr?$AAi?$AAl?$AA?$AA@ 10049cd4     LIBCMT:nlsdata.obj
 0002:00003ce0       ??_C@_19EPFLPGAP@?$AAJ?$AAu?$AAn?$AAe?$AA?$AA@ 10049ce0     LIBCMT:nlsdata.obj
 0002:00003cec       ??_C@_19BIFMLPCD@?$AAJ?$AAu?$AAl?$AAy?$AA?$AA@ 10049cec     LIBCMT:nlsdata.obj
 0002:00003cf8       ??_C@_1O@PAHLKOAC@?$AAA?$AAu?$AAg?$AAu?$AAs?$AAt?$AA?$AA@ 10049cf8     LIBCMT:nlsdata.obj
 0002:00003d08       ??_C@_1BE@DKAAMBJL@?$AAS?$AAe?$AAp?$AAt?$AAe?$AAm?$AAb?$AAe?$AAr?$AA?$AA@ 10049d08     LIBCMT:nlsdata.obj
 0002:00003d1c       ??_C@_1BA@EPANDLNG@?$AAO?$AAc?$AAt?$AAo?$AAb?$AAe?$AAr?$AA?$AA@ 10049d1c     LIBCMT:nlsdata.obj
 0002:00003d2c       ??_C@_1BC@BGLIFPF@?$AAN?$AAo?$AAv?$AAe?$AAm?$AAb?$AAe?$AAr?$AA?$AA@ 10049d2c     LIBCMT:nlsdata.obj
 0002:00003d40       ??_C@_1BC@FEMKIFH@?$AAD?$AAe?$AAc?$AAe?$AAm?$AAb?$AAe?$AAr?$AA?$AA@ 10049d40     LIBCMT:nlsdata.obj
 0002:00003d54       ??_C@_15ODEHAHHF@?$AAA?$AAM?$AA?$AA@ 10049d54     LIBCMT:nlsdata.obj
 0002:00003d5c       ??_C@_15CLMNNGEL@?$AAP?$AAM?$AA?$AA@ 10049d5c     LIBCMT:nlsdata.obj
 0002:00003d64       ??_C@_1BC@IEBCMHCM@?$AAM?$AAM?$AA?1?$AAd?$AAd?$AA?1?$AAy?$AAy?$AA?$AA@ 10049d64     LIBCMT:nlsdata.obj
 0002:00003d78       ??_C@_1CI@KNAKOEBC@?$AAd?$AAd?$AAd?$AAd?$AA?0?$AA?5?$AAM?$AAM?$AAM?$AAM?$AA?5?$AAd?$AAd?$AA?0?$AA?5?$AAy?$AAy?$AAy?$AAy?$AA?$AA@ 10049d78     LIBCMT:nlsdata.obj
 0002:00003da0       ??_C@_1BC@GDGBMEMK@?$AAH?$AAH?$AA?3?$AAm?$AAm?$AA?3?$AAs?$AAs?$AA?$AA@ 10049da0     LIBCMT:nlsdata.obj
 0002:00003db4       ??_C@_1M@BMHNFIME@?$AAe?$AAn?$AA?9?$AAU?$AAS?$AA?$AA@ 10049db4     LIBCMT:nlsdata.obj
 0002:00003dc0       _LcidToLocaleNameTable     10049dc0     LIBCMT:winapinls.obj
 0002:000044e0       _LocaleNameToIndexTable    1004a4e0     LIBCMT:winapinls.obj
 0002:00004c00       ??_C@_15EMKDOKLE@?$AAa?$AAr?$AA?$AA@ 1004ac00     LIBCMT:winapinls.obj
 0002:00004c08       ??_C@_15KNPADPLH@?$AAb?$AAg?$AA?$AA@ 1004ac08     LIBCMT:winapinls.obj
 0002:00004c10       ??_C@_15EDMHLDMO@?$AAc?$AAa?$AA?$AA@ 1004ac10     LIBCMT:winapinls.obj
 0002:00004c18       ??_C@_1O@BPEAJADD@?$AAz?$AAh?$AA?9?$AAC?$AAH?$AAS?$AA?$AA@ 1004ac18     LIBCMT:winapinls.obj
 0002:00004c28       ??_C@_15LJNHCMNK@?$AAc?$AAs?$AA?$AA@ 1004ac28     LIBCMT:winapinls.obj
 0002:00004c30       ??_C@_15FOMCIDHG@?$AAd?$AAa?$AA?$AA@ 1004ac30     LIBCMT:winapinls.obj
 0002:00004c38       ??_C@_15NBKABECB@?$AAd?$AAe?$AA?$AA@ 1004ac38     LIBCMT:winapinls.obj
 0002:00004c40       ??_C@_15GHPEIIAO@?$AAe?$AAl?$AA?$AA@ 1004ac40     LIBCMT:winapinls.obj
 0002:00004c48       ??_C@_15MNPNEAIF@?$AAe?$AAn?$AA?$AA@ 1004ac48     LIBCMT:winapinls.obj
 0002:00004c50       ??_C@_15GPIOMPMH@?$AAe?$AAs?$AA?$AA@ 1004ac50     LIBCMT:winapinls.obj
 0002:00004c58       ??_C@_15NGLOAKJC@?$AAf?$AAi?$AA?$AA@ 1004ac58     LIBCMT:winapinls.obj
 0002:00004c60       ??_C@_15FBKGNKAM@?$AAf?$AAr?$AA?$AA@ 1004ac60     LIBCMT:winapinls.obj
 0002:00004c68       ??_C@_15KGGCNEFK@?$AAh?$AAe?$AA?$AA@ 1004ac68     LIBCMT:winapinls.obj
 0002:00004c70       ??_C@_15PGHLIDMF@?$AAh?$AAu?$AA?$AA@ 1004ac70     LIBCMT:winapinls.obj
 0002:00004c78       ??_C@_15BIEMAPLM@?$AAi?$AAs?$AA?$AA@ 1004ac78     LIBCMT:winapinls.obj
 0002:00004c80       ??_C@_15IFJLDHAF@?$AAi?$AAt?$AA?$AA@ 1004ac80     LIBCMT:winapinls.obj
 0002:00004c88       ??_C@_15GEMIOCAG@?$AAj?$AAa?$AA?$AA@ 1004ac88     LIBCMT:winapinls.obj
 0002:00004c90       ??_C@_15EPELEGJA@?$AAk?$AAo?$AA?$AA@ 1004ac90     LIBCMT:winapinls.obj
 0002:00004c98       ??_C@_15NDDHIMN@?$AAn?$AAl?$AA?$AA@ 1004ac98     LIBCMT:winapinls.obj
 0002:00004ca0       ??_C@_15BPIGNHCD@?$AAn?$AAo?$AA?$AA@ 1004aca0     LIBCMT:winapinls.obj
 0002:00004ca8       ??_C@_15DEOPBLCG@?$AAp?$AAl?$AA?$AA@ 1004aca8     LIBCMT:winapinls.obj
 0002:00004cb0       ??_C@_15KBECGEFG@?$AAp?$AAt?$AA?$AA@ 1004acb0     LIBCMT:winapinls.obj
 0002:00004cb8       ??_C@_15GLJCBFMD@?$AAr?$AAo?$AA?$AA@ 1004acb8     LIBCMT:winapinls.obj
 0002:00004cc0       ??_C@_15FEDGKCDI@?$AAr?$AAu?$AA?$AA@ 1004acc0     LIBCMT:winapinls.obj
 0002:00004cc8       ??_C@_15GLKMLLHM@?$AAh?$AAr?$AA?$AA@ 1004acc8     LIBCMT:winapinls.obj
 0002:00004cd0       ??_C@_15CPKMFBDB@?$AAs?$AAk?$AA?$AA@ 1004acd0     LIBCMT:winapinls.obj
 0002:00004cd8       ??_C@_15BAAIOGMK@?$AAs?$AAq?$AA?$AA@ 1004acd8     LIBCMT:winapinls.obj
 0002:00004ce0       ??_C@_15INNPNOHD@?$AAs?$AAv?$AA?$AA@ 1004ace0     LIBCMT:winapinls.obj
 0002:00004ce8       ??_C@_15CABMMOGH@?$AAt?$AAh?$AA?$AA@ 1004ace8     LIBCMT:winapinls.obj
 0002:00004cf0       ??_C@_15BPLIHJJM@?$AAt?$AAr?$AA?$AA@ 1004acf0     LIBCMT:winapinls.obj
 0002:00004cf8       ??_C@_15NEOEKKDJ@?$AAu?$AAr?$AA?$AA@ 1004acf8     LIBCMT:winapinls.obj
 0002:00004d00       ??_C@_15NFICGAJK@?$AAi?$AAd?$AA?$AA@ 1004ad00     LIBCMT:winapinls.obj
 0002:00004d08       ??_C@_15PJPFLCCM@?$AAu?$AAk?$AA?$AA@ 1004ad08     LIBCMT:winapinls.obj
 0002:00004d10       ??_C@_15HPJPHDM@?$AAb?$AAe?$AA?$AA@ 1004ad10     LIBCMT:winapinls.obj
 0002:00004d18       ??_C@_15LCHLGJII@?$AAs?$AAl?$AA?$AA@ 1004ad18     LIBCMT:winapinls.obj
 0002:00004d20       ??_C@_15PCFJPHHO@?$AAe?$AAt?$AA?$AA@ 1004ad20     LIBCMT:winapinls.obj
 0002:00004d28       ??_C@_15HPFPGODN@?$AAl?$AAv?$AA?$AA@ 1004ad28     LIBCMT:winapinls.obj
 0002:00004d30       ??_C@_15NFFGKGLG@?$AAl?$AAt?$AA?$AA@ 1004ad30     LIBCMT:winapinls.obj
 0002:00004d38       ??_C@_15BDAKCCHN@?$AAf?$AAa?$AA?$AA@ 1004ad38     LIBCMT:winapinls.obj
 0002:00004d40       ??_C@_15NFGIAIAJ@?$AAv?$AAi?$AA?$AA@ 1004ad40     LIBCMT:winapinls.obj
 0002:00004d48       ??_C@_15LMKNDMHN@?$AAh?$AAy?$AA?$AA@ 1004ad48     LIBCMT:winapinls.obj
 0002:00004d50       ??_C@_15IJBHMCFL@?$AAa?$AAz?$AA?$AA@ 1004ad50     LIBCMT:winapinls.obj
 0002:00004d58       ??_C@_15EKOFJABL@?$AAe?$AAu?$AA?$AA@ 1004ad58     LIBCMT:winapinls.obj
 0002:00004d60       ??_C@_15BGHADCNK@?$AAm?$AAk?$AA?$AA@ 1004ad60     LIBCMT:winapinls.obj
 0002:00004d68       ??_C@_15JDNICKHM@?$AAa?$AAf?$AA?$AA@ 1004ad68     LIBCMT:winapinls.obj
 0002:00004d70       ??_C@_15KPJEDBKD@?$AAk?$AAa?$AA?$AA@ 1004ad70     LIBCMT:winapinls.obj
 0002:00004d78       ??_C@_15PDNFFFEO@?$AAf?$AAo?$AA?$AA@ 1004ad78     LIBCMT:winapinls.obj
 0002:00004d80       ??_C@_15OMLEGLOC@?$AAh?$AAi?$AA?$AA@ 1004ad80     LIBCMT:winapinls.obj
 0002:00004d88       ??_C@_15IDNNENKK@?$AAm?$AAs?$AA?$AA@ 1004ad88     LIBCMT:winapinls.obj
 0002:00004d90       ??_C@_15MACJNBMH@?$AAk?$AAk?$AA?$AA@ 1004ad90     LIBCMT:winapinls.obj
 0002:00004d98       ??_C@_15DKDJEOND@?$AAk?$AAy?$AA?$AA@ 1004ad98     LIBCMT:winapinls.obj
 0002:00004da0       ??_C@_15DFGDLJBG@?$AAs?$AAw?$AA?$AA@ 1004ada0     LIBCMT:winapinls.obj
 0002:00004da8       ??_C@_15BBFAICNG@?$AAu?$AAz?$AA?$AA@ 1004ada8     LIBCMT:winapinls.obj
 0002:00004db0       ??_C@_15DKNDCGEA@?$AAt?$AAt?$AA?$AA@ 1004adb0     LIBCMT:winapinls.obj
 0002:00004db8       ??_C@_15MGIFMDPL@?$AAp?$AAa?$AA?$AA@ 1004adb8     LIBCMT:winapinls.obj
 0002:00004dc0       ??_C@_15HCNDBBA@?$AAg?$AAu?$AA?$AA@ 1004adc0     LIBCMT:winapinls.obj
 0002:00004dc8       ??_C@_15FNBEIBON@?$AAt?$AAa?$AA?$AA@ 1004adc8     LIBCMT:winapinls.obj
 0002:00004dd0       ??_C@_15NCHGBGLK@?$AAt?$AAe?$AA?$AA@ 1004add0     LIBCMT:winapinls.obj
 0002:00004dd8       ??_C@_15PHPHCBPF@?$AAk?$AAn?$AA?$AA@ 1004add8     LIBCMT:winapinls.obj
 0002:00004de0       ??_C@_15DLGBCKMP@?$AAm?$AAr?$AA?$AA@ 1004ade0     LIBCMT:winapinls.obj
 0002:00004de8       ??_C@_15EABBLBFF@?$AAs?$AAa?$AA?$AA@ 1004ade8     LIBCMT:winapinls.obj
 0002:00004df0       ??_C@_15CBKOMCOI@?$AAm?$AAn?$AA?$AA@ 1004adf0     LIBCMT:winapinls.obj
 0002:00004df8       ??_C@_15CKDMCJAF@?$AAg?$AAl?$AA?$AA@ 1004adf8     LIBCMT:winapinls.obj
 0002:00004e00       ??_C@_17CNJFBPG@?$AAk?$AAo?$AAk?$AA?$AA@ 1004ae00     LIBCMT:winapinls.obj
 0002:00004e08       ??_C@_17FFBJICPL@?$AAs?$AAy?$AAr?$AA?$AA@ 1004ae08     LIBCMT:winapinls.obj
 0002:00004e10       ??_C@_17KPNDCPAF@?$AAd?$AAi?$AAv?$AA?$AA@ 1004ae10     LIBCMT:winapinls.obj
 0002:00004e18       ??_C@_11LOCGONAA@?$AA?$AA@ 1004ae18     LIBCMT:winapinls.obj
 0002:00004e1c       ??_C@_1M@OKAHONE@?$AAa?$AAr?$AA?9?$AAS?$AAA?$AA?$AA@ 1004ae1c     LIBCMT:winapinls.obj
 0002:00004e28       ??_C@_1M@FFFIGIGK@?$AAb?$AAg?$AA?9?$AAB?$AAG?$AA?$AA@ 1004ae28     LIBCMT:winapinls.obj
 0002:00004e34       ??_C@_1M@BJNKEDC@?$AAc?$AAa?$AA?9?$AAE?$AAS?$AA?$AA@ 1004ae34     LIBCMT:winapinls.obj
 0002:00004e40       ??_C@_1M@IJJHFJHA@?$AAc?$AAs?$AA?9?$AAC?$AAZ?$AA?$AA@ 1004ae40     LIBCMT:winapinls.obj
 0002:00004e4c       ??_C@_1M@CLPEOBGI@?$AAd?$AAa?$AA?9?$AAD?$AAK?$AA?$AA@ 1004ae4c     LIBCMT:winapinls.obj
 0002:00004e58       ??_C@_1M@MCMADGCB@?$AAd?$AAe?$AA?9?$AAD?$AAE?$AA?$AA@ 1004ae58     LIBCMT:winapinls.obj
 0002:00004e64       ??_C@_1M@OOCKEMAM@?$AAe?$AAl?$AA?9?$AAG?$AAR?$AA?$AA@ 1004ae64     LIBCMT:winapinls.obj
 0002:00004e70       ??_C@_1M@DDNJFGID@?$AAf?$AAi?$AA?9?$AAF?$AAI?$AA?$AA@ 1004ae70     LIBCMT:winapinls.obj
 0002:00004e7c       ??_C@_1M@GLIPPMAC@?$AAf?$AAr?$AA?9?$AAF?$AAR?$AA?$AA@ 1004ae7c     LIBCMT:winapinls.obj
 0002:00004e88       ??_C@_1M@GFMCHPE@?$AAh?$AAe?$AA?9?$AAI?$AAL?$AA?$AA@ 1004ae88     LIBCMT:winapinls.obj
 0002:00004e94       ??_C@_1M@MHLPGNKM@?$AAh?$AAu?$AA?9?$AAH?$AAU?$AA?$AA@ 1004ae94     LIBCMT:winapinls.obj
 0002:00004ea0       ??_C@_1M@LPDDNNPN@?$AAi?$AAs?$AA?9?$AAI?$AAS?$AA?$AA@ 1004aea0     LIBCMT:winapinls.obj
 0002:00004eac       ??_C@_1M@MADIPODN@?$AAi?$AAt?$AA?9?$AAI?$AAT?$AA?$AA@ 1004aeac     LIBCMT:winapinls.obj
 0002:00004eb8       ??_C@_1M@IHBJJGG@?$AAn?$AAl?$AA?9?$AAN?$AAL?$AA?$AA@ 1004aeb8     LIBCMT:winapinls.obj
 0002:00004ec4       ??_C@_1M@EANAGDL@?$AAn?$AAb?$AA?9?$AAN?$AAO?$AA?$AA@ 1004aec4     LIBCMT:winapinls.obj
 0002:00004ed0       ??_C@_1M@NEIEMEGP@?$AAp?$AAl?$AA?9?$AAP?$AAL?$AA?$AA@ 1004aed0     LIBCMT:winapinls.obj
 0002:00004edc       ??_C@_1M@BOCFIGEP@?$AAp?$AAt?$AA?9?$AAB?$AAR?$AA?$AA@ 1004aedc     LIBCMT:winapinls.obj
 0002:00004ee8       ??_C@_1M@IMPFOPBG@?$AAr?$AAo?$AA?9?$AAR?$AAO?$AA?$AA@ 1004aee8     LIBCMT:winapinls.obj
 0002:00004ef4       ??_C@_1M@IDNNEJMM@?$AAr?$AAu?$AA?9?$AAR?$AAU?$AA?$AA@ 1004aef4     LIBCMT:winapinls.obj
 0002:00004f00       ??_C@_1M@LILEEOGM@?$AAh?$AAr?$AA?9?$AAH?$AAR?$AA?$AA@ 1004af00     LIBCMT:winapinls.obj
 0002:00004f0c       ??_C@_1M@FKIFEHPB@?$AAs?$AAk?$AA?9?$AAS?$AAK?$AA?$AA@ 1004af0c     LIBCMT:winapinls.obj
 0002:00004f18       ??_C@_1M@LJMAMNPJ@?$AAs?$AAq?$AA?9?$AAA?$AAL?$AA?$AA@ 1004af18     LIBCMT:winapinls.obj
 0002:00004f24       ??_C@_1M@GIAKDKJK@?$AAs?$AAv?$AA?9?$AAS?$AAE?$AA?$AA@ 1004af24     LIBCMT:winapinls.obj
 0002:00004f30       ??_C@_1M@MKJKIKCL@?$AAt?$AAh?$AA?9?$AAT?$AAH?$AA?$AA@ 1004af30     LIBCMT:winapinls.obj
 0002:00004f3c       ??_C@_1M@MFLCCMPB@?$AAt?$AAr?$AA?9?$AAT?$AAR?$AA?$AA@ 1004af3c     LIBCMT:winapinls.obj
 0002:00004f48       ??_C@_1M@OIJHDKJN@?$AAu?$AAr?$AA?9?$AAP?$AAK?$AA?$AA@ 1004af48     LIBCMT:winapinls.obj
 0002:00004f54       ??_C@_1M@LHIPCIEK@?$AAi?$AAd?$AA?9?$AAI?$AAD?$AA?$AA@ 1004af54     LIBCMT:winapinls.obj
 0002:00004f60       ??_C@_1M@MFMOBGI@?$AAu?$AAk?$AA?9?$AAU?$AAA?$AA?$AA@ 1004af60     LIBCMT:winapinls.obj
 0002:00004f6c       ??_C@_1M@OBGLJIPL@?$AAb?$AAe?$AA?9?$AAB?$AAY?$AA?$AA@ 1004af6c     LIBCMT:winapinls.obj
 0002:00004f78       ??_C@_1M@BCFAJEAD@?$AAs?$AAl?$AA?9?$AAS?$AAI?$AA?$AA@ 1004af78     LIBCMT:winapinls.obj
 0002:00004f84       ??_C@_1M@FKFFEDDN@?$AAe?$AAt?$AA?9?$AAE?$AAE?$AA?$AA@ 1004af84     LIBCMT:winapinls.obj
 0002:00004f90       ??_C@_1M@KGKKAACI@?$AAl?$AAv?$AA?9?$AAL?$AAV?$AA?$AA@ 1004af90     LIBCMT:winapinls.obj
 0002:00004f9c       ??_C@_1M@IFGBIJO@?$AAl?$AAt?$AA?9?$AAL?$AAT?$AA?$AA@ 1004af9c     LIBCMT:winapinls.obj
 0002:00004fa8       ??_C@_1M@FGEAHEDM@?$AAf?$AAa?$AA?9?$AAI?$AAR?$AA?$AA@ 1004afa8     LIBCMT:winapinls.obj
 0002:00004fb4       ??_C@_1M@KBMAIBFN@?$AAv?$AAi?$AA?9?$AAV?$AAN?$AA?$AA@ 1004afb4     LIBCMT:winapinls.obj
 0002:00004fc0       ??_C@_1M@GPCBKDJK@?$AAh?$AAy?$AA?9?$AAA?$AAM?$AA?$AA@ 1004afc0     LIBCMT:winapinls.obj
 0002:00004fcc       ??_C@_1BG@BECMDDJB@?$AAa?$AAz?$AA?9?$AAA?$AAZ?$AA?9?$AAL?$AAa?$AAt?$AAn?$AA?$AA@ 1004afcc     LIBCMT:winapinls.obj
 0002:00004fe4       ??_C@_1M@MAOFCAEA@?$AAe?$AAu?$AA?9?$AAE?$AAS?$AA?$AA@ 1004afe4     LIBCMT:winapinls.obj
 0002:00004ff0       ??_C@_1M@IGHABKPI@?$AAm?$AAk?$AA?9?$AAM?$AAK?$AA?$AA@ 1004aff0     LIBCMT:winapinls.obj
 0002:00004ffc       ??_C@_1M@IAIGNEJG@?$AAt?$AAn?$AA?9?$AAZ?$AAA?$AA?$AA@ 1004affc     LIBCMT:winapinls.obj
 0002:00005008       ??_C@_1M@IIJCOJFA@?$AAx?$AAh?$AA?9?$AAZ?$AAA?$AA?$AA@ 1004b008     LIBCMT:winapinls.obj
 0002:00005014       ??_C@_1M@LGPJHNJH@?$AAz?$AAu?$AA?9?$AAZ?$AAA?$AA?$AA@ 1004b014     LIBCMT:winapinls.obj
 0002:00005020       ??_C@_1M@HOKAOIO@?$AAa?$AAf?$AA?9?$AAZ?$AAA?$AA?$AA@ 1004b020     LIBCMT:winapinls.obj
 0002:0000502c       ??_C@_1M@DPCLHLIE@?$AAk?$AAa?$AA?9?$AAG?$AAE?$AA?$AA@ 1004b02c     LIBCMT:winapinls.obj
 0002:00005038       ??_C@_1M@BLKMHJBI@?$AAf?$AAo?$AA?9?$AAF?$AAO?$AA?$AA@ 1004b038     LIBCMT:winapinls.obj
 0002:00005044       ??_C@_1M@LGGJAPPB@?$AAh?$AAi?$AA?9?$AAI?$AAN?$AA?$AA@ 1004b044     LIBCMT:winapinls.obj
 0002:00005050       ??_C@_1M@FIKPIHFE@?$AAm?$AAt?$AA?9?$AAM?$AAT?$AA?$AA@ 1004b050     LIBCMT:winapinls.obj
 0002:0000505c       ??_C@_1M@HEGGPBFA@?$AAs?$AAe?$AA?9?$AAN?$AAO?$AA?$AA@ 1004b05c     LIBCMT:winapinls.obj
 0002:00005068       ??_C@_1M@EIBJEEPA@?$AAm?$AAs?$AA?9?$AAM?$AAY?$AA?$AA@ 1004b068     LIBCMT:winapinls.obj
 0002:00005074       ??_C@_1M@FHLBGMPP@?$AAk?$AAk?$AA?9?$AAK?$AAZ?$AA?$AA@ 1004b074     LIBCMT:winapinls.obj
 0002:00005080       ??_C@_1M@NGJJLCGI@?$AAk?$AAy?$AA?9?$AAK?$AAG?$AA?$AA@ 1004b080     LIBCMT:winapinls.obj
 0002:0000508c       ??_C@_1M@GIENNBFC@?$AAs?$AAw?$AA?9?$AAK?$AAE?$AA?$AA@ 1004b08c     LIBCMT:winapinls.obj
 0002:00005098       ??_C@_1BG@NDGMJIMJ@?$AAu?$AAz?$AA?9?$AAU?$AAZ?$AA?9?$AAL?$AAa?$AAt?$AAn?$AA?$AA@ 1004b098     LIBCMT:winapinls.obj
 0002:000050b0       ??_C@_1M@IDCCIHBC@?$AAt?$AAt?$AA?9?$AAR?$AAU?$AA?$AA@ 1004b0b0     LIBCMT:winapinls.obj
 0002:000050bc       ??_C@_1M@LOICPMOJ@?$AAb?$AAn?$AA?9?$AAI?$AAN?$AA?$AA@ 1004b0bc     LIBCMT:winapinls.obj
 0002:000050c8       ??_C@_1M@KPKKNEAH@?$AAp?$AAa?$AA?9?$AAI?$AAN?$AA?$AA@ 1004b0c8     LIBCMT:winapinls.obj
 0002:000050d4       ??_C@_1M@PJGPPBOG@?$AAg?$AAu?$AA?9?$AAI?$AAN?$AA?$AA@ 1004b0d4     LIBCMT:winapinls.obj
 0002:000050e0       ??_C@_1M@KMKMOPHI@?$AAt?$AAa?$AA?9?$AAI?$AAN?$AA?$AA@ 1004b0e0     LIBCMT:winapinls.obj
 0002:000050ec       ??_C@_1M@KFEHEPAC@?$AAt?$AAe?$AA?9?$AAI?$AAN?$AA?$AA@ 1004b0ec     LIBCMT:winapinls.obj
 0002:000050f8       ??_C@_1M@CDCLMGHI@?$AAk?$AAn?$AA?9?$AAI?$AAN?$AA?$AA@ 1004b0f8     LIBCMT:winapinls.obj
 0002:00005104       ??_C@_1M@MIODLDKF@?$AAm?$AAl?$AA?9?$AAI?$AAN?$AA?$AA@ 1004b104     LIBCMT:winapinls.obj
 0002:00005110       ??_C@_1M@PBIEACPO@?$AAm?$AAr?$AA?9?$AAI?$AAN?$AA?$AA@ 1004b110     LIBCMT:winapinls.obj
 0002:0000511c       ??_C@_1M@NIDEAGPH@?$AAs?$AAa?$AA?9?$AAI?$AAN?$AA?$AA@ 1004b11c     LIBCMT:winapinls.obj
 0002:00005128       ??_C@_1M@FHIHCBIO@?$AAm?$AAn?$AA?9?$AAM?$AAN?$AA?$AA@ 1004b128     LIBCMT:winapinls.obj
 0002:00005134       ??_C@_1M@JAIJPENP@?$AAc?$AAy?$AA?9?$AAG?$AAB?$AA?$AA@ 1004b134     LIBCMT:winapinls.obj
 0002:00005140       ??_C@_1M@PHGFBEPN@?$AAg?$AAl?$AA?9?$AAE?$AAS?$AA?$AA@ 1004b140     LIBCMT:winapinls.obj
 0002:0000514c       ??_C@_1O@KPIPDNCP@?$AAk?$AAo?$AAk?$AA?9?$AAI?$AAN?$AA?$AA@ 1004b14c     LIBCMT:winapinls.obj
 0002:0000515c       ??_C@_1O@KNHJLDJA@?$AAs?$AAy?$AAr?$AA?9?$AAS?$AAY?$AA?$AA@ 1004b15c     LIBCMT:winapinls.obj
 0002:0000516c       ??_C@_1O@MKEKBLAH@?$AAd?$AAi?$AAv?$AA?9?$AAM?$AAV?$AA?$AA@ 1004b16c     LIBCMT:winapinls.obj
 0002:0000517c       ??_C@_1O@OHDCKDDF@?$AAq?$AAu?$AAz?$AA?9?$AAB?$AAO?$AA?$AA@ 1004b17c     LIBCMT:winapinls.obj
 0002:0000518c       ??_C@_1M@LEPJNLFD@?$AAn?$AAs?$AA?9?$AAZ?$AAA?$AA?$AA@ 1004b18c     LIBCMT:winapinls.obj
 0002:00005198       ??_C@_1M@OMLEIIJB@?$AAm?$AAi?$AA?9?$AAN?$AAZ?$AA?$AA@ 1004b198     LIBCMT:winapinls.obj
 0002:000051a4       ??_C@_1M@PMPEAILG@?$AAa?$AAr?$AA?9?$AAI?$AAQ?$AA?$AA@ 1004b1a4     LIBCMT:winapinls.obj
 0002:000051b0       ??_C@_1M@CNKPNOEE@?$AAd?$AAe?$AA?9?$AAC?$AAH?$AA?$AA@ 1004b1b0     LIBCMT:winapinls.obj
 0002:000051bc       ??_C@_1M@LKMGMLKO@?$AAe?$AAn?$AA?9?$AAG?$AAB?$AA?$AA@ 1004b1bc     LIBCMT:winapinls.obj
 0002:000051c8       ??_C@_1M@PGKJFFGL@?$AAe?$AAs?$AA?9?$AAM?$AAX?$AA?$AA@ 1004b1c8     LIBCMT:winapinls.obj
 0002:000051d4       ??_C@_1M@DNNANBDC@?$AAf?$AAr?$AA?9?$AAB?$AAE?$AA?$AA@ 1004b1d4     LIBCMT:winapinls.obj
 0002:000051e0       ??_C@_1M@HLGMDFHM@?$AAi?$AAt?$AA?9?$AAC?$AAH?$AA?$AA@ 1004b1e0     LIBCMT:winapinls.obj
 0002:000051ec       ??_C@_1M@CLLBGJH@?$AAn?$AAl?$AA?9?$AAB?$AAE?$AA?$AA@ 1004b1ec     LIBCMT:winapinls.obj
 0002:000051f8       ??_C@_1M@BODBOGLF@?$AAn?$AAn?$AA?9?$AAN?$AAO?$AA?$AA@ 1004b1f8     LIBCMT:winapinls.obj
 0002:00005204       ??_C@_1M@HFFAHKAD@?$AAp?$AAt?$AA?9?$AAP?$AAT?$AA?$AA@ 1004b204     LIBCMT:winapinls.obj
 0002:00005210       ??_C@_1BG@LNOAKHIE@?$AAs?$AAr?$AA?9?$AAS?$AAP?$AA?9?$AAL?$AAa?$AAt?$AAn?$AA?$AA@ 1004b210     LIBCMT:winapinls.obj
 0002:00005228       ??_C@_1M@HBMHBGAK@?$AAs?$AAv?$AA?9?$AAF?$AAI?$AA?$AA@ 1004b228     LIBCMT:winapinls.obj
 0002:00005234       ??_C@_1BG@DGCJGJBE@?$AAa?$AAz?$AA?9?$AAA?$AAZ?$AA?9?$AAC?$AAy?$AAr?$AAl?$AA?$AA@ 1004b234     LIBCMT:winapinls.obj
 0002:0000524c       ??_C@_1M@KEJDAAHB@?$AAs?$AAe?$AA?9?$AAS?$AAE?$AA?$AA@ 1004b24c     LIBCMT:winapinls.obj
 0002:00005258       ??_C@_1M@HEIBJJAD@?$AAm?$AAs?$AA?9?$AAB?$AAN?$AA?$AA@ 1004b258     LIBCMT:winapinls.obj
 0002:00005264       ??_C@_1BG@PBGJMCEM@?$AAu?$AAz?$AA?9?$AAU?$AAZ?$AA?9?$AAC?$AAy?$AAr?$AAl?$AA?$AA@ 1004b264     LIBCMT:winapinls.obj
 0002:0000527c       ??_C@_1O@LAOBCMDF@?$AAq?$AAu?$AAz?$AA?9?$AAE?$AAC?$AA?$AA@ 1004b27c     LIBCMT:winapinls.obj
 0002:0000528c       ??_C@_1M@POEEMAIO@?$AAa?$AAr?$AA?9?$AAE?$AAG?$AA?$AA@ 1004b28c     LIBCMT:winapinls.obj
 0002:00005298       ??_C@_1M@EFAKDEDL@?$AAz?$AAh?$AA?9?$AAH?$AAK?$AA?$AA@ 1004b298     LIBCMT:winapinls.obj
 0002:000052a4       ??_C@_1M@HKKIJHGI@?$AAd?$AAe?$AA?9?$AAA?$AAT?$AA?$AA@ 1004b2a4     LIBCMT:winapinls.obj
 0002:000052b0       ??_C@_1M@KBFBEHJF@?$AAe?$AAn?$AA?9?$AAA?$AAU?$AA?$AA@ 1004b2b0     LIBCMT:winapinls.obj
 0002:000052bc       ??_C@_1M@MNPLFAAH@?$AAe?$AAs?$AA?9?$AAE?$AAS?$AA?$AA@ 1004b2bc     LIBCMT:winapinls.obj
 0002:000052c8       ??_C@_1M@HJOOJFMA@?$AAf?$AAr?$AA?9?$AAC?$AAA?$AA?$AA@ 1004b2c8     LIBCMT:winapinls.obj
 0002:000052d4       ??_C@_1BG@JPOFPNAB@?$AAs?$AAr?$AA?9?$AAS?$AAP?$AA?9?$AAC?$AAy?$AAr?$AAl?$AA?$AA@ 1004b2d4     LIBCMT:winapinls.obj
 0002:000052ec       ??_C@_1M@LNFOCMOB@?$AAs?$AAe?$AA?9?$AAF?$AAI?$AA?$AA@ 1004b2ec     LIBCMT:winapinls.obj
 0002:000052f8       ??_C@_1O@MGJBOAMB@?$AAq?$AAu?$AAz?$AA?9?$AAP?$AAE?$AA?$AA@ 1004b2f8     LIBCMT:winapinls.obj
 0002:00005308       ??_C@_1M@GJINLBOK@?$AAa?$AAr?$AA?9?$AAL?$AAY?$AA?$AA@ 1004b308     LIBCMT:winapinls.obj
 0002:00005314       ??_C@_1M@GGMNHJNL@?$AAz?$AAh?$AA?9?$AAS?$AAG?$AA?$AA@ 1004b314     LIBCMT:winapinls.obj
 0002:00005320       ??_C@_1M@HOIKODND@?$AAd?$AAe?$AA?9?$AAL?$AAU?$AA?$AA@ 1004b320     LIBCMT:winapinls.obj
 0002:0000532c       ??_C@_1M@DDOCCGFG@?$AAe?$AAn?$AA?9?$AAC?$AAA?$AA?$AA@ 1004b32c     LIBCMT:winapinls.obj
 0002:00005338       ??_C@_1M@BNOEMJLF@?$AAe?$AAs?$AA?9?$AAG?$AAT?$AA?$AA@ 1004b338     LIBCMT:winapinls.obj
 0002:00005344       ??_C@_1M@EOGNKEK@?$AAf?$AAr?$AA?9?$AAC?$AAH?$AA?$AA@ 1004b344     LIBCMT:winapinls.obj
 0002:00005350       ??_C@_1M@FLIDJFHL@?$AAh?$AAr?$AA?9?$AAB?$AAA?$AA?$AA@ 1004b350     LIBCMT:winapinls.obj
 0002:0000535c       ??_C@_1O@FMCELNAJ@?$AAs?$AAm?$AAj?$AA?9?$AAN?$AAO?$AA?$AA@ 1004b35c     LIBCMT:winapinls.obj
 0002:0000536c       ??_C@_1M@JHGLJMGJ@?$AAa?$AAr?$AA?9?$AAD?$AAZ?$AA?$AA@ 1004b36c     LIBCMT:winapinls.obj
 0002:00005378       ??_C@_1M@JKKFDCNP@?$AAz?$AAh?$AA?9?$AAM?$AAO?$AA?$AA@ 1004b378     LIBCMT:winapinls.obj
 0002:00005384       ??_C@_1M@GEEFALPE@?$AAd?$AAe?$AA?9?$AAL?$AAI?$AA?$AA@ 1004b384     LIBCMT:winapinls.obj
 0002:00005390       ??_C@_1M@IGEOFBG@?$AAe?$AAn?$AA?9?$AAN?$AAZ?$AA?$AA@ 1004b390     LIBCMT:winapinls.obj
 0002:0000539c       ??_C@_1M@KDBONEHP@?$AAe?$AAs?$AA?9?$AAC?$AAR?$AA?$AA@ 1004b39c     LIBCMT:winapinls.obj
 0002:000053a8       ??_C@_1M@FHMDOHNN@?$AAf?$AAr?$AA?9?$AAL?$AAU?$AA?$AA@ 1004b3a8     LIBCMT:winapinls.obj
 0002:000053b4       ??_C@_1BG@NFKKMAFG@?$AAb?$AAs?$AA?9?$AAB?$AAA?$AA?9?$AAL?$AAa?$AAt?$AAn?$AA?$AA@ 1004b3b4     LIBCMT:winapinls.obj
 0002:000053cc       ??_C@_1O@IMNBEMCI@?$AAs?$AAm?$AAj?$AA?9?$AAS?$AAE?$AA?$AA@ 1004b3cc     LIBCMT:winapinls.obj
 0002:000053dc       ??_C@_1M@DHHMBNDP@?$AAa?$AAr?$AA?9?$AAM?$AAA?$AA?$AA@ 1004b3dc     LIBCMT:winapinls.obj
 0002:000053e8       ??_C@_1M@BNBLJCGH@?$AAe?$AAn?$AA?9?$AAI?$AAE?$AA?$AA@ 1004b3e8     LIBCMT:winapinls.obj
 0002:000053f4       ??_C@_1M@GEPAFMDL@?$AAe?$AAs?$AA?9?$AAP?$AAA?$AA?$AA@ 1004b3f4     LIBCMT:winapinls.obj
 0002:00005400       ??_C@_1M@OJONDMDL@?$AAf?$AAr?$AA?9?$AAM?$AAC?$AA?$AA@ 1004b400     LIBCMT:winapinls.obj
 0002:0000540c       ??_C@_1BG@OBCNFJB@?$AAs?$AAr?$AA?9?$AAB?$AAA?$AA?9?$AAL?$AAa?$AAt?$AAn?$AA?$AA@ 1004b40c     LIBCMT:winapinls.obj
 0002:00005424       ??_C@_1O@KEMEEGPO@?$AAs?$AAm?$AAa?$AA?9?$AAN?$AAO?$AA?$AA@ 1004b424     LIBCMT:winapinls.obj
 0002:00005434       ??_C@_1M@ELMGFODK@?$AAa?$AAr?$AA?9?$AAT?$AAN?$AA?$AA@ 1004b434     LIBCMT:winapinls.obj
 0002:00005440       ??_C@_1M@BHDLHFAF@?$AAe?$AAn?$AA?9?$AAZ?$AAA?$AA?$AA@ 1004b440     LIBCMT:winapinls.obj
 0002:0000544c       ??_C@_1M@BMGIGLIF@?$AAe?$AAs?$AA?9?$AAD?$AAO?$AA?$AA@ 1004b44c     LIBCMT:winapinls.obj
 0002:00005458       ??_C@_1BG@CMBHIPBE@?$AAs?$AAr?$AA?9?$AAB?$AAA?$AA?9?$AAC?$AAy?$AAr?$AAl?$AA?$AA@ 1004b458     LIBCMT:winapinls.obj
 0002:00005470       ??_C@_1O@HEDBLHNP@?$AAs?$AAm?$AAa?$AA?9?$AAS?$AAE?$AA?$AA@ 1004b470     LIBCMT:winapinls.obj
 0002:00005480       ??_C@_1M@DAGCADIM@?$AAa?$AAr?$AA?9?$AAO?$AAM?$AA?$AA@ 1004b480     LIBCMT:winapinls.obj
 0002:0000548c       ??_C@_1M@FODLMICG@?$AAe?$AAn?$AA?9?$AAJ?$AAM?$AA?$AA@ 1004b48c     LIBCMT:winapinls.obj
 0002:00005498       ??_C@_1M@DNMLCIHB@?$AAe?$AAs?$AA?9?$AAV?$AAE?$AA?$AA@ 1004b498     LIBCMT:winapinls.obj
 0002:000054a4       ??_C@_1O@EOKHMKJK@?$AAs?$AAm?$AAs?$AA?9?$AAF?$AAI?$AA?$AA@ 1004b4a4     LIBCMT:winapinls.obj
 0002:000054b4       ??_C@_1M@CAFJMKOF@?$AAa?$AAr?$AA?9?$AAY?$AAE?$AA?$AA@ 1004b4b4     LIBCMT:winapinls.obj
 0002:000054c0       ??_C@_1M@CBFHIJLI@?$AAe?$AAn?$AA?9?$AAC?$AAB?$AA?$AA@ 1004b4c0     LIBCMT:winapinls.obj
 0002:000054cc       ??_C@_1M@BGNFLDN@?$AAe?$AAs?$AA?9?$AAC?$AAO?$AA?$AA@ 1004b4cc     LIBCMT:winapinls.obj
 0002:000054d8       ??_C@_1O@JMPHMAMC@?$AAs?$AAm?$AAn?$AA?9?$AAF?$AAI?$AA?$AA@ 1004b4d8     LIBCMT:winapinls.obj
 0002:000054e8       ??_C@_1M@JLANABKE@?$AAa?$AAr?$AA?9?$AAS?$AAY?$AA?$AA@ 1004b4e8     LIBCMT:winapinls.obj
 0002:000054f4       ??_C@_1M@HPKGCFGN@?$AAe?$AAn?$AA?9?$AAB?$AAZ?$AA?$AA@ 1004b4f4     LIBCMT:winapinls.obj
 0002:00005500       ??_C@_1M@OLJCMLGM@?$AAe?$AAs?$AA?9?$AAP?$AAE?$AA?$AA@ 1004b500     LIBCMT:winapinls.obj
 0002:0000550c       ??_C@_1M@MKKGFKLE@?$AAa?$AAr?$AA?9?$AAJ?$AAO?$AA?$AA@ 1004b50c     LIBCMT:winapinls.obj
 0002:00005518       ??_C@_1M@EKPGLDNI@?$AAe?$AAn?$AA?9?$AAT?$AAT?$AA?$AA@ 1004b518     LIBCMT:winapinls.obj
 0002:00005524       ??_C@_1M@OONGHFHE@?$AAe?$AAs?$AA?9?$AAA?$AAR?$AA?$AA@ 1004b524     LIBCMT:winapinls.obj
 0002:00005530       ??_C@_1M@OOJFGBHE@?$AAa?$AAr?$AA?9?$AAL?$AAB?$AA?$AA@ 1004b530     LIBCMT:winapinls.obj
 0002:0000553c       ??_C@_1M@GCEJHNEG@?$AAe?$AAn?$AA?9?$AAZ?$AAW?$AA?$AA@ 1004b53c     LIBCMT:winapinls.obj
 0002:00005548       ??_C@_1M@JNOCAHJI@?$AAe?$AAs?$AA?9?$AAE?$AAC?$AA?$AA@ 1004b548     LIBCMT:winapinls.obj
 0002:00005554       ??_C@_1M@JEFHPGGB@?$AAa?$AAr?$AA?9?$AAK?$AAW?$AA?$AA@ 1004b554     LIBCMT:winapinls.obj
 0002:00005560       ??_C@_1M@MLKIBJOJ@?$AAe?$AAn?$AA?9?$AAP?$AAH?$AA?$AA@ 1004b560     LIBCMT:winapinls.obj
 0002:0000556c       ??_C@_1M@BDNIPEND@?$AAe?$AAs?$AA?9?$AAC?$AAL?$AA?$AA@ 1004b56c     LIBCMT:winapinls.obj
 0002:00005578       ??_C@_1M@MPNMEKBD@?$AAa?$AAr?$AA?9?$AAA?$AAE?$AA?$AA@ 1004b578     LIBCMT:winapinls.obj
 0002:00005584       ??_C@_1M@KBJALCPI@?$AAe?$AAs?$AA?9?$AAU?$AAY?$AA?$AA@ 1004b584     LIBCMT:winapinls.obj
 0002:00005590       ??_C@_1M@LLCCOAGA@?$AAa?$AAr?$AA?9?$AAB?$AAH?$AA?$AA@ 1004b590     LIBCMT:winapinls.obj
 0002:0000559c       ??_C@_1M@PBFNCDEL@?$AAe?$AAs?$AA?9?$AAP?$AAY?$AA?$AA@ 1004b59c     LIBCMT:winapinls.obj
 0002:000055a8       ??_C@_1M@EDGINPNP@?$AAa?$AAr?$AA?9?$AAQ?$AAA?$AA?$AA@ 1004b5a8     LIBCMT:winapinls.obj
 0002:000055b4       ??_C@_1M@MKDBIIJI@?$AAe?$AAs?$AA?9?$AAB?$AAO?$AA?$AA@ 1004b5b4     LIBCMT:winapinls.obj
 0002:000055c0       ??_C@_1M@CPKKEBLD@?$AAe?$AAs?$AA?9?$AAS?$AAV?$AA?$AA@ 1004b5c0     LIBCMT:winapinls.obj
 0002:000055cc       ??_C@_1M@NDBGMMJL@?$AAe?$AAs?$AA?9?$AAH?$AAN?$AA?$AA@ 1004b5cc     LIBCMT:winapinls.obj
 0002:000055d8       ??_C@_1M@JIJIBHDP@?$AAe?$AAs?$AA?9?$AAN?$AAI?$AA?$AA@ 1004b5d8     LIBCMT:winapinls.obj
 0002:000055e4       ??_C@_1M@CGFMKEEK@?$AAe?$AAs?$AA?9?$AAP?$AAR?$AA?$AA@ 1004b5e4     LIBCMT:winapinls.obj
 0002:000055f0       ??_C@_1O@ICJHKIIK@?$AAz?$AAh?$AA?9?$AAC?$AAH?$AAT?$AA?$AA@ 1004b5f0     LIBCMT:winapinls.obj
 0002:00005600       ??_C@_15CLNEJCE@?$AAs?$AAr?$AA?$AA@ 1004b600     LIBCMT:winapinls.obj
 0002:00005608       ??_C@_1M@KAHEKEIG@?$AAa?$AAf?$AA?9?$AAz?$AAa?$AA?$AA@ 1004b608     LIBCMT:winapinls.obj
 0002:00005614       ??_C@_1M@GIECOABL@?$AAa?$AAr?$AA?9?$AAa?$AAe?$AA?$AA@ 1004b614     LIBCMT:winapinls.obj
 0002:00005620       ??_C@_1M@BMLMEKGI@?$AAa?$AAr?$AA?9?$AAb?$AAh?$AA?$AA@ 1004b620     LIBCMT:winapinls.obj
 0002:0000562c       ??_C@_1M@DAPFDGGB@?$AAa?$AAr?$AA?9?$AAd?$AAz?$AA?$AA@ 1004b62c     LIBCMT:winapinls.obj
 0002:00005638       ??_C@_1M@FJNKGKIG@?$AAa?$AAr?$AA?9?$AAe?$AAg?$AA?$AA@ 1004b638     LIBCMT:winapinls.obj
 0002:00005644       ??_C@_1M@FLGKKCLO@?$AAa?$AAr?$AA?9?$AAi?$AAq?$AA?$AA@ 1004b644     LIBCMT:winapinls.obj
 0002:00005650       ??_C@_1M@GNDIPALM@?$AAa?$AAr?$AA?9?$AAj?$AAo?$AA?$AA@ 1004b650     LIBCMT:winapinls.obj
 0002:0000565c       ??_C@_1M@DDMJFMGJ@?$AAa?$AAr?$AA?9?$AAk?$AAw?$AA?$AA@ 1004b65c     LIBCMT:winapinls.obj
 0002:00005668       ??_C@_1M@EJALMLHM@?$AAa?$AAr?$AA?9?$AAl?$AAb?$AA?$AA@ 1004b668     LIBCMT:winapinls.obj
 0002:00005674       ??_C@_1M@MOBDBLOC@?$AAa?$AAr?$AA?9?$AAl?$AAy?$AA?$AA@ 1004b674     LIBCMT:winapinls.obj
 0002:00005680       ??_C@_1M@JAOCLHDH@?$AAa?$AAr?$AA?9?$AAm?$AAa?$AA?$AA@ 1004b680     LIBCMT:winapinls.obj
 0002:0000568c       ??_C@_1M@JHPMKJIE@?$AAa?$AAr?$AA?9?$AAo?$AAm?$AA?$AA@ 1004b68c     LIBCMT:winapinls.obj
 0002:00005698       ??_C@_1M@OEPGHFNH@?$AAa?$AAr?$AA?9?$AAq?$AAa?$AA?$AA@ 1004b698     LIBCMT:winapinls.obj
 0002:000056a4       ??_C@_1M@KJDONENM@?$AAa?$AAr?$AA?9?$AAs?$AAa?$AA?$AA@ 1004b6a4     LIBCMT:winapinls.obj
 0002:000056b0       ??_C@_1M@DMJDKLKM@?$AAa?$AAr?$AA?9?$AAs?$AAy?$AA?$AA@ 1004b6b0     LIBCMT:winapinls.obj
 0002:000056bc       ??_C@_1M@OMFIPEDC@?$AAa?$AAr?$AA?9?$AAt?$AAn?$AA?$AA@ 1004b6bc     LIBCMT:winapinls.obj
 0002:000056c8       ??_C@_1M@IHMHGAON@?$AAa?$AAr?$AA?9?$AAy?$AAe?$AA?$AA@ 1004b6c8     LIBCMT:winapinls.obj
 0002:000056d4       ??_C@_1BG@KDCPGJGB@?$AAa?$AAz?$AA?9?$AAa?$AAz?$AA?9?$AAc?$AAy?$AAr?$AAl?$AA?$AA@ 1004b6d4     LIBCMT:winapinls.obj
 0002:000056ec       ??_C@_1BG@IBCKDDOE@?$AAa?$AAz?$AA?9?$AAa?$AAz?$AA?9?$AAl?$AAa?$AAt?$AAn?$AA?$AA@ 1004b6ec     LIBCMT:winapinls.obj
 0002:00005704       ??_C@_1M@EGPFDCPD@?$AAb?$AAe?$AA?9?$AAb?$AAy?$AA?$AA@ 1004b704     LIBCMT:winapinls.obj
 0002:00005710       ??_C@_1M@PCMGMCGC@?$AAb?$AAg?$AA?9?$AAb?$AAg?$AA?$AA@ 1004b710     LIBCMT:winapinls.obj
 0002:0000571c       ??_C@_1M@BJBMFGOB@?$AAb?$AAn?$AA?9?$AAi?$AAn?$AA?$AA@ 1004b71c     LIBCMT:winapinls.obj
 0002:00005728       ??_C@_1BG@EAKMMACD@?$AAb?$AAs?$AA?9?$AAb?$AAa?$AA?9?$AAl?$AAa?$AAt?$AAn?$AA?$AA@ 1004b728     LIBCMT:winapinls.obj
 0002:00005740       ??_C@_1M@KGADAODK@?$AAc?$AAa?$AA?9?$AAe?$AAs?$AA?$AA@ 1004b740     LIBCMT:winapinls.obj
 0002:0000574c       ??_C@_1M@COAJPDHI@?$AAc?$AAs?$AA?9?$AAc?$AAz?$AA?$AA@ 1004b74c     LIBCMT:winapinls.obj
 0002:00005758       ??_C@_1M@DHBHFONH@?$AAc?$AAy?$AA?9?$AAg?$AAb?$AA?$AA@ 1004b758     LIBCMT:winapinls.obj
 0002:00005764       ??_C@_1M@IMGKELGA@?$AAd?$AAa?$AA?9?$AAd?$AAk?$AA?$AA@ 1004b764     LIBCMT:winapinls.obj
 0002:00005770       ??_C@_1M@NNDGDNGA@?$AAd?$AAe?$AA?9?$AAa?$AAt?$AA?$AA@ 1004b770     LIBCMT:winapinls.obj
 0002:0000577c       ??_C@_1M@IKDBHEEM@?$AAd?$AAe?$AA?9?$AAc?$AAh?$AA?$AA@ 1004b77c     LIBCMT:winapinls.obj
 0002:00005788       ??_C@_1M@GFFOJMCJ@?$AAd?$AAe?$AA?9?$AAd?$AAe?$AA?$AA@ 1004b788     LIBCMT:winapinls.obj
 0002:00005794       ??_C@_1M@MDNLKBPM@?$AAd?$AAe?$AA?9?$AAl?$AAi?$AA?$AA@ 1004b794     LIBCMT:winapinls.obj
 0002:000057a0       ??_C@_1M@NJBEEJNL@?$AAd?$AAe?$AA?9?$AAl?$AAu?$AA?$AA@ 1004b7a0     LIBCMT:winapinls.obj
 0002:000057ac       ??_C@_1O@GNNELBAP@?$AAd?$AAi?$AAv?$AA?9?$AAm?$AAv?$AA?$AA@ 1004b7ac     LIBCMT:winapinls.obj
 0002:000057bc       ??_C@_1M@EJLEOGAE@?$AAe?$AAl?$AA?9?$AAg?$AAr?$AA?$AA@ 1004b7bc     LIBCMT:winapinls.obj
 0002:000057c8       ??_C@_1M@GMPONJN@?$AAe?$AAn?$AA?9?$AAa?$AAu?$AA?$AA@ 1004b7c8     LIBCMT:winapinls.obj
 0002:000057d4       ??_C@_1M@NIDIIPGF@?$AAe?$AAn?$AA?9?$AAb?$AAz?$AA?$AA@ 1004b7d4     LIBCMT:winapinls.obj
 0002:000057e0       ??_C@_1M@JEHMIMFO@?$AAe?$AAn?$AA?9?$AAc?$AAa?$AA?$AA@ 1004b7e0     LIBCMT:winapinls.obj
 0002:000057ec       ??_C@_1M@IGMJCDLA@?$AAe?$AAn?$AA?9?$AAc?$AAb?$AA?$AA@ 1004b7ec     LIBCMT:winapinls.obj
 0002:000057f8       ??_C@_1M@BNFIGBKG@?$AAe?$AAn?$AA?9?$AAg?$AAb?$AA?$AA@ 1004b7f8     LIBCMT:winapinls.obj
 0002:00005804       ??_C@_1M@LKIFDIGP@?$AAe?$AAn?$AA?9?$AAi?$AAe?$AA?$AA@ 1004b804     LIBCMT:winapinls.obj
 0002:00005810       ??_C@_1M@PJKFGCCO@?$AAe?$AAn?$AA?9?$AAj?$AAm?$AA?$AA@ 1004b810     LIBCMT:winapinls.obj
 0002:0000581c       ??_C@_1M@KPPKEPBO@?$AAe?$AAn?$AA?9?$AAn?$AAz?$AA?$AA@ 1004b81c     LIBCMT:winapinls.obj
 0002:00005828       ??_C@_1M@GMDGLDOB@?$AAe?$AAn?$AA?9?$AAp?$AAh?$AA?$AA@ 1004b828     LIBCMT:winapinls.obj
 0002:00005834       ??_C@_1M@ONGIBJNA@?$AAe?$AAn?$AA?9?$AAt?$AAt?$AA?$AA@ 1004b834     LIBCMT:winapinls.obj
 0002:00005840       ??_C@_1M@LLODPCMM@?$AAe?$AAn?$AA?9?$AAu?$AAs?$AA?$AA@ 1004b840     LIBCMT:winapinls.obj
 0002:0000584c       ??_C@_1M@LAKFNPAN@?$AAe?$AAn?$AA?9?$AAz?$AAa?$AA?$AA@ 1004b84c     LIBCMT:winapinls.obj
 0002:00005858       ??_C@_1M@MFNHNHEO@?$AAe?$AAn?$AA?9?$AAz?$AAw?$AA?$AA@ 1004b858     LIBCMT:winapinls.obj
 0002:00005864       ??_C@_1M@EJEINPHM@?$AAe?$AAs?$AA?9?$AAa?$AAr?$AA?$AA@ 1004b864     LIBCMT:winapinls.obj
 0002:00005870       ??_C@_1M@GNKPCCJA@?$AAe?$AAs?$AA?9?$AAb?$AAo?$AA?$AA@ 1004b870     LIBCMT:winapinls.obj
 0002:0000587c       ??_C@_1M@LEEGFONL@?$AAe?$AAs?$AA?9?$AAc?$AAl?$AA?$AA@ 1004b87c     LIBCMT:winapinls.obj
 0002:00005888       ??_C@_1M@KGPDPBDF@?$AAe?$AAs?$AA?9?$AAc?$AAo?$AA?$AA@ 1004b888     LIBCMT:winapinls.obj
 0002:00005894       ??_C@_1M@EIAHOHH@?$AAe?$AAs?$AA?9?$AAc?$AAr?$AA?$AA@ 1004b894     LIBCMT:winapinls.obj
 0002:000058a0       ??_C@_1M@LLPGMBIN@?$AAe?$AAs?$AA?9?$AAd?$AAo?$AA?$AA@ 1004b8a0     LIBCMT:winapinls.obj
 0002:000058ac       ??_C@_1M@DKHMKNJA@?$AAe?$AAs?$AA?9?$AAe?$AAc?$AA?$AA@ 1004b8ac     LIBCMT:winapinls.obj
 0002:000058b8       ??_C@_1M@GKGFPKAP@?$AAe?$AAs?$AA?9?$AAe?$AAs?$AA?$AA@ 1004b8b8     LIBCMT:winapinls.obj
 0002:000058c4       ??_C@_1M@LKHKGDLN@?$AAe?$AAs?$AA?9?$AAg?$AAt?$AA?$AA@ 1004b8c4     LIBCMT:winapinls.obj
 0002:000058d0       ??_C@_1M@HEIIGGJD@?$AAe?$AAs?$AA?9?$AAh?$AAn?$AA?$AA@ 1004b8d0     LIBCMT:winapinls.obj
 0002:000058dc       ??_C@_1M@FBDHPPGD@?$AAe?$AAs?$AA?9?$AAm?$AAx?$AA?$AA@ 1004b8dc     LIBCMT:winapinls.obj
 0002:000058e8       ??_C@_1M@DPAGLNDH@?$AAe?$AAs?$AA?9?$AAn?$AAi?$AA?$AA@ 1004b8e8     LIBCMT:winapinls.obj
 0002:000058f4       ??_C@_1M@MDGOPGDD@?$AAe?$AAs?$AA?9?$AAp?$AAa?$AA?$AA@ 1004b8f4     LIBCMT:winapinls.obj
 0002:00005900       ??_C@_1M@EMAMGBGE@?$AAe?$AAs?$AA?9?$AAp?$AAe?$AA?$AA@ 1004b900     LIBCMT:winapinls.obj
 0002:0000590c       ??_C@_1M@IBMCAOEC@?$AAe?$AAs?$AA?9?$AAp?$AAr?$AA?$AA@ 1004b90c     LIBCMT:winapinls.obj
 0002:00005918       ??_C@_1M@FGMDIJED@?$AAe?$AAs?$AA?9?$AAp?$AAy?$AA?$AA@ 1004b918     LIBCMT:winapinls.obj
 0002:00005924       ??_C@_1M@IIDEOLLL@?$AAe?$AAs?$AA?9?$AAs?$AAv?$AA?$AA@ 1004b924     LIBCMT:winapinls.obj
 0002:00005930       ??_C@_1M@GAOBIPA@?$AAe?$AAs?$AA?9?$AAu?$AAy?$AA?$AA@ 1004b930     LIBCMT:winapinls.obj
 0002:0000593c       ??_C@_1M@JKFFICHJ@?$AAe?$AAs?$AA?9?$AAv?$AAe?$AA?$AA@ 1004b93c     LIBCMT:winapinls.obj
 0002:00005948       ??_C@_1M@PNMLOJDF@?$AAe?$AAt?$AA?9?$AAe?$AAe?$AA?$AA@ 1004b948     LIBCMT:winapinls.obj
 0002:00005954       ??_C@_1M@GHHLIKEI@?$AAe?$AAu?$AA?9?$AAe?$AAs?$AA?$AA@ 1004b954     LIBCMT:winapinls.obj
 0002:00005960       ??_C@_1M@PBNONODE@?$AAf?$AAa?$AA?9?$AAi?$AAr?$AA?$AA@ 1004b960     LIBCMT:winapinls.obj
 0002:0000596c       ??_C@_1M@JEEHPMIL@?$AAf?$AAi?$AA?9?$AAf?$AAi?$AA?$AA@ 1004b96c     LIBCMT:winapinls.obj
 0002:00005978       ??_C@_1M@LMDCNDBA@?$AAf?$AAo?$AA?9?$AAf?$AAo?$AA?$AA@ 1004b978     LIBCMT:winapinls.obj
 0002:00005984       ??_C@_1M@JKEOHLDK@?$AAf?$AAr?$AA?9?$AAb?$AAe?$AA?$AA@ 1004b984     LIBCMT:winapinls.obj
 0002:00005990       ??_C@_1M@NOHADPMI@?$AAf?$AAr?$AA?9?$AAc?$AAa?$AA?$AA@ 1004b990     LIBCMT:winapinls.obj
 0002:0000599c       ??_C@_1M@KDHIHAEC@?$AAf?$AAr?$AA?9?$AAc?$AAh?$AA?$AA@ 1004b99c     LIBCMT:winapinls.obj
 0002:000059a8       ??_C@_1M@MMBBFGAK@?$AAf?$AAr?$AA?9?$AAf?$AAr?$AA?$AA@ 1004b9a8     LIBCMT:winapinls.obj
 0002:000059b4       ??_C@_1M@PAFNENNF@?$AAf?$AAr?$AA?9?$AAl?$AAu?$AA?$AA@ 1004b9b4     LIBCMT:winapinls.obj
 0002:000059c0       ??_C@_1M@EOHDJGDD@?$AAf?$AAr?$AA?9?$AAm?$AAc?$AA?$AA@ 1004b9c0     LIBCMT:winapinls.obj
 0002:000059cc       ??_C@_1M@FAPLLOPF@?$AAg?$AAl?$AA?9?$AAe?$AAs?$AA?$AA@ 1004b9cc     LIBCMT:winapinls.obj
 0002:000059d8       ??_C@_1M@FOPBFLOO@?$AAg?$AAu?$AA?9?$AAi?$AAn?$AA?$AA@ 1004b9d8     LIBCMT:winapinls.obj
 0002:000059e4       ??_C@_1M@KBMCINPM@?$AAh?$AAe?$AA?9?$AAi?$AAl?$AA?$AA@ 1004b9e4     LIBCMT:winapinls.obj
 0002:000059f0       ??_C@_1M@BBPHKFPJ@?$AAh?$AAi?$AA?9?$AAi?$AAn?$AA?$AA@ 1004b9f0     LIBCMT:winapinls.obj
 0002:000059fc       ??_C@_1M@PMBNDPHD@?$AAh?$AAr?$AA?9?$AAb?$AAa?$AA?$AA@ 1004b9fc     LIBCMT:winapinls.obj
 0002:00005a08       ??_C@_1M@BPCKOEGE@?$AAh?$AAr?$AA?9?$AAh?$AAr?$AA?$AA@ 1004ba08     LIBCMT:winapinls.obj
 0002:00005a14       ??_C@_1M@GACBMHKE@?$AAh?$AAu?$AA?9?$AAh?$AAu?$AA?$AA@ 1004ba14     LIBCMT:winapinls.obj
 0002:00005a20       ??_C@_1M@MILPAJJC@?$AAh?$AAy?$AA?9?$AAa?$AAm?$AA?$AA@ 1004ba20     LIBCMT:winapinls.obj
 0002:00005a2c       ??_C@_1M@BABBICEC@?$AAi?$AAd?$AA?9?$AAi?$AAd?$AA?$AA@ 1004ba2c     LIBCMT:winapinls.obj
 0002:00005a38       ??_C@_1M@BIKNHHPF@?$AAi?$AAs?$AA?9?$AAi?$AAs?$AA?$AA@ 1004ba38     LIBCMT:winapinls.obj
 0002:00005a44       ??_C@_1M@NMPCJPHE@?$AAi?$AAt?$AA?9?$AAc?$AAh?$AA?$AA@ 1004ba44     LIBCMT:winapinls.obj
 0002:00005a50       ??_C@_1M@GHKGFEDF@?$AAi?$AAt?$AA?9?$AAi?$AAt?$AA?$AA@ 1004ba50     LIBCMT:winapinls.obj
 0002:00005a5c       ??_C@_1M@NIEJCJJA@?$AAj?$AAa?$AA?9?$AAj?$AAp?$AA?$AA@ 1004ba5c     LIBCMT:winapinls.obj
 0002:00005a68       ??_C@_1M@JILFNBIM@?$AAk?$AAa?$AA?9?$AAg?$AAe?$AA?$AA@ 1004ba68     LIBCMT:winapinls.obj
 0002:00005a74       ??_C@_1M@PACPMGPH@?$AAk?$AAk?$AA?9?$AAk?$AAz?$AA?$AA@ 1004ba74     LIBCMT:winapinls.obj
 0002:00005a80       ??_C@_1M@IELFGMHA@?$AAk?$AAn?$AA?9?$AAi?$AAn?$AA?$AA@ 1004ba80     LIBCMT:winapinls.obj
 0002:00005a8c       ??_C@_1O@IBBJHCH@?$AAk?$AAo?$AAk?$AA?9?$AAi?$AAn?$AA?$AA@ 1004ba8c     LIBCMT:winapinls.obj
 0002:00005a9c       ??_C@_1M@DMHAEOGC@?$AAk?$AAo?$AA?9?$AAk?$AAr?$AA?$AA@ 1004ba9c     LIBCMT:winapinls.obj
 0002:00005aa8       ??_C@_1M@HBAHBIGA@?$AAk?$AAy?$AA?9?$AAk?$AAg?$AA?$AA@ 1004baa8     LIBCMT:winapinls.obj
 0002:00005ab4       ??_C@_1M@KPMILCJG@?$AAl?$AAt?$AA?9?$AAl?$AAt?$AA?$AA@ 1004bab4     LIBCMT:winapinls.obj
 0002:00005ac0       ??_C@_1M@BDEKKCA@?$AAl?$AAv?$AA?9?$AAl?$AAv?$AA?$AA@ 1004bac0     LIBCMT:winapinls.obj
 0002:00005acc       ??_C@_1M@ELCKCCJJ@?$AAm?$AAi?$AA?9?$AAn?$AAz?$AA?$AA@ 1004bacc     LIBCMT:winapinls.obj
 0002:00005ad8       ??_C@_1M@CBOOLAPA@?$AAm?$AAk?$AA?9?$AAm?$AAk?$AA?$AA@ 1004bad8     LIBCMT:winapinls.obj
 0002:00005ae4       ??_C@_1M@GPHNBJKN@?$AAm?$AAl?$AA?9?$AAi?$AAn?$AA?$AA@ 1004bae4     LIBCMT:winapinls.obj
 0002:00005af0       ??_C@_1M@PABJILIG@?$AAm?$AAn?$AA?9?$AAm?$AAn?$AA?$AA@ 1004baf0     LIBCMT:winapinls.obj
 0002:00005afc       ??_C@_1M@FGBKKIPG@?$AAm?$AAr?$AA?9?$AAi?$AAn?$AA?$AA@ 1004bafc     LIBCMT:winapinls.obj
 0002:00005b08       ??_C@_1M@NDBPDDAL@?$AAm?$AAs?$AA?9?$AAb?$AAn?$AA?$AA@ 1004bb08     LIBCMT:winapinls.obj
 0002:00005b14       ??_C@_1M@OPIHOOPI@?$AAm?$AAs?$AA?9?$AAm?$AAy?$AA?$AA@ 1004bb14     LIBCMT:winapinls.obj
 0002:00005b20       ??_C@_1M@PPDBCNFM@?$AAm?$AAt?$AA?9?$AAm?$AAt?$AA?$AA@ 1004bb20     LIBCMT:winapinls.obj
 0002:00005b2c       ??_C@_1M@KDJDKMDD@?$AAn?$AAb?$AA?9?$AAn?$AAo?$AA?$AA@ 1004bb2c     LIBCMT:winapinls.obj
 0002:00005b38       ??_C@_1M@KFCFLMJP@?$AAn?$AAl?$AA?9?$AAb?$AAe?$AA?$AA@ 1004bb38     LIBCMT:winapinls.obj
 0002:00005b44       ??_C@_1M@KPOPDDGO@?$AAn?$AAl?$AA?9?$AAn?$AAl?$AA?$AA@ 1004bb44     LIBCMT:winapinls.obj
 0002:00005b50       ??_C@_1M@LJKPEMLN@?$AAn?$AAn?$AA?9?$AAn?$AAo?$AA?$AA@ 1004bb50     LIBCMT:winapinls.obj
 0002:00005b5c       ??_C@_1M@BDGHHBFL@?$AAn?$AAs?$AA?9?$AAz?$AAa?$AA?$AA@ 1004bb5c     LIBCMT:winapinls.obj
 0002:00005b68       ??_C@_1M@IDEHOAP@?$AAp?$AAa?$AA?9?$AAi?$AAn?$AA?$AA@ 1004bb68     LIBCMT:winapinls.obj
 0002:00005b74       ??_C@_1M@HDBKGOGH@?$AAp?$AAl?$AA?9?$AAp?$AAl?$AA?$AA@ 1004bb74     LIBCMT:winapinls.obj
 0002:00005b80       ??_C@_1M@LJLLCMEH@?$AAp?$AAt?$AA?9?$AAb?$AAr?$AA?$AA@ 1004bb80     LIBCMT:winapinls.obj
 0002:00005b8c       ??_C@_1M@NCMONAAL@?$AAp?$AAt?$AA?9?$AAp?$AAt?$AA?$AA@ 1004bb8c     LIBCMT:winapinls.obj
 0002:00005b98       ??_C@_1O@EAKMAJDN@?$AAq?$AAu?$AAz?$AA?9?$AAb?$AAo?$AA?$AA@ 1004bb98     LIBCMT:winapinls.obj
 0002:00005ba8       ??_C@_1O@BHHPIGDN@?$AAq?$AAu?$AAz?$AA?9?$AAe?$AAc?$AA?$AA@ 1004bba8     LIBCMT:winapinls.obj
 0002:00005bb8       ??_C@_1O@GBAPEKMJ@?$AAq?$AAu?$AAz?$AA?9?$AAp?$AAe?$AA?$AA@ 1004bbb8     LIBCMT:winapinls.obj
 0002:00005bc8       ??_C@_1M@CLGLEFBO@?$AAr?$AAo?$AA?9?$AAr?$AAo?$AA?$AA@ 1004bbc8     LIBCMT:winapinls.obj
 0002:00005bd4       ??_C@_1M@CEEDODME@?$AAr?$AAu?$AA?9?$AAr?$AAu?$AA?$AA@ 1004bbd4     LIBCMT:winapinls.obj
 0002:00005be0       ??_C@_1M@HPKKKMPP@?$AAs?$AAa?$AA?9?$AAi?$AAn?$AA?$AA@ 1004bbe0     LIBCMT:winapinls.obj
 0002:00005bec       ??_C@_1M@BKMAIGOJ@?$AAs?$AAe?$AA?9?$AAf?$AAi?$AA?$AA@ 1004bbec     LIBCMT:winapinls.obj
 0002:00005bf8       ??_C@_1M@NDPIFLFI@?$AAs?$AAe?$AA?9?$AAn?$AAo?$AA?$AA@ 1004bbf8     LIBCMT:winapinls.obj
 0002:00005c04       ??_C@_1M@DANKKHJ@?$AAs?$AAe?$AA?9?$AAs?$AAe?$AA?$AA@ 1004bc04     LIBCMT:winapinls.obj
 0002:00005c10       ??_C@_1M@PNBLONPJ@?$AAs?$AAk?$AA?9?$AAs?$AAk?$AA?$AA@ 1004bc10     LIBCMT:winapinls.obj
 0002:00005c1c       ??_C@_1M@LFMODOAL@?$AAs?$AAl?$AA?9?$AAs?$AAi?$AA?$AA@ 1004bc1c     LIBCMT:winapinls.obj
 0002:00005c28       ??_C@_1O@DFKOMPG@?$AAs?$AAm?$AAa?$AA?9?$AAn?$AAo?$AA?$AA@ 1004bc28     LIBCMT:winapinls.obj
 0002:00005c38       ??_C@_1O@NDKPBNNH@?$AAs?$AAm?$AAa?$AA?9?$AAs?$AAe?$AA?$AA@ 1004bc38     LIBCMT:winapinls.obj
 0002:00005c48       ??_C@_1O@PLLKBHAB@?$AAs?$AAm?$AAj?$AA?9?$AAn?$AAo?$AA?$AA@ 1004bc48     LIBCMT:winapinls.obj
 0002:00005c58       ??_C@_1O@CLEPOGCA@?$AAs?$AAm?$AAj?$AA?9?$AAs?$AAe?$AA?$AA@ 1004bc58     LIBCMT:winapinls.obj
 0002:00005c68       ??_C@_1O@DLGJGKMK@?$AAs?$AAm?$AAn?$AA?9?$AAf?$AAi?$AA?$AA@ 1004bc68     LIBCMT:winapinls.obj
 0002:00005c78       ??_C@_1O@OJDJGAJC@?$AAs?$AAm?$AAs?$AA?9?$AAf?$AAi?$AA?$AA@ 1004bc78     LIBCMT:winapinls.obj
 0002:00005c88       ??_C@_1M@BOFOGHPB@?$AAs?$AAq?$AA?9?$AAa?$AAl?$AA?$AA@ 1004bc88     LIBCMT:winapinls.obj
 0002:00005c94       ??_C@_1BG@LJBBIPGB@?$AAs?$AAr?$AA?9?$AAb?$AAa?$AA?9?$AAc?$AAy?$AAr?$AAl?$AA?$AA@ 1004bc94     LIBCMT:winapinls.obj
 0002:00005cac       ??_C@_1BG@JLBENFOE@?$AAs?$AAr?$AA?9?$AAb?$AAa?$AA?9?$AAl?$AAa?$AAt?$AAn?$AA?$AA@ 1004bcac     LIBCMT:winapinls.obj
 0002:00005cc4       ??_C@_1BG@KODPNHE@?$AAs?$AAr?$AA?9?$AAs?$AAp?$AA?9?$AAc?$AAy?$AAr?$AAl?$AA?$AA@ 1004bcc4     LIBCMT:winapinls.obj
 0002:00005cdc       ??_C@_1BG@CIOGKHPB@?$AAs?$AAr?$AA?9?$AAs?$AAp?$AA?9?$AAl?$AAa?$AAt?$AAn?$AA?$AA@ 1004bcdc     LIBCMT:winapinls.obj
 0002:00005cf4       ??_C@_1M@NGFJLMAC@?$AAs?$AAv?$AA?9?$AAf?$AAi?$AA?$AA@ 1004bcf4     LIBCMT:winapinls.obj
 0002:00005d00       ??_C@_1M@MPJEJAJC@?$AAs?$AAv?$AA?9?$AAs?$AAe?$AA?$AA@ 1004bd00     LIBCMT:winapinls.obj
 0002:00005d0c       ??_C@_1M@MPNDHLFK@?$AAs?$AAw?$AA?9?$AAk?$AAe?$AA?$AA@ 1004bd0c     LIBCMT:winapinls.obj
 0002:00005d18       ??_C@_1O@KOHBJJI@?$AAs?$AAy?$AAr?$AA?9?$AAs?$AAy?$AA?$AA@ 1004bd18     LIBCMT:winapinls.obj
 0002:00005d28       ??_C@_1M@LDCEFHA@?$AAt?$AAa?$AA?9?$AAi?$AAn?$AA?$AA@ 1004bd28     LIBCMT:winapinls.obj
 0002:00005d34       ??_C@_1M@CNJOFAK@?$AAt?$AAe?$AA?9?$AAi?$AAn?$AA?$AA@ 1004bd34     LIBCMT:winapinls.obj
 0002:00005d40       ??_C@_1M@GNAECACD@?$AAt?$AAh?$AA?9?$AAt?$AAh?$AA?$AA@ 1004bd40     LIBCMT:winapinls.obj
 0002:00005d4c       ??_C@_1M@CHBIHOJO@?$AAt?$AAn?$AA?9?$AAz?$AAa?$AA?$AA@ 1004bd4c     LIBCMT:winapinls.obj
 0002:00005d58       ??_C@_1M@GCCMIGPJ@?$AAt?$AAr?$AA?9?$AAt?$AAr?$AA?$AA@ 1004bd58     LIBCMT:winapinls.obj
 0002:00005d64       ??_C@_1M@CELMCNBK@?$AAt?$AAt?$AA?9?$AAr?$AAu?$AA?$AA@ 1004bd64     LIBCMT:winapinls.obj
 0002:00005d70       ??_C@_1M@KLMCELGA@?$AAu?$AAk?$AA?9?$AAu?$AAa?$AA?$AA@ 1004bd70     LIBCMT:winapinls.obj
 0002:00005d7c       ??_C@_1M@EPAJJAJF@?$AAu?$AAr?$AA?9?$AAp?$AAk?$AA?$AA@ 1004bd7c     LIBCMT:winapinls.obj
 0002:00005d88       ??_C@_1BG@GEGPMCDJ@?$AAu?$AAz?$AA?9?$AAu?$AAz?$AA?9?$AAc?$AAy?$AAr?$AAl?$AA?$AA@ 1004bd88     LIBCMT:winapinls.obj
 0002:00005da0       ??_C@_1BG@EGGKJILM@?$AAu?$AAz?$AA?9?$AAu?$AAz?$AA?9?$AAl?$AAa?$AAt?$AAn?$AA?$AA@ 1004bda0     LIBCMT:winapinls.obj
 0002:00005db8       ??_C@_1M@GFOCLFF@?$AAv?$AAi?$AA?9?$AAv?$AAn?$AA?$AA@ 1004bdb8     LIBCMT:winapinls.obj
 0002:00005dc4       ??_C@_1M@CPAMEDFI@?$AAx?$AAh?$AA?9?$AAz?$AAa?$AA?$AA@ 1004bdc4     LIBCMT:winapinls.obj
 0002:00005dd0       ??_C@_1O@EBKIFIGN@?$AAz?$AAh?$AA?9?$AAc?$AAh?$AAs?$AA?$AA@ 1004bdd0     LIBCMT:winapinls.obj
 0002:00005de0       ??_C@_1O@NMHPGANE@?$AAz?$AAh?$AA?9?$AAc?$AAh?$AAt?$AA?$AA@ 1004bde0     LIBCMT:winapinls.obj
 0002:00005df0       ??_C@_1M@LPINJOMC@?$AAz?$AAh?$AA?9?$AAc?$AAn?$AA?$AA@ 1004bdf0     LIBCMT:winapinls.obj
 0002:00005dfc       ??_C@_1M@OCJEJODD@?$AAz?$AAh?$AA?9?$AAh?$AAk?$AA?$AA@ 1004bdfc     LIBCMT:winapinls.obj
 0002:00005e08       ??_C@_1M@DNDLJINH@?$AAz?$AAh?$AA?9?$AAm?$AAo?$AA?$AA@ 1004be08     LIBCMT:winapinls.obj
 0002:00005e14       ??_C@_1M@MBFDNDND@?$AAz?$AAh?$AA?9?$AAs?$AAg?$AA?$AA@ 1004be14     LIBCMT:winapinls.obj
 0002:00005e20       ??_C@_1M@IMEPLEPE@?$AAz?$AAh?$AA?9?$AAt?$AAw?$AA?$AA@ 1004be20     LIBCMT:winapinls.obj
 0002:00005e2c       ??_C@_1M@BBGHNHJP@?$AAz?$AAu?$AA?9?$AAz?$AAa?$AA?$AA@ 1004be2c     LIBCMT:winapinls.obj
 0002:00005e38       ___newctype                1004be38     LIBCMT:ctype.obj
 0002:00006138       __wctype                   1004c138     LIBCMT:ctype.obj
 0002:00006340       ___newclmap                1004c340     LIBCMT:ctype.obj
 0002:000064c0       ___newcumap                1004c4c0     LIBCMT:ctype.obj
 0002:00006640       ___lc_category             1004c640     LIBCMT:wsetloca.obj
 0002:00006688       ??_C@_1O@GIFLHMA@?$AAL?$AAC?$AA_?$AAA?$AAL?$AAL?$AA?$AA@ 1004c688     LIBCMT:wsetloca.obj
 0002:00006698       ??_C@_1BG@PPOMIBNJ@?$AAL?$AAC?$AA_?$AAC?$AAO?$AAL?$AAL?$AAA?$AAT?$AAE?$AA?$AA@ 1004c698     LIBCMT:wsetloca.obj
 0002:000066b0       ??_C@_1BC@FFJGAPJM@?$AAL?$AAC?$AA_?$AAC?$AAT?$AAY?$AAP?$AAE?$AA?$AA@ 1004c6b0     LIBCMT:wsetloca.obj
 0002:000066c4       ??_C@_1BI@PCKFNJFB@?$AAL?$AAC?$AA_?$AAM?$AAO?$AAN?$AAE?$AAT?$AAA?$AAR?$AAY?$AA?$AA@ 1004c6c4     LIBCMT:wsetloca.obj
 0002:000066dc       ??_C@_1BG@ENIEDKID@?$AAL?$AAC?$AA_?$AAN?$AAU?$AAM?$AAE?$AAR?$AAI?$AAC?$AA?$AA@ 1004c6dc     LIBCMT:wsetloca.obj
 0002:000066f4       ??_C@_1BA@HAAOMIIG@?$AAL?$AAC?$AA_?$AAT?$AAI?$AAM?$AAE?$AA?$AA@ 1004c6f4     LIBCMT:wsetloca.obj
 0002:00006788       ??_C@_15NBPDDFIP@?$AA?$DN?$AA?$DL?$AA?$AA@ 1004c788     LIBCMT:wsetloca.obj
 0002:00006790       ??_C@_13PJJBFPED@?$AA?$DL?$AA?$AA@ 1004c790     LIBCMT:wsetloca.obj
 0002:00006794       ??_C@_13NMPKAAJP@?$AA?$DN?$AA?$AA@ 1004c794     LIBCMT:wsetloca.obj
 0002:00006798       ??_C@_13FHBKNHDA@?$AAC?$AA?$AA@ 1004c798     LIBCMT:wsetloca.obj
 0002:0000679c       ??_C@_17MBJJLFDM@?$AA_?$AA?4?$AA?0?$AA?$AA@ 1004c79c     LIBCMT:wsetloca.obj
 0002:000067a4       ??_C@_13ENNFDPBH@?$AA_?$AA?$AA@ 1004c7a4     LIBCMT:wsetloca.obj
 0002:000067a8       ??_C@_13JOFGPIOO@?$AA?4?$AA?$AA@ 1004c7a8     LIBCMT:wsetloca.obj
 0002:000067ac       ??_C@_06PGGFOGJG@1?$CDSNAN?$AA@ 1004c7ac     LIBCMT:x10fout.obj
 0002:000067b4       ??_C@_05PHHOCPM@1?$CDIND?$AA@ 1004c7b4     LIBCMT:x10fout.obj
 0002:000067bc       ??_C@_05DNEBIAHO@1?$CDINF?$AA@ 1004c7bc     LIBCMT:x10fout.obj
 0002:000067c4       ??_C@_06IMKFLFPG@1?$CDQNAN?$AA@ 1004c7c4     LIBCMT:x10fout.obj
 0002:000067cc       ??_C@_0M@HHGEPIBF@CreateFile2?$AA@ 1004c7cc     LIBCMT:wopen.obj
 0002:000067d8       ??_C@_1BA@BALFACEM@?$AAC?$AAO?$AAN?$AAO?$AAU?$AAT?$AA$?$AA?$AA@ 1004c7d8     LIBCMT:initcon.obj
 0002:000067e8       ___rg_language             1004c7e8     LIBCMT:getqloc.obj
 0002:00006af4       ??_C@_1BC@LLOKLNP@?$AAa?$AAm?$AAe?$AAr?$AAi?$AAc?$AAa?$AAn?$AA?$AA@ 1004caf4     LIBCMT:getqloc.obj
 0002:00006b08       ??_C@_1CC@HEIGCDGG@?$AAa?$AAm?$AAe?$AAr?$AAi?$AAc?$AAa?$AAn?$AA?5?$AAe?$AAn?$AAg?$AAl?$AAi?$AAs?$AAh?$AA?$AA@ 1004cb08     LIBCMT:getqloc.obj
 0002:00006b2c       ??_C@_1CC@IHCNOMIN@?$AAa?$AAm?$AAe?$AAr?$AAi?$AAc?$AAa?$AAn?$AA?9?$AAe?$AAn?$AAg?$AAl?$AAi?$AAs?$AAh?$AA?$AA@ 1004cb2c     LIBCMT:getqloc.obj
 0002:00006b50       ??_C@_1BG@GKAGPCGG@?$AAa?$AAu?$AAs?$AAt?$AAr?$AAa?$AAl?$AAi?$AAa?$AAn?$AA?$AA@ 1004cb50     LIBCMT:getqloc.obj
 0002:00006b68       ??_C@_1BA@GMENCENF@?$AAb?$AAe?$AAl?$AAg?$AAi?$AAa?$AAn?$AA?$AA@ 1004cb68     LIBCMT:getqloc.obj
 0002:00006b78       ??_C@_1BC@PJMIIAAN@?$AAc?$AAa?$AAn?$AAa?$AAd?$AAi?$AAa?$AAn?$AA?$AA@ 1004cb78     LIBCMT:getqloc.obj
 0002:00006b8c       ??_C@_17NOIMNFBF@?$AAc?$AAh?$AAh?$AA?$AA@ 1004cb8c     LIBCMT:getqloc.obj
 0002:00006b94       ??_C@_17GGDALCHA@?$AAc?$AAh?$AAi?$AA?$AA@ 1004cb94     LIBCMT:getqloc.obj
 0002:00006b9c       ??_C@_1BA@NPNJKIBL@?$AAc?$AAh?$AAi?$AAn?$AAe?$AAs?$AAe?$AA?$AA@ 1004cb9c     LIBCMT:getqloc.obj
 0002:00006bac       ??_C@_1CC@DINBAMMJ@?$AAc?$AAh?$AAi?$AAn?$AAe?$AAs?$AAe?$AA?9?$AAh?$AAo?$AAn?$AAg?$AAk?$AAo?$AAn?$AAg?$AA?$AA@ 1004cbac     LIBCMT:getqloc.obj
 0002:00006bd0       ??_C@_1CG@IOBJPACO@?$AAc?$AAh?$AAi?$AAn?$AAe?$AAs?$AAe?$AA?9?$AAs?$AAi?$AAm?$AAp?$AAl?$AAi?$AAf?$AAi?$AAe?$AAd?$AA?$AA@ 1004cbd0     LIBCMT:getqloc.obj
 0002:00006bf8       ??_C@_1CE@GAJNDCKG@?$AAc?$AAh?$AAi?$AAn?$AAe?$AAs?$AAe?$AA?9?$AAs?$AAi?$AAn?$AAg?$AAa?$AAp?$AAo?$AAr?$AAe?$AA?$AA@ 1004cbf8     LIBCMT:getqloc.obj
 0002:00006c1c       ??_C@_1CI@PAJPIOOD@?$AAc?$AAh?$AAi?$AAn?$AAe?$AAs?$AAe?$AA?9?$AAt?$AAr?$AAa?$AAd?$AAi?$AAt?$AAi?$AAo?$AAn?$AAa?$AAl?$AA?$AA@ 1004cc1c     LIBCMT:getqloc.obj
 0002:00006c44       ??_C@_1BM@NILJBMMD@?$AAd?$AAu?$AAt?$AAc?$AAh?$AA?9?$AAb?$AAe?$AAl?$AAg?$AAi?$AAa?$AAn?$AA?$AA@ 1004cc44     LIBCMT:getqloc.obj
 0002:00006c60       ??_C@_1CC@OOJPJNEJ@?$AAe?$AAn?$AAg?$AAl?$AAi?$AAs?$AAh?$AA?9?$AAa?$AAm?$AAe?$AAr?$AAi?$AAc?$AAa?$AAn?$AA?$AA@ 1004cc60     LIBCMT:getqloc.obj
 0002:00006c84       ??_C@_1BI@IOLFEEM@?$AAe?$AAn?$AAg?$AAl?$AAi?$AAs?$AAh?$AA?9?$AAa?$AAu?$AAs?$AA?$AA@ 1004cc84     LIBCMT:getqloc.obj
 0002:00006c9c       ??_C@_1BO@HFFNLENJ@?$AAe?$AAn?$AAg?$AAl?$AAi?$AAs?$AAh?$AA?9?$AAb?$AAe?$AAl?$AAi?$AAz?$AAe?$AA?$AA@ 1004cc9c     LIBCMT:getqloc.obj
 0002:00006cbc       ??_C@_1BI@HAPKJMPO@?$AAe?$AAn?$AAg?$AAl?$AAi?$AAs?$AAh?$AA?9?$AAc?$AAa?$AAn?$AA?$AA@ 1004ccbc     LIBCMT:getqloc.obj
 0002:00006cd4       ??_C@_1CE@HLNDMIOJ@?$AAe?$AAn?$AAg?$AAl?$AAi?$AAs?$AAh?$AA?9?$AAc?$AAa?$AAr?$AAi?$AAb?$AAb?$AAe?$AAa?$AAn?$AA?$AA@ 1004ccd4     LIBCMT:getqloc.obj
 0002:00006cf8       ??_C@_1BI@LDHJHHAC@?$AAe?$AAn?$AAg?$AAl?$AAi?$AAs?$AAh?$AA?9?$AAi?$AAr?$AAe?$AA?$AA@ 1004ccf8     LIBCMT:getqloc.obj
 0002:00006d10       ??_C@_1CA@NJMMCFOC@?$AAe?$AAn?$AAg?$AAl?$AAi?$AAs?$AAh?$AA?9?$AAj?$AAa?$AAm?$AAa?$AAi?$AAc?$AAa?$AA?$AA@ 1004cd10     LIBCMT:getqloc.obj
 0002:00006d30       ??_C@_1BG@BHJEBBGG@?$AAe?$AAn?$AAg?$AAl?$AAi?$AAs?$AAh?$AA?9?$AAn?$AAz?$AA?$AA@ 1004cd30     LIBCMT:getqloc.obj
 0002:00006d48       ??_C@_1CK@FGOEJJCO@?$AAe?$AAn?$AAg?$AAl?$AAi?$AAs?$AAh?$AA?9?$AAs?$AAo?$AAu?$AAt?$AAh?$AA?5?$AAa?$AAf?$AAr?$AAi?$AAc?$AAa?$AA?$AA@ 1004cd48     LIBCMT:getqloc.obj
 0002:00006d74       ??_C@_1DE@PDBJPCJ@?$AAe?$AAn?$AAg?$AAl?$AAi?$AAs?$AAh?$AA?9?$AAt?$AAr?$AAi?$AAn?$AAi?$AAd?$AAa?$AAd?$AA?5?$AAy?$AA?5?$AAt?$AAo?$AAb?$AAa?$AAg?$AAo?$AA?$AA@ 1004cd74     LIBCMT:getqloc.obj
 0002:00006da8       ??_C@_1BG@JGCANDME@?$AAe?$AAn?$AAg?$AAl?$AAi?$AAs?$AAh?$AA?9?$AAu?$AAk?$AA?$AA@ 1004cda8     LIBCMT:getqloc.obj
 0002:00006dc0       ??_C@_1BG@DINKMLE@?$AAe?$AAn?$AAg?$AAl?$AAi?$AAs?$AAh?$AA?9?$AAu?$AAs?$AA?$AA@ 1004cdc0     LIBCMT:getqloc.obj
 0002:00006dd8       ??_C@_1BI@NMFDBHJE@?$AAe?$AAn?$AAg?$AAl?$AAi?$AAs?$AAh?$AA?9?$AAu?$AAs?$AAa?$AA?$AA@ 1004cdd8     LIBCMT:getqloc.obj
 0002:00006df0       ??_C@_1BO@OIHKJKII@?$AAf?$AAr?$AAe?$AAn?$AAc?$AAh?$AA?9?$AAb?$AAe?$AAl?$AAg?$AAi?$AAa?$AAn?$AA?$AA@ 1004cdf0     LIBCMT:getqloc.obj
 0002:00006e10       ??_C@_1CA@NKAELJKI@?$AAf?$AAr?$AAe?$AAn?$AAc?$AAh?$AA?9?$AAc?$AAa?$AAn?$AAa?$AAd?$AAi?$AAa?$AAn?$AA?$AA@ 1004ce10     LIBCMT:getqloc.obj
 0002:00006e30       ??_C@_1CE@MGKCNLGN@?$AAf?$AAr?$AAe?$AAn?$AAc?$AAh?$AA?9?$AAl?$AAu?$AAx?$AAe?$AAm?$AAb?$AAo?$AAu?$AAr?$AAg?$AA?$AA@ 1004ce30     LIBCMT:getqloc.obj
 0002:00006e54       ??_C@_1BK@CEGEAILM@?$AAf?$AAr?$AAe?$AAn?$AAc?$AAh?$AA?9?$AAs?$AAw?$AAi?$AAs?$AAs?$AA?$AA@ 1004ce54     LIBCMT:getqloc.obj
 0002:00006e70       ??_C@_1CA@PAFKEOCC@?$AAg?$AAe?$AAr?$AAm?$AAa?$AAn?$AA?9?$AAa?$AAu?$AAs?$AAt?$AAr?$AAi?$AAa?$AAn?$AA?$AA@ 1004ce70     LIBCMT:getqloc.obj
 0002:00006e90       ??_C@_1CI@HCFHGOFD@?$AAg?$AAe?$AAr?$AAm?$AAa?$AAn?$AA?9?$AAl?$AAi?$AAc?$AAh?$AAt?$AAe?$AAn?$AAs?$AAt?$AAe?$AAi?$AAn?$AA?$AA@ 1004ce90     LIBCMT:getqloc.obj
 0002:00006eb8       ??_C@_1CE@FEDDNPDG@?$AAg?$AAe?$AAr?$AAm?$AAa?$AAn?$AA?9?$AAl?$AAu?$AAx?$AAe?$AAm?$AAb?$AAo?$AAu?$AAr?$AAg?$AA?$AA@ 1004ceb8     LIBCMT:getqloc.obj
 0002:00006edc       ??_C@_1BK@LIMINNMN@?$AAg?$AAe?$AAr?$AAm?$AAa?$AAn?$AA?9?$AAs?$AAw?$AAi?$AAs?$AAs?$AA?$AA@ 1004cedc     LIBCMT:getqloc.obj
 0002:00006ef8       ??_C@_1BM@LGMDBEPD@?$AAi?$AAr?$AAi?$AAs?$AAh?$AA?9?$AAe?$AAn?$AAg?$AAl?$AAi?$AAs?$AAh?$AA?$AA@ 1004cef8     LIBCMT:getqloc.obj
 0002:00006f14       ??_C@_1BM@NNCFBAEE@?$AAi?$AAt?$AAa?$AAl?$AAi?$AAa?$AAn?$AA?9?$AAs?$AAw?$AAi?$AAs?$AAs?$AA?$AA@ 1004cf14     LIBCMT:getqloc.obj
 0002:00006f30       ??_C@_1BE@FEDJNPIB@?$AAn?$AAo?$AAr?$AAw?$AAe?$AAg?$AAi?$AAa?$AAn?$AA?$AA@ 1004cf30     LIBCMT:getqloc.obj
 0002:00006f44       ??_C@_1CC@CILKDEIE@?$AAn?$AAo?$AAr?$AAw?$AAe?$AAg?$AAi?$AAa?$AAn?$AA?9?$AAb?$AAo?$AAk?$AAm?$AAa?$AAl?$AA?$AA@ 1004cf44     LIBCMT:getqloc.obj
 0002:00006f68       ??_C@_1CE@DHMMHEPL@?$AAn?$AAo?$AAr?$AAw?$AAe?$AAg?$AAi?$AAa?$AAn?$AA?9?$AAn?$AAy?$AAn?$AAo?$AAr?$AAs?$AAk?$AA?$AA@ 1004cf68     LIBCMT:getqloc.obj
 0002:00006f8c       ??_C@_1CK@OPNMHECD@?$AAp?$AAo?$AAr?$AAt?$AAu?$AAg?$AAu?$AAe?$AAs?$AAe?$AA?9?$AAb?$AAr?$AAa?$AAz?$AAi?$AAl?$AAi?$AAa?$AAn?$AA?$AA@ 1004cf8c     LIBCMT:getqloc.obj
 0002:00006fb8       ??_C@_1CE@KEEHCDB@?$AAs?$AAp?$AAa?$AAn?$AAi?$AAs?$AAh?$AA?9?$AAa?$AAr?$AAg?$AAe?$AAn?$AAt?$AAi?$AAn?$AAa?$AA?$AA@ 1004cfb8     LIBCMT:getqloc.obj
 0002:00006fdc       ??_C@_1CA@GIAOLHJD@?$AAs?$AAp?$AAa?$AAn?$AAi?$AAs?$AAh?$AA?9?$AAb?$AAo?$AAl?$AAi?$AAv?$AAi?$AAa?$AA?$AA@ 1004cfdc     LIBCMT:getqloc.obj
 0002:00006ffc       ??_C@_1BM@OJNDFNPD@?$AAs?$AAp?$AAa?$AAn?$AAi?$AAs?$AAh?$AA?9?$AAc?$AAh?$AAi?$AAl?$AAe?$AA?$AA@ 1004cffc     LIBCMT:getqloc.obj
 0002:00007018       ??_C@_1CC@OCOLPALL@?$AAs?$AAp?$AAa?$AAn?$AAi?$AAs?$AAh?$AA?9?$AAc?$AAo?$AAl?$AAo?$AAm?$AAb?$AAi?$AAa?$AA?$AA@ 1004d018     LIBCMT:getqloc.obj
 0002:0000703c       ??_C@_1CG@BPOFMKBB@?$AAs?$AAp?$AAa?$AAn?$AAi?$AAs?$AAh?$AA?9?$AAc?$AAo?$AAs?$AAt?$AAa?$AA?5?$AAr?$AAi?$AAc?$AAa?$AA?$AA@ 1004d03c     LIBCMT:getqloc.obj
 0002:00007064       ??_C@_1DG@IGOBAPBB@?$AAs?$AAp?$AAa?$AAn?$AAi?$AAs?$AAh?$AA?9?$AAd?$AAo?$AAm?$AAi?$AAn?$AAi?$AAc?$AAa?$AAn?$AA?5?$AAr?$AAe?$AAp?$AAu?$AAb?$AAl?$AAi?$AAc?$AA?$AA@ 1004d064     LIBCMT:getqloc.obj
 0002:0000709c       ??_C@_1CA@JHAPGEGI@?$AAs?$AAp?$AAa?$AAn?$AAi?$AAs?$AAh?$AA?9?$AAe?$AAc?$AAu?$AAa?$AAd?$AAo?$AAr?$AA?$AA@ 1004d09c     LIBCMT:getqloc.obj
 0002:000070bc       ??_C@_1CI@LAPALJPP@?$AAs?$AAp?$AAa?$AAn?$AAi?$AAs?$AAh?$AA?9?$AAe?$AAl?$AA?5?$AAs?$AAa?$AAl?$AAv?$AAa?$AAd?$AAo?$AAr?$AA?$AA@ 1004d0bc     LIBCMT:getqloc.obj
 0002:000070e4       ??_C@_1CE@PDGBOFOM@?$AAs?$AAp?$AAa?$AAn?$AAi?$AAs?$AAh?$AA?9?$AAg?$AAu?$AAa?$AAt?$AAe?$AAm?$AAa?$AAl?$AAa?$AA?$AA@ 1004d0e4     LIBCMT:getqloc.obj
 0002:00007108       ??_C@_1CC@NBEBAODI@?$AAs?$AAp?$AAa?$AAn?$AAi?$AAs?$AAh?$AA?9?$AAh?$AAo?$AAn?$AAd?$AAu?$AAr?$AAa?$AAs?$AA?$AA@ 1004d108     LIBCMT:getqloc.obj
 0002:0000712c       ??_C@_1CA@LLKGHBMF@?$AAs?$AAp?$AAa?$AAn?$AAi?$AAs?$AAh?$AA?9?$AAm?$AAe?$AAx?$AAi?$AAc?$AAa?$AAn?$AA?$AA@ 1004d12c     LIBCMT:getqloc.obj
 0002:0000714c       ??_C@_1BO@LKNDOIGD@?$AAs?$AAp?$AAa?$AAn?$AAi?$AAs?$AAh?$AA?9?$AAm?$AAo?$AAd?$AAe?$AAr?$AAn?$AA?$AA@ 1004d14c     LIBCMT:getqloc.obj
 0002:0000716c       ??_C@_1CE@NMDMOEEB@?$AAs?$AAp?$AAa?$AAn?$AAi?$AAs?$AAh?$AA?9?$AAn?$AAi?$AAc?$AAa?$AAr?$AAa?$AAg?$AAu?$AAa?$AA?$AA@ 1004d16c     LIBCMT:getqloc.obj
 0002:00007190       ??_C@_1BO@LLCBEJGB@?$AAs?$AAp?$AAa?$AAn?$AAi?$AAs?$AAh?$AA?9?$AAp?$AAa?$AAn?$AAa?$AAm?$AAa?$AA?$AA@ 1004d190     LIBCMT:getqloc.obj
 0002:000071b0       ??_C@_1CC@FKPGGIHO@?$AAs?$AAp?$AAa?$AAn?$AAi?$AAs?$AAh?$AA?9?$AAp?$AAa?$AAr?$AAa?$AAg?$AAu?$AAa?$AAy?$AA?$AA@ 1004d1b0     LIBCMT:getqloc.obj
 0002:000071d4       ??_C@_1BK@CDEIHOOP@?$AAs?$AAp?$AAa?$AAn?$AAi?$AAs?$AAh?$AA?9?$AAp?$AAe?$AAr?$AAu?$AA?$AA@ 1004d1d4     LIBCMT:getqloc.obj
 0002:000071f0       ??_C@_1CI@GAHAKKGP@?$AAs?$AAp?$AAa?$AAn?$AAi?$AAs?$AAh?$AA?9?$AAp?$AAu?$AAe?$AAr?$AAt?$AAo?$AA?5?$AAr?$AAi?$AAc?$AAo?$AA?$AA@ 1004d1f0     LIBCMT:getqloc.obj
 0002:00007218       ??_C@_1CA@NKJBCAGP@?$AAs?$AAp?$AAa?$AAn?$AAi?$AAs?$AAh?$AA?9?$AAu?$AAr?$AAu?$AAg?$AAu?$AAa?$AAy?$AA?$AA@ 1004d218     LIBCMT:getqloc.obj
 0002:00007238       ??_C@_1CE@ODILCONM@?$AAs?$AAp?$AAa?$AAn?$AAi?$AAs?$AAh?$AA?9?$AAv?$AAe?$AAn?$AAe?$AAz?$AAu?$AAe?$AAl?$AAa?$AA?$AA@ 1004d238     LIBCMT:getqloc.obj
 0002:0000725c       ??_C@_1CA@OBNMCGFO@?$AAs?$AAw?$AAe?$AAd?$AAi?$AAs?$AAh?$AA?9?$AAf?$AAi?$AAn?$AAl?$AAa?$AAn?$AAd?$AA?$AA@ 1004d25c     LIBCMT:getqloc.obj
 0002:0000727c       ??_C@_1M@PIPDDPPI@?$AAs?$AAw?$AAi?$AAs?$AAs?$AA?$AA@ 1004d27c     LIBCMT:getqloc.obj
 0002:00007288       ??_C@_15GMFIMNFM@?$AAu?$AAs?$AA?$AA@ 1004d288     LIBCMT:getqloc.obj
 0002:00007290       ??_C@_17HAEBFAGL@?$AAu?$AAs?$AAa?$AA?$AA@ 1004d290     LIBCMT:getqloc.obj
 0002:00007298       ___rg_country              1004d298     LIBCMT:getqloc.obj
 0002:000073ac       ??_C@_1BA@DPFJEPHB@?$AAa?$AAm?$AAe?$AAr?$AAi?$AAc?$AAa?$AA?$AA@ 1004d3ac     LIBCMT:getqloc.obj
 0002:000073bc       ??_C@_1BA@ELOGGFK@?$AAb?$AAr?$AAi?$AAt?$AAa?$AAi?$AAn?$AA?$AA@ 1004d3bc     LIBCMT:getqloc.obj
 0002:000073cc       ??_C@_1M@GHBGIGDA@?$AAc?$AAh?$AAi?$AAn?$AAa?$AA?$AA@ 1004d3cc     LIBCMT:getqloc.obj
 0002:000073d8       ??_C@_1M@NCHEJOPO@?$AAc?$AAz?$AAe?$AAc?$AAh?$AA?$AA@ 1004d3d8     LIBCMT:getqloc.obj
 0002:000073e4       ??_C@_1BA@BKPAPBLA@?$AAe?$AAn?$AAg?$AAl?$AAa?$AAn?$AAd?$AA?$AA@ 1004d3e4     LIBCMT:getqloc.obj
 0002:000073f4       ??_C@_1BM@HKBCKIPC@?$AAg?$AAr?$AAe?$AAa?$AAt?$AA?5?$AAb?$AAr?$AAi?$AAt?$AAa?$AAi?$AAn?$AA?$AA@ 1004d3f4     LIBCMT:getqloc.obj
 0002:00007410       ??_C@_1BA@PPCHPGJB@?$AAh?$AAo?$AAl?$AAl?$AAa?$AAn?$AAd?$AA?$AA@ 1004d410     LIBCMT:getqloc.obj
 0002:00007420       ??_C@_1BE@JBMPEGDG@?$AAh?$AAo?$AAn?$AAg?$AA?9?$AAk?$AAo?$AAn?$AAg?$AA?$AA@ 1004d420     LIBCMT:getqloc.obj
 0002:00007434       ??_C@_1BI@KOELBBPJ@?$AAn?$AAe?$AAw?$AA?9?$AAz?$AAe?$AAa?$AAl?$AAa?$AAn?$AAd?$AA?$AA@ 1004d434     LIBCMT:getqloc.obj
 0002:0000744c       ??_C@_15HIEBHAIO@?$AAn?$AAz?$AA?$AA@ 1004d44c     LIBCMT:getqloc.obj
 0002:00007454       ??_C@_1BC@CHBCPFPI@?$AAp?$AAr?$AA?5?$AAc?$AAh?$AAi?$AAn?$AAa?$AA?$AA@ 1004d454     LIBCMT:getqloc.obj
 0002:00007468       ??_C@_1BC@JAOIIFKD@?$AAp?$AAr?$AA?9?$AAc?$AAh?$AAi?$AAn?$AAa?$AA?$AA@ 1004d468     LIBCMT:getqloc.obj
 0002:0000747c       ??_C@_1BI@BEHPPHKC@?$AAp?$AAu?$AAe?$AAr?$AAt?$AAo?$AA?9?$AAr?$AAi?$AAc?$AAo?$AA?$AA@ 1004d47c     LIBCMT:getqloc.obj
 0002:00007494       ??_C@_1O@PAEOFKDI@?$AAs?$AAl?$AAo?$AAv?$AAa?$AAk?$AA?$AA@ 1004d494     LIBCMT:getqloc.obj
 0002:000074a4       ??_C@_1BK@FIHMCKAM@?$AAs?$AAo?$AAu?$AAt?$AAh?$AA?5?$AAa?$AAf?$AAr?$AAi?$AAc?$AAa?$AA?$AA@ 1004d4a4     LIBCMT:getqloc.obj
 0002:000074c0       ??_C@_1BI@NAEOODKB@?$AAs?$AAo?$AAu?$AAt?$AAh?$AA?5?$AAk?$AAo?$AAr?$AAe?$AAa?$AA?$AA@ 1004d4c0     LIBCMT:getqloc.obj
 0002:000074d8       ??_C@_1BK@FBDGGIFF@?$AAs?$AAo?$AAu?$AAt?$AAh?$AA?9?$AAa?$AAf?$AAr?$AAi?$AAc?$AAa?$AA?$AA@ 1004d4d8     LIBCMT:getqloc.obj
 0002:000074f4       ??_C@_1BI@GHLEJDPK@?$AAs?$AAo?$AAu?$AAt?$AAh?$AA?9?$AAk?$AAo?$AAr?$AAe?$AAa?$AA?$AA@ 1004d4f4     LIBCMT:getqloc.obj
 0002:0000750c       ??_C@_1CE@PLHLOMJF@?$AAt?$AAr?$AAi?$AAn?$AAi?$AAd?$AAa?$AAd?$AA?5?$AA?$CG?$AA?5?$AAt?$AAo?$AAb?$AAa?$AAg?$AAo?$AA?$AA@ 1004d50c     LIBCMT:getqloc.obj
 0002:00007530       ??_C@_1BO@MODIMHHI@?$AAu?$AAn?$AAi?$AAt?$AAe?$AAd?$AA?9?$AAk?$AAi?$AAn?$AAg?$AAd?$AAo?$AAm?$AA?$AA@ 1004d530     LIBCMT:getqloc.obj
 0002:00007550       ??_C@_1BM@FFHJONBJ@?$AAu?$AAn?$AAi?$AAt?$AAe?$AAd?$AA?9?$AAs?$AAt?$AAa?$AAt?$AAe?$AAs?$AA?$AA@ 1004d550     LIBCMT:getqloc.obj
 0002:0000756c       ___rg_language_count       1004d56c     LIBCMT:getqloc.obj
 0002:00007570       ___rg_country_count        1004d570     LIBCMT:getqloc.obj
 0002:00007574       ??_C@_17DNCLJFIF@?$AAA?$AAC?$AAP?$AA?$AA@ 1004d574     LIBCMT:getqloc.obj
 0002:0000757c       ??_C@_17CIKBIHLH@?$AAO?$AAC?$AAP?$AA?$AA@ 1004d57c     LIBCMT:getqloc.obj
 0002:00007584       ___rglangidNotDefault      1004d584     LIBCMT:getqloc_downlevel.obj
 0002:00007598       __load_config_used         1004d598     LIBCMT:loadcfg.obj
 0002:000088d0       ___safe_se_handler_table   1004e8d0     <linker-defined>
 0002:000089e0       ___rtc_iaa                 1004e9e0     LIBCMT:initsect.obj
 0002:00008ae4       ___rtc_izz                 1004eae4     LIBCMT:initsect.obj
 0002:00008be8       ___rtc_taa                 1004ebe8     LIBCMT:initsect.obj
 0002:00008cec       ___rtc_tzz                 1004ecec     LIBCMT:initsect.obj
 0003:00002218       _pci20041digout            10052218     xpctarget.obj
 0003:0000221c       _nipcdio24cnfg             1005221c     xpctarget.obj
 0003:00002220       _rtddm6604cnfg             10052220     xpctarget.obj
 0003:00003cbc       _DefaultCOMIOBase          10053cbc     xpcruntime:xpcimports.obj
 0003:00003ccc       _DefaultCOMIRQ             10053ccc     xpcruntime:xpcimports.obj
 0003:000040b0       __fltused                  100540b0     LIBCMT:fpinit.obj
 0003:000040b4       __ldused                   100540b4     LIBCMT:fpinit.obj
 0003:000040c0       __iob                      100540c0     LIBCMT:_file.obj
 0003:00004340       ___security_cookie         10054340     LIBCMT:gs_cookie.obj
 0003:00004344       ___security_cookie_complement 10054344     LIBCMT:gs_cookie.obj
 0003:00004520       ___isa_enabled             10054520     LIBCMT:cpu_disp.obj
 0003:00004524       ___nullstring              10054524     LIBCMT:output.obj
 0003:00004528       ___wnullstring             10054528     LIBCMT:output.obj
 0003:00004530       __cfltcvt_tab              10054530     LIBCMT:cmiscdat.obj
 0003:00004680       __mbctype                  10054680     LIBCMT:mbctype.obj
 0003:00004788       __mbcasemap                10054788     LIBCMT:mbctype.obj
 0003:00004888       ___initialmbcinfo          10054888     LIBCMT:mbctype.obj
 0003:00004aac       ___ptmbcinfo               10054aac     LIBCMT:mbctype.obj
 0003:00004ba0       ___badioinfo               10054ba0     LIBCMT:ioinit.obj
 0003:00004be0       __lookuptrailbytes         10054be0     LIBCMT:read.obj
 0003:00004ce8       __d_inf                    10054ce8     LIBCMT:util.obj
 0003:00004cf0       __d_ind                    10054cf0     LIBCMT:util.obj
 0003:00004cf8       __d_max                    10054cf8     LIBCMT:util.obj
 0003:00004d00       __d_min                    10054d00     LIBCMT:util.obj
 0003:00004d08       __d_mzero                  10054d08     LIBCMT:util.obj
 0003:00004e14       ___abort_behavior          10054e14     LIBCMT:abort.obj
 0003:00004e18       ___flsindex                10054e18     LIBCMT:tidtable.obj
 0003:00004e20       ___mb_cur_max              10054e20     LIBCMT:nlsdata.obj
 0003:00004e24       ___wclocalestr             10054e24     LIBCMT:nlsdata.obj
 0003:00004e28       ___lc_time_c               10054e28     LIBCMT:nlsdata.obj
 0003:00004f8c       ___ptlocinfo               10054f8c     LIBCMT:nlsdata.obj
 0003:00004f90       ___initiallocinfo          10054f90     LIBCMT:nlsdata.obj
 0003:00005048       ___initiallocalestructinfo 10055048     LIBCMT:nlsdata.obj
 0003:00005050       ___globallocalestatus      10055050     LIBCMT:glstatus.obj
 0003:00005060       __NLG_Destination          10055060     LIBCMT:exsup.obj
 0003:00005070       __matherr_flag             10055070     LIBCMT:matherr.obj
 0003:00005078       ___lconv                   10055078     LIBCMT:lconv.obj
 0003:0000507c       ___lconv_static_decimal    1005507c     LIBCMT:lconv.obj
 0003:00005080       ___lconv_c                 10055080     LIBCMT:lconv.obj
 0003:000050d0       ___lconv_static_W_decimal  100550d0     LIBCMT:lconv.obj
 0003:000050d4       __pctype                   100550d4     LIBCMT:ctype.obj
 0003:000050d8       __pwctype                  100550d8     LIBCMT:ctype.obj
 0003:00005110       __confh                    10055110     LIBCMT:initcon.obj
 0003:00005118       __pow10pos                 10055118     LIBCMT:constpow.obj
 0003:00005278       __pow10neg                 10055278     LIBCMT:constpow.obj
 0003:000053e0       __HUGE                     100553e0     LIBCMT:huge.obj
 0003:00005d3c       _xmlsize                   10055d3c     xpctarget.obj
 0003:00005d40       _pci20098PortA             10055d40     xpctarget.obj
 0003:00005d44       _pci20098PortB             10055d44     xpctarget.obj
 0003:00005d48       _siepowercan_firmware_initialized 10055d48     xpctarget.obj
 0003:00005d4c       _siepowercan_port1_configured 10055d4c     xpctarget.obj
 0003:00005d50       _siepowercan_port2_configured 10055d50     xpctarget.obj
 0003:00005d54       _CANAC2_FIRMWARE_LOADED    10055d54     xpctarget.obj
 0003:00005d58       _rs232ports                10055d58     xpctarget.obj
 0003:00005d68       _NI_AT_MIO_16F_5_commreg2  10055d68     xpctarget.obj
 0003:00005d6c       _RTD_DM6430_init           10055d6c     xpctarget.obj
 0003:00005d70       _RTD_DM6420_init           10055d70     xpctarget.obj
 0003:00005d74       _CANAC2_FIRMWARE_LOADED_mb1 10055d74     xpctarget.obj
 0003:00005d78       _CANAC2_FIRMWARE_LOADED_mb2 10055d78     xpctarget.obj
 0003:00005d7c       _CANAC2_FIRMWARE_LOADED_mb3 10055d7c     xpctarget.obj
 0003:00006350       ___fastflag                10056350     LIBCMT:fpinit.obj
 0003:00006678       __C_Exit_Done              10056678     LIBCMT:crt0dat.obj
 0003:0000667c       ___argc                    1005667c     LIBCMT:crt0dat.obj
 0003:00006680       ___argv                    10056680     LIBCMT:crt0dat.obj
 0003:00006684       ___wargv                   10056684     LIBCMT:crt0dat.obj
 0003:00006688       __environ                  10056688     LIBCMT:crt0dat.obj
 0003:0000668c       __wenviron                 1005668c     LIBCMT:crt0dat.obj
 0003:00006690       __pgmptr                   10056690     LIBCMT:crt0dat.obj
 0003:00006694       __wpgmptr                  10056694     LIBCMT:crt0dat.obj
 0003:00006698       __umaskval                 10056698     LIBCMT:crt0dat.obj
 0003:0000669c       __exitflag                 1005669c     LIBCMT:crt0dat.obj
 0003:000066a0       __C_Termination_Done       100566a0     LIBCMT:crt0dat.obj
 0003:000066a4       ___winitenv                100566a4     LIBCMT:crt0dat.obj
 0003:000066a8       ___initenv                 100566a8     LIBCMT:crt0dat.obj
 0003:000066ac       __cflush                   100566ac     LIBCMT:_file.obj
 0003:000066b4       __aenvptr                  100566b4     LIBCMT:dllcrt0.obj
 0003:000066b8       __wenvptr                  100566b8     LIBCMT:dllcrt0.obj
 0003:000066bc       ?_pnhHeap@@3P6AHI@ZA       100566bc     LIBCMT:handler.obj
 0003:000066c0       ___app_type                100566c0     LIBCMT:crt0msg.obj
 0003:00006cf0       __newmode                  10056cf0     LIBCMT:_newmode.obj
 0003:00006cf4       __crtheap                  10056cf4     LIBCMT:heapinit.obj
 0003:00006cf8       ___isa_available           10056cf8     LIBCMT:cpu_disp.obj
 0003:00006cfc       ___favor                   10056cfc     LIBCMT:cpu_disp.obj
 0003:00006d00       ___pInvalidArgHandler      10056d00     LIBCMT:invarg.obj
 0003:00006d04       __stdbuf                   10056d04     LIBCMT:_sftbuf.obj
 0003:00006e60       __maxwait                  10056e60     LIBCMT:crtheap.obj
 0003:00006e64       ?__pInconsistency@@3P6AXXZA 10056e64     LIBCMT:hooks.obj
 0003:00006e68       ___pPurecall               10056e68     LIBCMT:inithelp.obj
 0003:00006e84       ___mbcodepage              10056e84     LIBCMT:mbctype.obj
 0003:00006e88       ___ismbcodepage            10056e88     LIBCMT:mbctype.obj
 0003:00006e8c       ___mbulinfo                10056e8c     LIBCMT:mbctype.obj
 0003:00006e98       ___mblocalename            10056e98     LIBCMT:mbctype.obj
 0003:00006ea0       ___pioinfo                 10056ea0     LIBCMT:ioinit.obj
 0003:00006fa4       ___error_mode              10056fa4     LIBCMT:errmode.obj
 0003:000070c8       __outputformat             100570c8     LIBCMT:outputformat.obj
 0003:000070d0       __commode                  100570d0     LIBCMT:ncommode.obj
 0003:000070d4       ___lconv_static_null       100570d4     LIBCMT:lconv.obj
 0003:000070d8       ___lconv_static_W_null     100570d8     LIBCMT:lconv.obj
 0003:000070dc       ___locale_changed          100570dc     LIBCMT:wsetloca.obj
 0003:000070e0       __fmode                    100570e0     LIBCMT:txtmode.obj
 0003:00007100       _CANAC2_2_receiveindex_mb3 10057100     <common>
 0003:0000a1d4       _CANAC2_2_receivemaxindex_mb3 1005a1d4     <common>
 0003:0000a1e0       _CANAC2_2_sendindex_mb3    1005a1e0     <common>
 0003:0000a500       _CANAC2_2_sendmaxindex_mb3 1005a500     <common>
 0003:0000a520       _CANAC2_1_receiveindex_mb3 1005a520     <common>
 0003:0000a840       _CANAC2_1_receivemaxindex_mb3 1005a840     <common>
 0003:0000a860       _CANAC2_1_sendindex_mb3    1005a860     <common>
 0003:0000ab80       _CANAC2_1_sendmaxindex_mb3 1005ab80     <common>
 0003:0000aba0       _CANAC2_2_receive_mb3      1005aba0     <common>
 0003:0000aec0       _CANAC2_2_send_mb3         1005aec0     <common>
 0003:0000b1e0       _CANAC2_1_receive_mb3      1005b1e0     <common>
 0003:0000b500       _CANAC2_1_send_mb3         1005b500     <common>
 0003:0000b820       _CANAC2_2_receiveindex_mb2 1005b820     <common>
 0003:0000bb40       _CANAC2_2_receivemaxindex_mb2 1005bb40     <common>
 0003:0000bb60       _CANAC2_2_sendindex_mb2    1005bb60     <common>
 0003:0000be80       _CANAC2_2_sendmaxindex_mb2 1005be80     <common>
 0003:0000bea0       _CANAC2_1_receiveindex_mb2 1005bea0     <common>
 0003:0000c1c0       _CANAC2_1_receivemaxindex_mb2 1005c1c0     <common>
 0003:0000c1e0       _CANAC2_1_sendindex_mb2    1005c1e0     <common>
 0003:0000c500       _CANAC2_1_sendmaxindex_mb2 1005c500     <common>
 0003:0000c520       _CANAC2_2_receive_mb2      1005c520     <common>
 0003:0000c840       _CANAC2_2_send_mb2         1005c840     <common>
 0003:0000cb60       _CANAC2_1_receive_mb2      1005cb60     <common>
 0003:0000ce80       _CANAC2_1_send_mb2         1005ce80     <common>
 0003:0000d1a0       _CANAC2_2_receiveindex_mb1 1005d1a0     <common>
 0003:0000d4c0       _CANAC2_2_receivemaxindex_mb1 1005d4c0     <common>
 0003:0000d4e0       _CANAC2_2_sendindex_mb1    1005d4e0     <common>
 0003:0000d800       _CANAC2_2_sendmaxindex_mb1 1005d800     <common>
 0003:0000d820       _CANAC2_1_receiveindex_mb1 1005d820     <common>
 0003:0000db40       _CANAC2_1_receivemaxindex_mb1 1005db40     <common>
 0003:0000db60       _CANAC2_1_sendindex_mb1    1005db60     <common>
 0003:0000de80       _CANAC2_1_sendmaxindex_mb1 1005de80     <common>
 0003:0000dea0       _CANAC2_2_receive_mb1      1005dea0     <common>
 0003:0000e1c0       _CANAC2_2_send_mb1         1005e1c0     <common>
 0003:0000e4e0       _CANAC2_1_receive_mb1      1005e4e0     <common>
 0003:0000e800       _CANAC2_1_send_mb1         1005e800     <common>
 0003:0000eb20       _CANAC2_2_receiveindex     1005eb20     <common>
 0003:0000ee40       _CANAC2_2_receivemaxindex  1005ee40     <common>
 0003:0000ee60       _CANAC2_2_sendindex        1005ee60     <common>
 0003:0000f180       _CANAC2_2_sendmaxindex     1005f180     <common>
 0003:0000f1a0       _CANAC2_1_receiveindex     1005f1a0     <common>
 0003:0000f4c0       _CANAC2_1_receivemaxindex  1005f4c0     <common>
 0003:0000f4e0       _CANAC2_1_sendindex        1005f4e0     <common>
 0003:0000f800       _CANAC2_1_sendmaxindex     1005f800     <common>
 0003:0000f820       _CANAC2_2_receive          1005f820     <common>
 0003:0000fb40       _CANAC2_2_send             1005fb40     <common>
 0003:0000fe60       _CANAC2_1_receive          1005fe60     <common>
 0003:00010180       _CANAC2_1_send             10060180     <common>
 0003:000104a0       _siepowercan_can_object_buffer_port2 100604a0     <common>
 0003:000144c0       _siepowercan_can_object_buffer_port1 100644c0     <common>
 0003:000184c0       _rtNaNF                    100684c0     <common>
 0003:000184d4       _rtMinusInfF               100684d4     <common>
 0003:000184d8       _rtInfF                    100684d8     <common>
 0003:000184e0       _rtNaN                     100684e0     <common>
 0003:000184e8       _rtMinusInf                100684e8     <common>
 0003:000184f0       _rtInf                     100684f0     <common>
 0003:00018500       _Pump2Test0_1_M_           10068500     <common>
 0003:00019ac0       _Pump2Test0_1_DW           10069ac0     <common>
 0003:00019c80       _Pump2Test0_1_B            10069c80     <common>
 0003:00019d58       _ReadFrameBuffer           10069d58     <common>
 0003:00019db8       _StartVideo                10069db8     <common>
 0003:00019dbc       _GetVideoConfigs           10069dbc     <common>
 0003:00019dc0       _FindUsbVideoDevice        10069dc0     <common>
 0003:00019dc4       _xpceDeleteSemaphore       10069dc4     <common>
 0003:00019dc8       _xpceSignalSemaphore       10069dc8     <common>
 0003:00019dcc       _xpceWaitSemaphore         10069dcc     <common>
 0003:00019dd0       _xpceCreateSemaphore       10069dd0     <common>
 0003:00019dd4       _TBGiveSpinFast            10069dd4     <common>
 0003:00019dd8       _TBTakeSpinFast            10069dd8     <common>
 0003:00019ddc       _TBDeleteSpin              10069ddc     <common>
 0003:00019de0       _TBCreateSpin              10069de0     <common>
 0003:00019de4       _xpceScopeAcqOK            10069de4     <common>
 0003:00019de8       _rl32eRestartAcquisition   10069de8     <common>
 0003:00019dec       _rl32eSetTargetScopeSigFt  10069dec     <common>
 0003:00019df0       _rl32eSetTargetScope       10069df0     <common>
 0003:00019df4       _xpceFSScopeSet            10069df4     <common>
 0003:00019df8       _rl32eSetScope             10069df8     <common>
 0003:00019dfc       _rl32eAddSignal            10069dfc     <common>
 0003:00019e00       _rl32eGetSignalNo          10069e00     <common>
 0003:00019e04       _rl32eDefScope             10069e04     <common>
 0003:00019e08       _rl32eScopeExists          10069e08     <common>
 0003:00019e0c       _xpceGetParamDims          10069e0c     <common>
 0003:00019e10       _xpceGetParameter          10069e10     <common>
 0003:00019e14       _xpceSetParameter          10069e14     <common>
 0003:00019e18       _xpceGetSignalValue        10069e18     <common>
 0003:00019e1c       _xpceAssignPCIInterrupt    10069e1c     <common>
 0003:00019e20       _rl32eGetPCIInfoAtSlot     10069e20     <common>
 0003:00019e24       _rl32eGetPCIInfo           10069e24     <common>
 0003:00019e28       _rl32eShowPCIInfo          10069e28     <common>
 0003:00019e2c       _rl32eShowPCIDev           10069e2c     <common>
 0003:00019e30       _xpceGetTET                10069e30     <common>
 0003:00019e34       _xpceaddEvent              10069e34     <common>
 0003:00019e38       _xpceDeRegisterISR         10069e38     <common>
 0003:00019e3c       _xpceRegisterISR           10069e3c     <common>
 0003:00019e40       _xpcIsModelInit            10069e40     <common>
 0003:00019e44       _xpcGetElapsedTime         10069e44     <common>
 0003:00019e48       _xpcBusyWait               10069e48     <common>
 0003:00019e4c       _xpcFreePhysicalMemory     10069e4c     <common>
 0003:00019e50       _xpcAllocPhysicalMemory    10069e50     <common>
 0003:00019e54       _xpcReserveMemoryRegion    10069e54     <common>
 0003:00019e58       _xpcOutpB                  10069e58     <common>
 0003:00019e5c       _xpcOutpW                  10069e5c     <common>
 0003:00019e60       _xpcOutpDW                 10069e60     <common>
 0003:00019e64       _xpcInpB                   10069e64     <common>
 0003:00019e68       _xpcInpW                   10069e68     <common>
 0003:00019e6c       _xpcInpDW                  10069e6c     <common>
 0003:00019e70       _socket                    10069e70     <common>
 0003:00019e74       _inet_addr                 10069e74     <common>
 0003:00019e78       _sendto                    10069e78     <common>
 0003:00019e7c       _recvfrom                  10069e7c     <common>
 0003:00019e80       _listen                    10069e80     <common>
 0003:00019e84       _ioctlsocket               10069e84     <common>
 0003:00019e88       _connect                   10069e88     <common>
 0003:00019e8c       _closesocket               10069e8c     <common>
 0003:00019e90       _setsockopt                10069e90     <common>
 0003:00019e94       _bind                      10069e94     <common>
 0003:00019e98       _accept                    10069e98     <common>
 0003:00019e9c       _GetHostTarIPAdd           10069e9c     <common>
 0003:00019ea0       _GetDCUUsage               10069ea0     <common>
 0003:00019ea4       _DeleteRoute               10069ea4     <common>
 0003:00019ea8       _AddGatewayRoute           10069ea8     <common>
 0003:00019eac       _SetIP                     10069eac     <common>
 0003:00019eb0       _CloseInterface            10069eb0     <common>
 0003:00019eb4       _OpenInterface             10069eb4     <common>
 0003:00019eb8       _SetIPTASKPriority         10069eb8     <common>
 0003:00019ebc       _isUsedByRTIP              10069ebc     <common>
 0003:00019ec0       _getlasterror              10069ec0     <common>
 0003:00019ec4       _slrtfsGetFileStatus       10069ec4     <common>
 0003:00019ec8       _slrtfsOpenFileAsync       10069ec8     <common>
 0003:00019ecc       _slrtfsCloseFileAsync      10069ecc     <common>
 0003:00019ed0       _slrtfsGetFileErrorMessage 10069ed0     <common>
 0003:00019ed4       _slrtfsGetFileError        10069ed4     <common>
 0003:00019ed8       _slrtfsWriteToFile         10069ed8     <common>
 0003:00019edc       _slrtfsCloseFile           10069edc     <common>
 0003:00019ee0       _slrtfsOpenFile            10069ee0     <common>
 0003:00019ee4       _slrtGetSgCRBSpace         10069ee4     <common>
 0003:00019ee8       _slrtGetCRBScratchSpace    10069ee8     <common>
 0003:00019eec       _slrteSetupMSI             10069eec     <common>
 0003:00019ef0       _slTestRegAssessment       10069ef0     <common>
 0003:00019ef4       _slTestTerminate           10069ef4     <common>
 0003:00019ef8       _slTestEvalOnFail          10069ef8     <common>
 0003:00019efc       _slTestLogAssessments      10069efc     <common>
 0003:00019f00       _slTestInitialize          10069f00     <common>
 0003:00019f04       _unRegisterPTPTimeRead     10069f04     <common>
 0003:00019f08       _registerPTPTimeRead       10069f08     <common>
 0003:00019f0c       _slrteGetCurrentStepSize   10069f0c     <common>
 0003:00019f10       _slrteSetStepSizeDelta     10069f10     <common>
 0003:00019f14       _xpceGetIntTimerGranularityNS 10069f14     <common>
 0003:00019f18       _sendToAsyncQueueTgtAppSvc 10069f18     <common>
 0003:00019f1c       _terminateToAsyncQueueTgtAppSvc 10069f1c     <common>
 0003:00019f20       _startToAsyncQueueTgtAppSvc 10069f20     <common>
 0003:00019f24       _getStatusFlags            10069f24     <common>
 0003:00019f28       _getCommService            10069f28     <common>
 0003:00019f2c       _getMemoryService          10069f2c     <common>
 0003:00019f30       _StreamVideo               10069f30     <common>
 0003:00019f34       _StopVideoDisplay          10069f34     <common>
 0003:00019f38       _StartVideoDisplay         10069f38     <common>
 0003:00019f3c       _DestroyVideoDisplay       10069f3c     <common>
 0003:00019f40       _CreateVideoDisplay        10069f40     <common>
 0003:00019f44       _ConvertUImage             10069f44     <common>
 0003:00019f48       _StopVideo                 10069f48     <common>
 0003:00019f4c       ___unguarded_readlc_active 10069f4c     <common>
 0003:00019f5c       ___setlc_active            10069f5c     <common>
 0003:00019f60       ___use_sse2_mathfcns       10069f60     <common>
 0003:00019f6c       __pmatherr                 10069f6c     <common>
 0003:00019f78       __nhandle                  10069f78     <common>
 0003:00019fa0       _encodedKERNEL32Functions  10069fa0     <common>
 0003:0001a048       __debugger_hook_dummy      1006a048     <common>
 0003:0001a054       __pDestructExceptionObject 1006a054     <common>
 0003:0001a060       __acmdln                   1006a060     <common>
 0003:0001a080       __bufin                    1006a080     <common>
 0003:0001b3bc       ___piob                    1006b3bc     <common>
 0003:0001b3c0       __nstream                  1006b3c0     <common>
 0003:0001b3c4       ___dyn_tls_init_callback   1006b3c4     <common>
 0003:0001b3d4       ___onexitend               1006b3d4     <common>
 0003:0001b3d8       ___onexitbegin             1006b3d8     <common>
 0003:0001b3dc       ___mbctype_initialized     1006b3dc     <common>
 0003:0001b3e0       ___env_initialized         1006b3e0     <common>
 0004:00000000       __imp__GetModuleHandleA@4  1006c000     kernel32:KERNEL32.dll
 0004:00000004       __imp__GetProcAddress@8    1006c004     kernel32:KERNEL32.dll
 0004:00000008       __imp__HeapAlloc@12        1006c008     kernel32:KERNEL32.dll
 0004:0000000c       __imp__IsDebuggerPresent@0 1006c00c     kernel32:KERNEL32.dll
 0004:00000010       __imp__IsProcessorFeaturePresent@4 1006c010     kernel32:KERNEL32.dll
 0004:00000014       __imp__EncodePointer@4     1006c014     kernel32:KERNEL32.dll
 0004:00000018       __imp__DecodePointer@4     1006c018     kernel32:KERNEL32.dll
 0004:0000001c       __imp__GetLastError@0      1006c01c     kernel32:KERNEL32.dll
 0004:00000020       __imp__ExitProcess@4       1006c020     kernel32:KERNEL32.dll
 0004:00000024       __imp__GetModuleHandleExW@12 1006c024     kernel32:KERNEL32.dll
 0004:00000028       __imp__AreFileApisANSI@0   1006c028     kernel32:KERNEL32.dll
 0004:0000002c       __imp__MultiByteToWideChar@24 1006c02c     kernel32:KERNEL32.dll
 0004:00000030       __imp__WideCharToMultiByte@32 1006c030     kernel32:KERNEL32.dll
 0004:00000034       __imp__HeapFree@12         1006c034     kernel32:KERNEL32.dll
 0004:00000038       __imp__HeapReAlloc@16      1006c038     kernel32:KERNEL32.dll
 0004:0000003c       __imp__EnterCriticalSection@4 1006c03c     kernel32:KERNEL32.dll
 0004:00000040       __imp__LeaveCriticalSection@4 1006c040     kernel32:KERNEL32.dll
 0004:00000044       __imp__GetStdHandle@4      1006c044     kernel32:KERNEL32.dll
 0004:00000048       __imp__GetFileType@4       1006c048     kernel32:KERNEL32.dll
 0004:0000004c       __imp__GetModuleFileNameW@12 1006c04c     kernel32:KERNEL32.dll
 0004:00000050       __imp__WriteConsoleW@20    1006c050     kernel32:KERNEL32.dll
 0004:00000054       __imp__GetCommandLineA@0   1006c054     kernel32:KERNEL32.dll
 0004:00000058       __imp__GetCurrentThreadId@0 1006c058     kernel32:KERNEL32.dll
 0004:0000005c       __imp__WriteFile@20        1006c05c     kernel32:KERNEL32.dll
 0004:00000060       __imp__GetProcessHeap@0    1006c060     kernel32:KERNEL32.dll
 0004:00000064       __imp__UnhandledExceptionFilter@4 1006c064     kernel32:KERNEL32.dll
 0004:00000068       __imp__SetUnhandledExceptionFilter@4 1006c068     kernel32:KERNEL32.dll
 0004:0000006c       __imp__SetLastError@4      1006c06c     kernel32:KERNEL32.dll
 0004:00000070       __imp__InitializeCriticalSectionAndSpinCount@8 1006c070     kernel32:KERNEL32.dll
 0004:00000074       __imp__CreateEventW@16     1006c074     kernel32:KERNEL32.dll
 0004:00000078       __imp__Sleep@4             1006c078     kernel32:KERNEL32.dll
 0004:0000007c       __imp__GetCurrentProcess@0 1006c07c     kernel32:KERNEL32.dll
 0004:00000080       __imp__TerminateProcess@8  1006c080     kernel32:KERNEL32.dll
 0004:00000084       __imp__TlsAlloc@0          1006c084     kernel32:KERNEL32.dll
 0004:00000088       __imp__TlsGetValue@4       1006c088     kernel32:KERNEL32.dll
 0004:0000008c       __imp__TlsSetValue@8       1006c08c     kernel32:KERNEL32.dll
 0004:00000090       __imp__TlsFree@4           1006c090     kernel32:KERNEL32.dll
 0004:00000094       __imp__GetStartupInfoW@4   1006c094     kernel32:KERNEL32.dll
 0004:00000098       __imp__GetTickCount@0      1006c098     kernel32:KERNEL32.dll
 0004:0000009c       __imp__GetModuleHandleW@4  1006c09c     kernel32:KERNEL32.dll
 0004:000000a0       __imp__CreateSemaphoreW@16 1006c0a0     kernel32:KERNEL32.dll
 0004:000000a4       __imp__DeleteCriticalSection@4 1006c0a4     kernel32:KERNEL32.dll
 0004:000000a8       __imp__FatalAppExitA@8     1006c0a8     kernel32:KERNEL32.dll
 0004:000000ac       __imp__SetConsoleCtrlHandler@8 1006c0ac     kernel32:KERNEL32.dll
 0004:000000b0       __imp__FreeLibrary@4       1006c0b0     kernel32:KERNEL32.dll
 0004:000000b4       __imp__LoadLibraryExW@12   1006c0b4     kernel32:KERNEL32.dll
 0004:000000b8       __imp__IsValidCodePage@4   1006c0b8     kernel32:KERNEL32.dll
 0004:000000bc       __imp__GetACP@0            1006c0bc     kernel32:KERNEL32.dll
 0004:000000c0       __imp__GetOEMCP@0          1006c0c0     kernel32:KERNEL32.dll
 0004:000000c4       __imp__GetCPInfo@8         1006c0c4     kernel32:KERNEL32.dll
 0004:000000c8       __imp__CloseHandle@4       1006c0c8     kernel32:KERNEL32.dll
 0004:000000cc       __imp__RtlUnwind@16        1006c0cc     kernel32:KERNEL32.dll
 0004:000000d0       __imp__ReadFile@20         1006c0d0     kernel32:KERNEL32.dll
 0004:000000d4       __imp__GetConsoleMode@8    1006c0d4     kernel32:KERNEL32.dll
 0004:000000d8       __imp__ReadConsoleW@20     1006c0d8     kernel32:KERNEL32.dll
 0004:000000dc       __imp__GetConsoleCP@0      1006c0dc     kernel32:KERNEL32.dll
 0004:000000e0       __imp__DeleteFileW@4       1006c0e0     kernel32:KERNEL32.dll
 0004:000000e4       __imp__SetFilePointerEx@20 1006c0e4     kernel32:KERNEL32.dll
 0004:000000e8       __imp__RaiseException@16   1006c0e8     kernel32:KERNEL32.dll
 0004:000000ec       __imp__OutputDebugStringW@4 1006c0ec     kernel32:KERNEL32.dll
 0004:000000f0       __imp__GetCurrentThread@0  1006c0f0     kernel32:KERNEL32.dll
 0004:000000f4       __imp__GetModuleFileNameA@12 1006c0f4     kernel32:KERNEL32.dll
 0004:000000f8       __imp__QueryPerformanceCounter@4 1006c0f8     kernel32:KERNEL32.dll
 0004:000000fc       __imp__GetCurrentProcessId@0 1006c0fc     kernel32:KERNEL32.dll
 0004:00000100       __imp__GetSystemTimeAsFileTime@4 1006c100     kernel32:KERNEL32.dll
 0004:00000104       __imp__GetEnvironmentStringsW@0 1006c104     kernel32:KERNEL32.dll
 0004:00000108       __imp__FreeEnvironmentStringsW@4 1006c108     kernel32:KERNEL32.dll
 0004:0000010c       __imp__HeapSize@12         1006c10c     kernel32:KERNEL32.dll
 0004:00000110       __imp__GetDateFormatW@24   1006c110     kernel32:KERNEL32.dll
 0004:00000114       __imp__GetTimeFormatW@24   1006c114     kernel32:KERNEL32.dll
 0004:00000118       __imp__CompareStringW@24   1006c118     kernel32:KERNEL32.dll
 0004:0000011c       __imp__LCMapStringW@24     1006c11c     kernel32:KERNEL32.dll
 0004:00000120       __imp__GetLocaleInfoW@16   1006c120     kernel32:KERNEL32.dll
 0004:00000124       __imp__IsValidLocale@8     1006c124     kernel32:KERNEL32.dll
 0004:00000128       __imp__GetUserDefaultLCID@0 1006c128     kernel32:KERNEL32.dll
 0004:0000012c       __imp__EnumSystemLocalesW@8 1006c12c     kernel32:KERNEL32.dll
 0004:00000130       __imp__GetStringTypeW@16   1006c130     kernel32:KERNEL32.dll
 0004:00000134       __imp__FlushFileBuffers@4  1006c134     kernel32:KERNEL32.dll
 0004:00000138       __imp__SetStdHandle@8      1006c138     kernel32:KERNEL32.dll
 0004:0000013c       __imp__CreateFileW@28      1006c13c     kernel32:KERNEL32.dll
 0004:00000140       __imp__SetEndOfFile@4      1006c140     kernel32:KERNEL32.dll
 0004:00000144       \177KERNEL32_NULL_THUNK_DATA 1006c144     kernel32:KERNEL32.dll
 0004:000001b0       __IMPORT_DESCRIPTOR_KERNEL32 1006c1b0     kernel32:KERNEL32.dll
 0004:000001c4       __NULL_IMPORT_DESCRIPTOR   1006c1c4     kernel32:KERNEL32.dll
